

Microchip MPLAB XC8 Assembler V2.32 build 20210201212658 
                                                                                               Mon Apr  5 12:30:57 2021

Microchip MPLAB XC8 C Compiler v2.32 (Free license) build 20210201212658 Og1 
     1                           	processor	18F4520
     2                           	fnconf	rparam,??,?,0
     3                           	pagewidth 120
     4                           	opt	flic
     5                           	psect	idataBANK0,global,class=CODE,delta=1,noexec
     6                           	psect	idataBANK1,global,class=CODE,delta=1,noexec
     7                           	psect	idataBANK2,global,class=CODE,delta=1,noexec
     8                           	psect	nvBANK0,global,class=BANK0,space=1,delta=1,lowdata,noexec
     9                           	psect	nvBANK1,global,class=BANK1,space=1,delta=1,lowdata,noexec
    10                           	psect	nvBANK2,global,class=BANK2,space=1,delta=1,lowdata,noexec
    11                           	psect	mediumconst,global,reloc=2,class=MEDIUMCONST,delta=1,noexec
    12                           	psect	cinit,global,reloc=2,class=CODE,delta=1
    13                           	psect	bssBANK0,global,class=BANK0,space=1,delta=1,lowdata,noexec
    14                           	psect	dataBANK0,global,class=BANK0,space=1,delta=1,lowdata,noexec
    15                           	psect	bssBANK1,global,class=BANK1,space=1,delta=1,lowdata,noexec
    16                           	psect	dataBANK1,global,class=BANK1,space=1,delta=1,lowdata,noexec
    17                           	psect	dataBANK2,global,class=BANK2,space=1,delta=1,lowdata,noexec
    18                           	psect	cstackBANK0,global,class=BANK0,space=1,delta=1,lowdata,noexec
    19                           	psect	cstackCOMRAM,global,class=COMRAM,space=1,delta=1,lowdata,noexec
    20                           	psect	text0,global,reloc=2,class=CODE,delta=1
    21                           	psect	text1,global,reloc=2,class=CODE,delta=1
    22                           	psect	text2,global,reloc=2,class=CODE,delta=1,group=2
    23                           	psect	text3,global,reloc=2,class=CODE,delta=1,group=2
    24                           	psect	text4,global,reloc=2,class=CODE,delta=1,group=2
    25                           	psect	text5,global,reloc=2,class=CODE,delta=1,group=2
    26                           	psect	text6,global,reloc=2,class=CODE,delta=1
    27                           	psect	intcode,global,reloc=2,class=CODE,delta=1
    28                           	psect	intcode_body,global,reloc=2,class=CODE,delta=1
    29                           	psect	text8,global,reloc=2,class=CODE,delta=1
    30                           	psect	text9,global,reloc=2,class=CODE,delta=1,group=3
    31                           	psect	text10,global,reloc=2,class=CODE,delta=1,group=1
    32                           	psect	text11,global,reloc=2,class=CODE,delta=1,group=1
    33                           	psect	text12,global,reloc=2,class=CODE,delta=1,group=1
    34                           	psect	text13,global,reloc=2,class=CODE,delta=1,group=3
    35                           	psect	text14,global,reloc=2,class=CODE,delta=1,group=3
    36                           	psect	text15,global,reloc=2,class=CODE,delta=1,group=3
    37                           	psect	text16,global,reloc=2,class=CODE,delta=1,group=3
    38                           	psect	text17,global,reloc=2,class=CODE,delta=1,group=1
    39                           	psect	text18,global,reloc=2,class=CODE,delta=1,group=1
    40                           	psect	text19,global,reloc=2,class=CODE,delta=1,group=3
    41                           	psect	text20,global,reloc=2,class=CODE,delta=1,group=3
    42                           	psect	text21,global,reloc=2,class=CODE,delta=1,group=3
    43                           	psect	text22,global,reloc=2,class=CODE,delta=1,group=3
    44                           	psect	text23,global,reloc=2,class=CODE,delta=1,group=2
    45                           	psect	text24,global,reloc=2,class=CODE,delta=1,group=2
    46                           	psect	text25,global,reloc=2,class=CODE,delta=1,group=3
    47                           	psect	text26,global,reloc=2,class=CODE,delta=1,group=3
    48                           	psect	text27,global,reloc=2,class=CODE,delta=1,group=3
    49                           	psect	text28,global,reloc=2,class=CODE,delta=1,group=2
    50                           	psect	intsave_regs,global,class=BIGRAM,space=1,delta=1,noexec
    51                           	psect	rparam,global,class=COMRAM,space=1,delta=1,noexec
    52                           	psect	temp,global,ovrld,common,class=COMRAM,space=1,delta=1
    53                           	psect	idloc,global,abs,ovrld,class=IDLOC,space=5,delta=1,noexec
    54                           	psect	config,global,abs,ovrld,class=CONFIG,space=4,delta=1,noexec
    55  0000                     
    56                           ; Version 2.32
    57                           ; Generated 02/02/2021 GMT
    58                           ; 
    59                           ; Copyright © 2021, Microchip Technology Inc. and its subsidiaries ("Microchip")
    60                           ; All rights reserved.
    61                           ; 
    62                           ; This software is developed by Microchip Technology Inc. and its subsidiaries ("Microch
      +                          ip").
    63                           ; 
    64                           ; Redistribution and use in source and binary forms, with or without modification, are
    65                           ; permitted provided that the following conditions are met:
    66                           ; 
    67                           ;     1. Redistributions of source code must retain the above copyright notice, this lis
      +                          t of
    68                           ;        conditions and the following disclaimer.
    69                           ; 
    70                           ;     2. Redistributions in binary form must reproduce the above copyright notice, this 
      +                          list
    71                           ;        of conditions and the following disclaimer in the documentation and/or other
    72                           ;        materials provided with the distribution. Publication is not required when
    73                           ;        this file is used in an embedded application.
    74                           ; 
    75                           ;     3. Microchip's name may not be used to endorse or promote products derived from th
      +                          is
    76                           ;        software without specific prior written permission.
    77                           ; 
    78                           ; THIS SOFTWARE IS PROVIDED BY MICROCHIP "AS IS" AND ANY EXPRESS OR IMPLIED WARRANTIES,
    79                           ; INCLUDING, BUT NOT LIMITED TO, THE IMPLIED WARRANTIES OF MERCHANTABILITY AND FITNESS F
      +                          OR
    80                           ; PURPOSE ARE DISCLAIMED.  IN NO EVENT SHALL MICROCHIP BE LIABLE FOR ANY DIRECT, INDIREC
      +                          T,
    81                           ; INCIDENTAL, SPECIAL, EXEMPLARY, OR CONSEQUENTIAL DAMAGES (INCLUDING BUT NOT LIMITED TO
    82                           ; PROCUREMENT OF SUBSTITUTE GOODS OR SERVICES; LOSS OF USE, DATA OR PROFITS; OR BUSINESS
    83                           ; INTERRUPTION) HOWSOEVER CAUSED AND ON ANY THEORY OF LIABILITY, WHETHER IN CONTRACT, ST
      +                          RICT
    84                           ; LIABILITY, OR TORT (INCLUDING NEGLIGENCE OR OTHERWISE) ARISING IN ANY WAY OUT OF THE U
      +                          SE OF
    85                           ; THIS SOFTWARE, EVEN IF ADVISED OF THE POSSIBILITY OF SUCH DAMAGE.
    86                           ; 
    87                           ; 
    88                           ; Code-generator required, PIC18F4520 Definitions
    89                           ; 
    90                           ; SFR Addresses
    91  0000                     
    92                           	psect	idataBANK0
    93  00385A                     __pidataBANK0:
    94                           	callstack 0
    95                           
    96                           ;initializer for _CRLF
    97  00385A  0D                 	db	13
    98  00385B  0A                 	db	10
    99  00385C  00                 	db	0
   100                           
   101                           	psect	idataBANK1
   102  002FD0                     __pidataBANK1:
   103                           	callstack 0
   104                           
   105                           ;initializer for _MsgCritical_3
   106  002FD0  43                 	db	67
   107  002FD1  52                 	db	82
   108  002FD2  49                 	db	73
   109  002FD3  54                 	db	84
   110  002FD4  49                 	db	73
   111  002FD5  43                 	db	67
   112  002FD6  41                 	db	65
   113  002FD7  4C                 	db	76
   114  002FD8  20                 	db	32
   115  002FD9  3A                 	db	58
   116  002FDA  20                 	db	32
   117  002FDB  42                 	db	66
   118  002FDC  41                 	db	65
   119  002FDD  47                 	db	71
   120  002FDE  20                 	db	32
   121  002FDF  42                 	db	66
   122  002FE0  41                 	db	65
   123  002FE1  47                 	db	71
   124  002FE2  5F                 	db	95
   125  002FE3  53                 	db	83
   126  002FE4  54                 	db	84
   127  002FE5  41                 	db	65
   128  002FE6  54                 	db	84
   129  002FE7  45                 	db	69
   130  002FE8  5F                 	db	95
   131  002FE9  49                 	db	73
   132  002FEA  4E                 	db	78
   133  002FEB  5F                 	db	95
   134  002FEC  50                 	db	80
   135  002FED  4C                 	db	76
   136  002FEE  41                 	db	65
   137  002FEF  43                 	db	67
   138  002FF0  45                 	db	69
   139  002FF1  00                 	db	0
   140                           
   141                           ;initializer for _MsgCritical_1
   142  002FF2  43                 	db	67
   143  002FF3  52                 	db	82
   144  002FF4  49                 	db	73
   145  002FF5  54                 	db	84
   146  002FF6  49                 	db	73
   147  002FF7  43                 	db	67
   148  002FF8  41                 	db	65
   149  002FF9  4C                 	db	76
   150  002FFA  20                 	db	32
   151  002FFB  3A                 	db	58
   152  002FFC  20                 	db	32
   153  002FFD  42                 	db	66
   154  002FFE  41                 	db	65
   155  002FFF  47                 	db	71
   156  003000  20                 	db	32
   157  003001  42                 	db	66
   158  003002  41                 	db	65
   159  003003  47                 	db	71
   160  003004  5F                 	db	95
   161  003005  53                 	db	83
   162  003006  54                 	db	84
   163  003007  41                 	db	65
   164  003008  54                 	db	84
   165  003009  45                 	db	69
   166  00300A  5F                 	db	95
   167  00300B  50                 	db	80
   168  00300C  55                 	db	85
   169  00300D  54                 	db	84
   170  00300E  54                 	db	84
   171  00300F  49                 	db	73
   172  003010  4E                 	db	78
   173  003011  47                 	db	71
   174  003012  00                 	db	0
   175                           
   176                           ;initializer for _MsgCritical_0
   177  003013  43                 	db	67
   178  003014  52                 	db	82
   179  003015  49                 	db	73
   180  003016  54                 	db	84
   181  003017  49                 	db	73
   182  003018  43                 	db	67
   183  003019  41                 	db	65
   184  00301A  4C                 	db	76
   185  00301B  20                 	db	32
   186  00301C  3A                 	db	58
   187  00301D  20                 	db	32
   188  00301E  42                 	db	66
   189  00301F  41                 	db	65
   190  003020  47                 	db	71
   191  003021  20                 	db	32
   192  003022  42                 	db	66
   193  003023  41                 	db	65
   194  003024  47                 	db	71
   195  003025  5F                 	db	95
   196  003026  53                 	db	83
   197  003027  54                 	db	84
   198  003028  41                 	db	65
   199  003029  54                 	db	84
   200  00302A  45                 	db	69
   201  00302B  5F                 	db	95
   202  00302C  52                 	db	82
   203  00302D  45                 	db	69
   204  00302E  4D                 	db	77
   205  00302F  4F                 	db	79
   206  003030  56                 	db	86
   207  003031  45                 	db	69
   208  003032  44                 	db	68
   209  003033  00                 	db	0
   210                           
   211                           ;initializer for _MsgCritical_2
   212  003034  43                 	db	67
   213  003035  52                 	db	82
   214  003036  49                 	db	73
   215  003037  54                 	db	84
   216  003038  49                 	db	73
   217  003039  43                 	db	67
   218  00303A  41                 	db	65
   219  00303B  4C                 	db	76
   220  00303C  20                 	db	32
   221  00303D  3A                 	db	58
   222  00303E  20                 	db	32
   223  00303F  42                 	db	66
   224  003040  41                 	db	65
   225  003041  47                 	db	71
   226  003042  20                 	db	32
   227  003043  42                 	db	66
   228  003044  41                 	db	65
   229  003045  47                 	db	71
   230  003046  5F                 	db	95
   231  003047  53                 	db	83
   232  003048  54                 	db	84
   233  003049  41                 	db	65
   234  00304A  54                 	db	84
   235  00304B  45                 	db	69
   236  00304C  5F                 	db	95
   237  00304D  54                 	db	84
   238  00304E  41                 	db	65
   239  00304F  4B                 	db	75
   240  003050  49                 	db	73
   241  003051  4E                 	db	78
   242  003052  47                 	db	71
   243  003053  00                 	db	0
   244                           
   245                           ;initializer for _DelaySensor
   246  003054  0014               	dw	20
   247                           
   248                           ;initializer for _MsgPersonalidad2
   249  003056  6E                 	db	110
   250  003057  65                 	db	101
   251  003058  77                 	db	119
   252  003059  20                 	db	32
   253  00305A  62                 	db	98
   254  00305B  61                 	db	97
   255  00305C  67                 	db	103
   256  00305D  20                 	db	32
   257  00305E  6D                 	db	109
   258  00305F  6F                 	db	111
   259  003060  64                 	db	100
   260  003061  65                 	db	101
   261  003062  20                 	db	32
   262  003063  47                 	db	71
   263  003064  4C                 	db	76
   264  003065  4F                 	db	79
   265  003066  52                 	db	82
   266  003067  59                 	db	89
   267  003068  20                 	db	32
   268  003069  67                 	db	103
   269  00306A  6C                 	db	108
   270  00306B  6F                 	db	111
   271  00306C  72                 	db	114
   272  00306D  79                 	db	121
   273  00306E  5F                 	db	95
   274  00306F  32                 	db	50
   275  003070  2E                 	db	46
   276  003071  31                 	db	49
   277  003072  00                 	db	0
   278                           
   279                           ;initializer for _MsgPersonalidad1
   280  003073  62                 	db	98
   281  003074  61                 	db	97
   282  003075  67                 	db	103
   283  003076  20                 	db	32
   284  003077  6D                 	db	109
   285  003078  6F                 	db	111
   286  003079  64                 	db	100
   287  00307A  65                 	db	101
   288  00307B  20                 	db	32
   289  00307C  47                 	db	71
   290  00307D  4C                 	db	76
   291  00307E  4F                 	db	79
   292  00307F  52                 	db	82
   293  003080  59                 	db	89
   294  003081  20                 	db	32
   295  003082  67                 	db	103
   296  003083  6C                 	db	108
   297  003084  6F                 	db	111
   298  003085  72                 	db	114
   299  003086  79                 	db	121
   300  003087  5F                 	db	95
   301  003088  32                 	db	50
   302  003089  2E                 	db	46
   303  00308A  30                 	db	48
   304  00308B  31                 	db	49
   305  00308C  00                 	db	0
   306                           
   307                           ;initializer for _MsgVersion
   308  00308D  56                 	db	86
   309  00308E  65                 	db	101
   310  00308F  72                 	db	114
   311  003090  73                 	db	115
   312  003091  69                 	db	105
   313  003092  6F                 	db	111
   314  003093  6E                 	db	110
   315  003094  20                 	db	32
   316  003095  3A                 	db	58
   317  003096  20                 	db	32
   318  003097  67                 	db	103
   319  003098  6C                 	db	108
   320  003099  6F                 	db	111
   321  00309A  72                 	db	114
   322  00309B  79                 	db	121
   323  00309C  5F                 	db	95
   324  00309D  32                 	db	50
   325  00309E  2E                 	db	46
   326  00309F  33                 	db	51
   327  0030A0  00                 	db	0
   328                           
   329                           	psect	idataBANK2
   330  0034FA                     __pidataBANK2:
   331                           	callstack 0
   332                           
   333                           ;initializer for _MsgAyuda
   334  0034FA  50                 	db	80
   335  0034FB  72                 	db	114
   336  0034FC  65                 	db	101
   337  0034FD  73                 	db	115
   338  0034FE  73                 	db	115
   339  0034FF  20                 	db	32
   340  003500  4F                 	db	79
   341  003501  20                 	db	32
   342  003502  6F                 	db	111
   343  003503  70                 	db	112
   344  003504  65                 	db	101
   345  003505  6E                 	db	110
   346  003506  20                 	db	32
   347  003507  2F                 	db	47
   348  003508  20                 	db	32
   349  003509  43                 	db	67
   350  00350A  20                 	db	32
   351  00350B  63                 	db	99
   352  00350C  6C                 	db	108
   353  00350D  6F                 	db	111
   354  00350E  73                 	db	115
   355  00350F  65                 	db	101
   356  003510  20                 	db	32
   357  003511  2F                 	db	47
   358  003512  20                 	db	32
   359  003513  53                 	db	83
   360  003514  20                 	db	32
   361  003515  73                 	db	115
   362  003516  74                 	db	116
   363  003517  61                 	db	97
   364  003518  74                 	db	116
   365  003519  75                 	db	117
   366  00351A  73                 	db	115
   367  00351B  20                 	db	32
   368  00351C  2F                 	db	47
   369  00351D  20                 	db	32
   370  00351E  55                 	db	85
   371  00351F  20                 	db	32
   372  003520  55                 	db	85
   373  003521  6E                 	db	110
   374  003522  4C                 	db	76
   375  003523  6F                 	db	111
   376  003524  63                 	db	99
   377  003525  6B                 	db	107
   378  003526  20                 	db	32
   379  003527  64                 	db	100
   380  003528  6F                 	db	111
   381  003529  6F                 	db	111
   382  00352A  72                 	db	114
   383  00352B  20                 	db	32
   384  00352C  2F                 	db	47
   385  00352D  20                 	db	32
   386  00352E  45                 	db	69
   387  00352F  20                 	db	32
   388  003530  63                 	db	99
   389  003531  6C                 	db	108
   390  003532  65                 	db	101
   391  003533  61                 	db	97
   392  003534  72                 	db	114
   393  003535  20                 	db	32
   394  003536  65                 	db	101
   395  003537  72                 	db	114
   396  003538  72                 	db	114
   397  003539  6F                 	db	111
   398  00353A  72                 	db	114
   399  00353B  73                 	db	115
   400  00353C  20                 	db	32
   401  00353D  2F                 	db	47
   402  00353E  20                 	db	32
   403  00353F  42                 	db	66
   404  003540  20                 	db	32
   405  003541  70                 	db	112
   406  003542  72                 	db	114
   407  003543  69                 	db	105
   408  003544  6E                 	db	110
   409  003545  74                 	db	116
   410  003546  20                 	db	32
   411  003547  62                 	db	98
   412  003548  61                 	db	97
   413  003549  67                 	db	103
   414  00354A  20                 	db	32
   415  00354B  6D                 	db	109
   416  00354C  6F                 	db	111
   417  00354D  64                 	db	100
   418  00354E  65                 	db	101
   419  00354F  20                 	db	32
   420  003550  2F                 	db	47
   421  003551  20                 	db	32
   422  003552  56                 	db	86
   423  003553  20                 	db	32
   424  003554  76                 	db	118
   425  003555  65                 	db	101
   426  003556  72                 	db	114
   427  003557  73                 	db	115
   428  003558  69                 	db	105
   429  003559  6F                 	db	111
   430  00355A  6E                 	db	110
   431  00355B  20                 	db	32
   432  00355C  2F                 	db	47
   433  00355D  20                 	db	32
   434  00355E  48                 	db	72
   435  00355F  20                 	db	32
   436  003560  68                 	db	104
   437  003561  65                 	db	101
   438  003562  6C                 	db	108
   439  003563  70                 	db	112
   440  003564  00                 	db	0
   441                           
   442                           	psect	nvBANK0
   443  0000F0                     __pnvBANK0:
   444                           	callstack 0
   445  0000F0                     _J13:
   446                           	callstack 0
   447  0000F0                     	ds	2
   448  0000F2                     _J12:
   449                           	callstack 0
   450  0000F2                     	ds	2
   451  0000F4                     _J8:
   452                           	callstack 0
   453  0000F4                     	ds	2
   454  0000F6                     _J6:
   455                           	callstack 0
   456  0000F6                     	ds	2
   457  0000F8                     _J5:
   458                           	callstack 0
   459  0000F8                     	ds	2
   460  0000FA                     _ValorBag:
   461                           	callstack 0
   462  0000FA                     	ds	2
   463                           
   464                           	psect	nvBANK1
   465  0001F3                     __pnvBANK1:
   466                           	callstack 0
   467  0001F3                     _StartUp:
   468                           	callstack 0
   469  0001F3                     	ds	2
   470  0001F5                     _J9:
   471                           	callstack 0
   472  0001F5                     	ds	2
   473  0001F7                     _J4:
   474                           	callstack 0
   475  0001F7                     	ds	2
   476  0001F9                     _J3:
   477                           	callstack 0
   478  0001F9                     	ds	2
   479  0001FB                     _J2:
   480                           	callstack 0
   481  0001FB                     	ds	2
   482  0001FD                     _J1:
   483                           	callstack 0
   484  0001FD                     	ds	2
   485                           
   486                           	psect	nvBANK2
   487  00026B                     __pnvBANK2:
   488                           	callstack 0
   489  00026B                     _J14:
   490                           	callstack 0
   491  00026B                     	ds	2
   492  00026D                     _J11:
   493                           	callstack 0
   494  00026D                     	ds	2
   495  00026F                     _J10:
   496                           	callstack 0
   497  00026F                     	ds	2
   498  000271                     _J7:
   499                           	callstack 0
   500  000271                     	ds	2
   501  0000                     _TXREG	set	4013
   502  0000                     _PORTD	set	3971
   503  0000                     _PORTC	set	3970
   504  0000                     _PORTB	set	3969
   505  0000                     _PORTA	set	3968
   506  0000                     _RCREG	set	4014
   507  0000                     _PIE1bits	set	3997
   508  0000                     _PIR1bits	set	3998
   509  0000                     _RCSTA	set	4011
   510  0000                     _TXSTA	set	4012
   511  0000                     _SPBRG	set	4015
   512  0000                     _PORTBbits	set	3969
   513  0000                     _PORTDbits	set	3971
   514  0000                     _PR2	set	4043
   515  0000                     _T2CON	set	4042
   516  0000                     _TMR1L	set	4046
   517  0000                     _TMR1H	set	4047
   518  0000                     _T1CON	set	4045
   519  0000                     _TMR0L	set	4054
   520  0000                     _TMR0H	set	4055
   521  0000                     _T0CON	set	4053
   522  0000                     _TRISE	set	3990
   523  0000                     _TRISD	set	3989
   524  0000                     _TRISC	set	3988
   525  0000                     _TRISB	set	3987
   526  0000                     _TRISA	set	3986
   527  0000                     _ADCON1	set	4033
   528  0000                     _OSCCON	set	4051
   529  0000                     _TXIF	set	31988
   530  0000                     _LATA3	set	31819
   531  0000                     _LATA4	set	31820
   532  0000                     _RCIF	set	31989
   533  0000                     _LATE1	set	31849
   534  0000                     _LATE2	set	31850
   535  0000                     _TMR2IE	set	31977
   536  0000                     _TMR2IF	set	31985
   537  0000                     _LATA0	set	31816
   538  0000                     _LATA1	set	31817
   539  0000                     _TMR1IE	set	31976
   540  0000                     _TMR1IF	set	31984
   541  0000                     _LATA5	set	31821
   542  0000                     _LATE0	set	31848
   543  0000                     _RCIE	set	31981
   544  0000                     _PEIE	set	32662
   545  0000                     _GIE	set	32663
   546  0000                     _LATC2	set	31834
   547  0000                     _LATC1	set	31833
   548  0000                     _LATA2	set	31818
   549  0000                     _TMR0IE	set	32661
   550  0000                     _TMR0IF	set	32658
   551                           
   552                           	psect	mediumconst
   553  007DAE                     __pmediumconst:
   554                           	callstack 0
   555  007DAE  00                 	db	0
   556  007DAF                     STR_22:
   557  007DAF  43                 	db	67	;'C'
   558  007DB0  52                 	db	82	;'R'
   559  007DB1  49                 	db	73	;'I'
   560  007DB2  54                 	db	84	;'T'
   561  007DB3  49                 	db	73	;'I'
   562  007DB4  43                 	db	67	;'C'
   563  007DB5  41                 	db	65	;'A'
   564  007DB6  4C                 	db	76	;'L'
   565  007DB7  20                 	db	32
   566  007DB8  3A                 	db	58	;':'
   567  007DB9  20                 	db	32
   568  007DBA  42                 	db	66	;'B'
   569  007DBB  41                 	db	65	;'A'
   570  007DBC  47                 	db	71	;'G'
   571  007DBD  20                 	db	32
   572  007DBE  49                 	db	73	;'I'
   573  007DBF  53                 	db	83	;'S'
   574  007DC0  20                 	db	32
   575  007DC1  4E                 	db	78	;'N'
   576  007DC2  4F                 	db	79	;'O'
   577  007DC3  54                 	db	84	;'T'
   578  007DC4  20                 	db	32
   579  007DC5  49                 	db	73	;'I'
   580  007DC6  4E                 	db	78	;'N'
   581  007DC7  20                 	db	32
   582  007DC8  50                 	db	80	;'P'
   583  007DC9  4C                 	db	76	;'L'
   584  007DCA  41                 	db	65	;'A'
   585  007DCB  43                 	db	67	;'C'
   586  007DCC  45                 	db	69	;'E'
   587  007DCD  20                 	db	32
   588  007DCE  43                 	db	67	;'C'
   589  007DCF  41                 	db	65	;'A'
   590  007DD0  4E                 	db	78	;'N'
   591  007DD1  27                 	db	39
   592  007DD2  54                 	db	84	;'T'
   593  007DD3  20                 	db	32
   594  007DD4  41                 	db	65	;'A'
   595  007DD5  50                 	db	80	;'P'
   596  007DD6  52                 	db	82	;'R'
   597  007DD7  4F                 	db	79	;'O'
   598  007DD8  56                 	db	86	;'V'
   599  007DD9  45                 	db	69	;'E'
   600  007DDA  00                 	db	0
   601  007DDB                     STR_13:
   602  007DDB  43                 	db	67	;'C'
   603  007DDC  52                 	db	82	;'R'
   604  007DDD  49                 	db	73	;'I'
   605  007DDE  54                 	db	84	;'T'
   606  007DDF  49                 	db	73	;'I'
   607  007DE0  43                 	db	67	;'C'
   608  007DE1  41                 	db	65	;'A'
   609  007DE2  4C                 	db	76	;'L'
   610  007DE3  20                 	db	32
   611  007DE4  3A                 	db	58	;':'
   612  007DE5  20                 	db	32
   613  007DE6  42                 	db	66	;'B'
   614  007DE7  41                 	db	65	;'A'
   615  007DE8  47                 	db	71	;'G'
   616  007DE9  20                 	db	32
   617  007DEA  42                 	db	66	;'B'
   618  007DEB  41                 	db	65	;'A'
   619  007DEC  47                 	db	71	;'G'
   620  007DED  5F                 	db	95	;'_'
   621  007DEE  53                 	db	83	;'S'
   622  007DEF  54                 	db	84	;'T'
   623  007DF0  41                 	db	65	;'A'
   624  007DF1  54                 	db	84	;'T'
   625  007DF2  45                 	db	69	;'E'
   626  007DF3  5F                 	db	95	;'_'
   627  007DF4  49                 	db	73	;'I'
   628  007DF5  4E                 	db	78	;'N'
   629  007DF6  50                 	db	80	;'P'
   630  007DF7  4C                 	db	76	;'L'
   631  007DF8  41                 	db	65	;'A'
   632  007DF9  43                 	db	67	;'C'
   633  007DFA  45                 	db	69	;'E'
   634  007DFB  20                 	db	32
   635  007DFC  30                 	db	48	;'0'
   636  007DFD  78                 	db	120	;'x'
   637  007DFE  30                 	db	48	;'0'
   638  007DFF  30                 	db	48	;'0'
   639  007E00  20                 	db	32
   640  007E01  30                 	db	48	;'0'
   641  007E02  78                 	db	120	;'x'
   642  007E03  30                 	db	48	;'0'
   643  007E04  31                 	db	49	;'1'
   644  007E05  00                 	db	0
   645  007E06                     STR_14:
   646  007E06  43                 	db	67	;'C'
   647  007E07  52                 	db	82	;'R'
   648  007E08  49                 	db	73	;'I'
   649  007E09  54                 	db	84	;'T'
   650  007E0A  49                 	db	73	;'I'
   651  007E0B  43                 	db	67	;'C'
   652  007E0C  41                 	db	65	;'A'
   653  007E0D  4C                 	db	76	;'L'
   654  007E0E  20                 	db	32
   655  007E0F  3A                 	db	58	;':'
   656  007E10  20                 	db	32
   657  007E11  42                 	db	66	;'B'
   658  007E12  41                 	db	65	;'A'
   659  007E13  47                 	db	71	;'G'
   660  007E14  20                 	db	32
   661  007E15  42                 	db	66	;'B'
   662  007E16  41                 	db	65	;'A'
   663  007E17  47                 	db	71	;'G'
   664  007E18  5F                 	db	95	;'_'
   665  007E19  55                 	db	85	;'U'
   666  007E1A  4E                 	db	78	;'N'
   667  007E1B  4C                 	db	76	;'L'
   668  007E1C  4F                 	db	79	;'O'
   669  007E1D  43                 	db	67	;'C'
   670  007E1E  4B                 	db	75	;'K'
   671  007E1F  45                 	db	69	;'E'
   672  007E20  44                 	db	68	;'D'
   673  007E21  5F                 	db	95	;'_'
   674  007E22  4F                 	db	79	;'O'
   675  007E23  50                 	db	80	;'P'
   676  007E24  45                 	db	69	;'E'
   677  007E25  4E                 	db	78	;'N'
   678  007E26  20                 	db	32
   679  007E27  30                 	db	48	;'0'
   680  007E28  78                 	db	120	;'x'
   681  007E29  30                 	db	48	;'0'
   682  007E2A  30                 	db	48	;'0'
   683  007E2B  20                 	db	32
   684  007E2C  30                 	db	48	;'0'
   685  007E2D  78                 	db	120	;'x'
   686  007E2E  30                 	db	48	;'0'
   687  007E2F  32                 	db	50	;'2'
   688  007E30  00                 	db	0
   689  007E31                     STR_46:
   690  007E31  43                 	db	67	;'C'
   691  007E32  52                 	db	82	;'R'
   692  007E33  49                 	db	73	;'I'
   693  007E34  54                 	db	84	;'T'
   694  007E35  49                 	db	73	;'I'
   695  007E36  43                 	db	67	;'C'
   696  007E37  41                 	db	65	;'A'
   697  007E38  4C                 	db	76	;'L'
   698  007E39  3A                 	db	58	;':'
   699  007E3A  20                 	db	32
   700  007E3B  74                 	db	116	;'t'
   701  007E3C  69                 	db	105	;'i'
   702  007E3D  6D                 	db	109	;'m'
   703  007E3E  65                 	db	101	;'e'
   704  007E3F  6F                 	db	111	;'o'
   705  007E40  75                 	db	117	;'u'
   706  007E41  74                 	db	116	;'t'
   707  007E42  20                 	db	32
   708  007E43  77                 	db	119	;'w'
   709  007E44  61                 	db	97	;'a'
   710  007E45  69                 	db	105	;'i'
   711  007E46  74                 	db	116	;'t'
   712  007E47  69                 	db	105	;'i'
   713  007E48  6E                 	db	110	;'n'
   714  007E49  67                 	db	103	;'g'
   715  007E4A  20                 	db	32
   716  007E4B  66                 	db	102	;'f'
   717  007E4C  6F                 	db	111	;'o'
   718  007E4D  72                 	db	114	;'r'
   719  007E4E  20                 	db	32
   720  007E4F  64                 	db	100	;'d'
   721  007E50  6F                 	db	111	;'o'
   722  007E51  6F                 	db	111	;'o'
   723  007E52  72                 	db	114	;'r'
   724  007E53  2C                 	db	44
   725  007E54  20                 	db	32
   726  007E55  6C                 	db	108	;'l'
   727  007E56  6F                 	db	111	;'o'
   728  007E57  63                 	db	99	;'c'
   729  007E58  6B                 	db	107	;'k'
   730  007E59  65                 	db	101	;'e'
   731  007E5A  64                 	db	100	;'d'
   732  007E5B  00                 	db	0
   733  007E5C                     STR_3:
   734  007E5C  57                 	db	87	;'W'
   735  007E5D  41                 	db	65	;'A'
   736  007E5E  52                 	db	82	;'R'
   737  007E5F  4E                 	db	78	;'N'
   738  007E60  49                 	db	73	;'I'
   739  007E61  4E                 	db	78	;'N'
   740  007E62  47                 	db	71	;'G'
   741  007E63  20                 	db	32
   742  007E64  43                 	db	67	;'C'
   743  007E65  4C                 	db	76	;'L'
   744  007E66  4F                 	db	79	;'O'
   745  007E67  53                 	db	83	;'S'
   746  007E68  45                 	db	69	;'E'
   747  007E69  20                 	db	32
   748  007E6A  53                 	db	83	;'S'
   749  007E6B  45                 	db	69	;'E'
   750  007E6C  4E                 	db	78	;'N'
   751  007E6D  53                 	db	83	;'S'
   752  007E6E  4F                 	db	79	;'O'
   753  007E6F  52                 	db	82	;'R'
   754  007E70  20                 	db	32
   755  007E71  44                 	db	68	;'D'
   756  007E72  49                 	db	73	;'I'
   757  007E73  53                 	db	83	;'S'
   758  007E74  41                 	db	65	;'A'
   759  007E75  42                 	db	66	;'B'
   760  007E76  4C                 	db	76	;'L'
   761  007E77  45                 	db	69	;'E'
   762  007E78  44                 	db	68	;'D'
   763  007E79  00                 	db	0
   764  007E7A                     STR_19:
   765  007E7A  57                 	db	87	;'W'
   766  007E7B  41                 	db	65	;'A'
   767  007E7C  52                 	db	82	;'R'
   768  007E7D  4E                 	db	78	;'N'
   769  007E7E  49                 	db	73	;'I'
   770  007E7F  4E                 	db	78	;'N'
   771  007E80  47                 	db	71	;'G'
   772  007E81  20                 	db	32
   773  007E82  4F                 	db	79	;'O'
   774  007E83  50                 	db	80	;'P'
   775  007E84  45                 	db	69	;'E'
   776  007E85  4E                 	db	78	;'N'
   777  007E86  20                 	db	32
   778  007E87  53                 	db	83	;'S'
   779  007E88  45                 	db	69	;'E'
   780  007E89  4E                 	db	78	;'N'
   781  007E8A  53                 	db	83	;'S'
   782  007E8B  4F                 	db	79	;'O'
   783  007E8C  52                 	db	82	;'R'
   784  007E8D  20                 	db	32
   785  007E8E  44                 	db	68	;'D'
   786  007E8F  49                 	db	73	;'I'
   787  007E90  53                 	db	83	;'S'
   788  007E91  41                 	db	65	;'A'
   789  007E92  42                 	db	66	;'B'
   790  007E93  4C                 	db	76	;'L'
   791  007E94  45                 	db	69	;'E'
   792  007E95  44                 	db	68	;'D'
   793  007E96  00                 	db	0
   794  007E97                     STR_12:
   795  007E97  43                 	db	67	;'C'
   796  007E98  52                 	db	82	;'R'
   797  007E99  49                 	db	73	;'I'
   798  007E9A  54                 	db	84	;'T'
   799  007E9B  49                 	db	73	;'I'
   800  007E9C  43                 	db	67	;'C'
   801  007E9D  41                 	db	65	;'A'
   802  007E9E  4C                 	db	76	;'L'
   803  007E9F  20                 	db	32
   804  007EA0  3A                 	db	58	;':'
   805  007EA1  20                 	db	32
   806  007EA2  42                 	db	66	;'B'
   807  007EA3  41                 	db	65	;'A'
   808  007EA4  47                 	db	71	;'G'
   809  007EA5  20                 	db	32
   810  007EA6  50                 	db	80	;'P'
   811  007EA7  4C                 	db	76	;'L'
   812  007EA8  41                 	db	65	;'A'
   813  007EA9  43                 	db	67	;'C'
   814  007EAA  45                 	db	69	;'E'
   815  007EAB  44                 	db	68	;'D'
   816  007EAC  20                 	db	32
   817  007EAD  43                 	db	67	;'C'
   818  007EAE  4C                 	db	76	;'L'
   819  007EAF  4F                 	db	79	;'O'
   820  007EB0  53                 	db	83	;'S'
   821  007EB1  45                 	db	69	;'E'
   822  007EB2  44                 	db	68	;'D'
   823  007EB3  00                 	db	0
   824  007EB4                     STR_20:
   825  007EB4  43                 	db	67	;'C'
   826  007EB5  52                 	db	82	;'R'
   827  007EB6  49                 	db	73	;'I'
   828  007EB7  54                 	db	84	;'T'
   829  007EB8  49                 	db	73	;'I'
   830  007EB9  43                 	db	67	;'C'
   831  007EBA  41                 	db	65	;'A'
   832  007EBB  4C                 	db	76	;'L'
   833  007EBC  3A                 	db	58	;':'
   834  007EBD  20                 	db	32
   835  007EBE  64                 	db	100	;'d'
   836  007EBF  6F                 	db	111	;'o'
   837  007EC0  6F                 	db	111	;'o'
   838  007EC1  72                 	db	114	;'r'
   839  007EC2  20                 	db	32
   840  007EC3  75                 	db	117	;'u'
   841  007EC4  6E                 	db	110	;'n'
   842  007EC5  6C                 	db	108	;'l'
   843  007EC6  6F                 	db	111	;'o'
   844  007EC7  63                 	db	99	;'c'
   845  007EC8  6B                 	db	107	;'k'
   846  007EC9  65                 	db	101	;'e'
   847  007ECA  64                 	db	100	;'d'
   848  007ECB  00                 	db	0
   849  007ECC                     STR_4:
   850  007ECC  4D                 	db	77	;'M'
   851  007ECD  6F                 	db	111	;'o'
   852  007ECE  64                 	db	100	;'d'
   853  007ECF  6F                 	db	111	;'o'
   854  007ED0  44                 	db	68	;'D'
   855  007ED1  69                 	db	105	;'i'
   856  007ED2  72                 	db	114	;'r'
   857  007ED3  65                 	db	101	;'e'
   858  007ED4  63                 	db	99	;'c'
   859  007ED5  74                 	db	116	;'t'
   860  007ED6  6F                 	db	111	;'o'
   861  007ED7  20                 	db	32
   862  007ED8  63                 	db	99	;'c'
   863  007ED9  6F                 	db	111	;'o'
   864  007EDA  6E                 	db	110	;'n'
   865  007EDB  66                 	db	102	;'f'
   866  007EDC  69                 	db	105	;'i'
   867  007EDD  67                 	db	103	;'g'
   868  007EDE  75                 	db	117	;'u'
   869  007EDF  72                 	db	114	;'r'
   870  007EE0  61                 	db	97	;'a'
   871  007EE1  64                 	db	100	;'d'
   872  007EE2  6F                 	db	111	;'o'
   873  007EE3  00                 	db	0
   874  007EE4                     STR_7:
   875  007EE4  43                 	db	67	;'C'
   876  007EE5  52                 	db	82	;'R'
   877  007EE6  49                 	db	73	;'I'
   878  007EE7  54                 	db	84	;'T'
   879  007EE8  49                 	db	73	;'I'
   880  007EE9  43                 	db	67	;'C'
   881  007EEA  41                 	db	65	;'A'
   882  007EEB  4C                 	db	76	;'L'
   883  007EEC  3A                 	db	58	;':'
   884  007EED  20                 	db	32
   885  007EEE  64                 	db	100	;'d'
   886  007EEF  6F                 	db	111	;'o'
   887  007EF0  6F                 	db	111	;'o'
   888  007EF1  72                 	db	114	;'r'
   889  007EF2  20                 	db	32
   890  007EF3  6C                 	db	108	;'l'
   891  007EF4  6F                 	db	111	;'o'
   892  007EF5  63                 	db	99	;'c'
   893  007EF6  6B                 	db	107	;'k'
   894  007EF7  65                 	db	101	;'e'
   895  007EF8  64                 	db	100	;'d'
   896  007EF9  00                 	db	0
   897  007EFA                     STR_8:
   898  007EFA  43                 	db	67	;'C'
   899  007EFB  52                 	db	82	;'R'
   900  007EFC  49                 	db	73	;'I'
   901  007EFD  54                 	db	84	;'T'
   902  007EFE  49                 	db	73	;'I'
   903  007EFF  43                 	db	67	;'C'
   904  007F00  41                 	db	65	;'A'
   905  007F01  4C                 	db	76	;'L'
   906  007F02  3A                 	db	58	;':'
   907  007F03  20                 	db	32
   908  007F04  64                 	db	100	;'d'
   909  007F05  6F                 	db	111	;'o'
   910  007F06  6F                 	db	111	;'o'
   911  007F07  72                 	db	114	;'r'
   912  007F08  20                 	db	32
   913  007F09  63                 	db	99	;'c'
   914  007F0A  6C                 	db	108	;'l'
   915  007F0B  6F                 	db	111	;'o'
   916  007F0C  73                 	db	115	;'s'
   917  007F0D  65                 	db	101	;'e'
   918  007F0E  64                 	db	100	;'d'
   919  007F0F  00                 	db	0
   920  007F10  57                 	db	87	;'W'
   921  007F11  41                 	db	65	;'A'
   922  007F12  52                 	db	82	;'R'
   923  007F13  4E                 	db	78	;'N'
   924  007F14  49                 	db	73	;'I'
   925  007F15  4E                 	db	78	;'N'
   926  007F16  47                 	db	71	;'G'
   927  007F17  20                 	db	32
   928  007F18  3A                 	db	58	;':'
   929  007F19  20                 	db	32
   930  007F1A  42                 	db	66	;'B'
   931  007F1B  41                 	db	65	;'A'
   932  007F1C  47                 	db	71	;'G'
   933  007F1D  20                 	db	32
   934  007F1E  49                 	db	73	;'I'
   935  007F1F  4E                 	db	78	;'N'
   936  007F20  20                 	db	32
   937  007F21  49                 	db	73	;'I'
   938  007F22  54                 	db	84	;'T'
   939  007F23  00                 	db	0
   940  007F24                     STR_6:
   941  007F24  43                 	db	67	;'C'
   942  007F25  52                 	db	82	;'R'
   943  007F26  49                 	db	73	;'I'
   944  007F27  54                 	db	84	;'T'
   945  007F28  49                 	db	73	;'I'
   946  007F29  43                 	db	67	;'C'
   947  007F2A  41                 	db	65	;'A'
   948  007F2B  4C                 	db	76	;'L'
   949  007F2C  3A                 	db	58	;':'
   950  007F2D  20                 	db	32
   951  007F2E  64                 	db	100	;'d'
   952  007F2F  6F                 	db	111	;'o'
   953  007F30  6F                 	db	111	;'o'
   954  007F31  72                 	db	114	;'r'
   955  007F32  20                 	db	32
   956  007F33  6F                 	db	111	;'o'
   957  007F34  70                 	db	112	;'p'
   958  007F35  65                 	db	101	;'e'
   959  007F36  6E                 	db	110	;'n'
   960  007F37  00                 	db	0
   961  007F38                     STR_42:
   962  007F38  20                 	db	32
   963  007F39  20                 	db	32
   964  007F3A  42                 	db	66	;'B'
   965  007F3B  41                 	db	65	;'A'
   966  007F3C  47                 	db	71	;'G'
   967  007F3D  5F                 	db	95	;'_'
   968  007F3E  53                 	db	83	;'S'
   969  007F3F  45                 	db	69	;'E'
   970  007F40  4E                 	db	78	;'N'
   971  007F41  53                 	db	83	;'S'
   972  007F42  4F                 	db	79	;'O'
   973  007F43  52                 	db	82	;'R'
   974  007F44  20                 	db	32
   975  007F45  30                 	db	48	;'0'
   976  007F46  78                 	db	120	;'x'
   977  007F47  00                 	db	0
   978  007F48                     STR_5:
   979  007F48  4D                 	db	77	;'M'
   980  007F49  6F                 	db	111	;'o'
   981  007F4A  64                 	db	100	;'d'
   982  007F4B  6F                 	db	111	;'o'
   983  007F4C  20                 	db	32
   984  007F4D  69                 	db	105	;'i'
   985  007F4E  6E                 	db	110	;'n'
   986  007F4F  64                 	db	100	;'d'
   987  007F50  69                 	db	105	;'i'
   988  007F51  72                 	db	114	;'r'
   989  007F52  65                 	db	101	;'e'
   990  007F53  63                 	db	99	;'c'
   991  007F54  74                 	db	116	;'t'
   992  007F55  6F                 	db	111	;'o'
   993  007F56  00                 	db	0
   994  007F57                     STR_44:
   995  007F57  20                 	db	32
   996  007F58  42                 	db	66	;'B'
   997  007F59  41                 	db	65	;'A'
   998  007F5A  47                 	db	71	;'G'
   999  007F5B  5F                 	db	95	;'_'
  1000  007F5C  53                 	db	83	;'S'
  1001  007F5D  54                 	db	84	;'T'
  1002  007F5E  41                 	db	65	;'A'
  1003  007F5F  54                 	db	84	;'T'
  1004  007F60  55                 	db	85	;'U'
  1005  007F61  53                 	db	83	;'S'
  1006  007F62  20                 	db	32
  1007  007F63  30                 	db	48	;'0'
  1008  007F64  78                 	db	120	;'x'
  1009  007F65  00                 	db	0
  1010  007F66                     STR_25:
  1011  007F66  20                 	db	32
  1012  007F67  42                 	db	66	;'B'
  1013  007F68  41                 	db	65	;'A'
  1014  007F69  47                 	db	71	;'G'
  1015  007F6A  5F                 	db	95	;'_'
  1016  007F6B  41                 	db	65	;'A'
  1017  007F6C  50                 	db	80	;'P'
  1018  007F6D  52                 	db	82	;'R'
  1019  007F6E  4F                 	db	79	;'O'
  1020  007F6F  56                 	db	86	;'V'
  1021  007F70  45                 	db	69	;'E'
  1022  007F71  44                 	db	68	;'D'
  1023  007F72  20                 	db	32
  1024  007F73  00                 	db	0
  1025  007F74                     STR_34:
  1026  007F74  53                 	db	83	;'S'
  1027  007F75  54                 	db	84	;'T'
  1028  007F76  41                 	db	65	;'A'
  1029  007F77  54                 	db	84	;'T'
  1030  007F78  55                 	db	85	;'U'
  1031  007F79  53                 	db	83	;'S'
  1032  007F7A  20                 	db	32
  1033  007F7B  3A                 	db	58	;':'
  1034  007F7C  20                 	db	32
  1035  007F7D  41                 	db	65	;'A'
  1036  007F7E  20                 	db	32
  1037  007F7F  30                 	db	48	;'0'
  1038  007F80  78                 	db	120	;'x'
  1039  007F81  00                 	db	0
  1040  007F82                     STR_23:
  1041  007F82  53                 	db	83	;'S'
  1042  007F83  54                 	db	84	;'T'
  1043  007F84  41                 	db	65	;'A'
  1044  007F85  54                 	db	84	;'T'
  1045  007F86  45                 	db	69	;'E'
  1046  007F87  20                 	db	32
  1047  007F88  3A                 	db	58	;':'
  1048  007F89  20                 	db	32
  1049  007F8A  42                 	db	66	;'B'
  1050  007F8B  41                 	db	65	;'A'
  1051  007F8C  47                 	db	71	;'G'
  1052  007F8D  20                 	db	32
  1053  007F8E  00                 	db	0
  1054  007F8F                     STR_10:
  1055  007F8F  42                 	db	66	;'B'
  1056  007F90  41                 	db	65	;'A'
  1057  007F91  47                 	db	71	;'G'
  1058  007F92  20                 	db	32
  1059  007F93  52                 	db	82	;'R'
  1060  007F94  45                 	db	69	;'E'
  1061  007F95  4D                 	db	77	;'M'
  1062  007F96  4F                 	db	79	;'O'
  1063  007F97  56                 	db	86	;'V'
  1064  007F98  45                 	db	69	;'E'
  1065  007F99  44                 	db	68	;'D'
  1066  007F9A  00                 	db	0
  1067  007F9B                     STR_11:
  1068  007F9B  42                 	db	66	;'B'
  1069  007F9C  41                 	db	65	;'A'
  1070  007F9D  47                 	db	71	;'G'
  1071  007F9E  20                 	db	32
  1072  007F9F  49                 	db	73	;'I'
  1073  007FA0  4E                 	db	78	;'N'
  1074  007FA1  50                 	db	80	;'P'
  1075  007FA2  4C                 	db	76	;'L'
  1076  007FA3  41                 	db	65	;'A'
  1077  007FA4  43                 	db	67	;'C'
  1078  007FA5  45                 	db	69	;'E'
  1079  007FA6  00                 	db	0
  1080  007FA7                     STR_2:
  1081  007FA7  53                 	db	83	;'S'
  1082  007FA8  54                 	db	84	;'T'
  1083  007FA9  41                 	db	65	;'A'
  1084  007FAA  52                 	db	82	;'R'
  1085  007FAB  54                 	db	84	;'T'
  1086  007FAC  20                 	db	32
  1087  007FAD  43                 	db	67	;'C'
  1088  007FAE  4C                 	db	76	;'L'
  1089  007FAF  4F                 	db	79	;'O'
  1090  007FB0  53                 	db	83	;'S'
  1091  007FB1  45                 	db	69	;'E'
  1092  007FB2  00                 	db	0
  1093  007FB3                     STR_18:
  1094  007FB3  53                 	db	83	;'S'
  1095  007FB4  54                 	db	84	;'T'
  1096  007FB5  41                 	db	65	;'A'
  1097  007FB6  52                 	db	82	;'R'
  1098  007FB7  54                 	db	84	;'T'
  1099  007FB8  20                 	db	32
  1100  007FB9  4F                 	db	79	;'O'
  1101  007FBA  50                 	db	80	;'P'
  1102  007FBB  45                 	db	69	;'E'
  1103  007FBC  4E                 	db	78	;'N'
  1104  007FBD  00                 	db	0
  1105  007FBE                     STR_27:
  1106  007FBE  20                 	db	32
  1107  007FBF  53                 	db	83	;'S'
  1108  007FC0  48                 	db	72	;'H'
  1109  007FC1  55                 	db	85	;'U'
  1110  007FC2  54                 	db	84	;'T'
  1111  007FC3  54                 	db	84	;'T'
  1112  007FC4  45                 	db	69	;'E'
  1113  007FC5  52                 	db	82	;'R'
  1114  007FC6  20                 	db	32
  1115  007FC7  00                 	db	0
  1116  007FC8                     STR_31:
  1117  007FC8  20                 	db	32
  1118  007FC9  47                 	db	71	;'G'
  1119  007FCA  41                 	db	65	;'A'
  1120  007FCB  54                 	db	84	;'T'
  1121  007FCC  45                 	db	69	;'E'
  1122  007FCD  20                 	db	32
  1123  007FCE  00                 	db	0
  1124  007FCF                     STR_29:
  1125  007FCF  20                 	db	32
  1126  007FD0  4C                 	db	76	;'L'
  1127  007FD1  4F                 	db	79	;'O'
  1128  007FD2  43                 	db	67	;'C'
  1129  007FD3  4B                 	db	75	;'K'
  1130  007FD4  20                 	db	32
  1131  007FD5  00                 	db	0
  1132  007FD6                     STR_36:
  1133  007FD6  20                 	db	32
  1134  007FD7  20                 	db	32
  1135  007FD8  42                 	db	66	;'B'
  1136  007FD9  20                 	db	32
  1137  007FDA  30                 	db	48	;'0'
  1138  007FDB  78                 	db	120	;'x'
  1139  007FDC  00                 	db	0
  1140  007FDD                     STR_38:
  1141  007FDD  20                 	db	32
  1142  007FDE  20                 	db	32
  1143  007FDF  43                 	db	67	;'C'
  1144  007FE0  20                 	db	32
  1145  007FE1  30                 	db	48	;'0'
  1146  007FE2  78                 	db	120	;'x'
  1147  007FE3  00                 	db	0
  1148  007FE4                     STR_40:
  1149  007FE4  20                 	db	32
  1150  007FE5  20                 	db	32
  1151  007FE6  44                 	db	68	;'D'
  1152  007FE7  20                 	db	32
  1153  007FE8  30                 	db	48	;'0'
  1154  007FE9  78                 	db	120	;'x'
  1155  007FEA  00                 	db	0
  1156  007FEB                     STR_28:
  1157  007FEB  25                 	db	37
  1158  007FEC  30                 	db	48	;'0'
  1159  007FED  32                 	db	50	;'2'
  1160  007FEE  58                 	db	88	;'X'
  1161  007FEF  00                 	db	0
  1162  007FF0                     STR_26:
  1163  007FF0  25                 	db	37
  1164  007FF1  30                 	db	48	;'0'
  1165  007FF2  31                 	db	49	;'1'
  1166  007FF3  75                 	db	117	;'u'
  1167  007FF4  00                 	db	0
  1168  007FF5                     STR_24:
  1169  007FF5  25                 	db	37
  1170  007FF6  30                 	db	48	;'0'
  1171  007FF7  32                 	db	50	;'2'
  1172  007FF8  75                 	db	117	;'u'
  1173  007FF9  00                 	db	0
  1174  007FFA                     STR_33:
  1175  007FFA  20                 	db	32
  1176  007FFB  30                 	db	48	;'0'
  1177  007FFC  00                 	db	0
  1178  007FFD                     STR_1:
  1179  007FFD  2E                 	db	46
  1180  007FFE  00                 	db	0
  1181  007FFF  00                 	db	0	; dummy byte at the end
  1182  0000                     
  1183                           ; #config settings
  1184                           
  1185                           	psect	cinit
  1186  003398                     __pcinit:
  1187                           	callstack 0
  1188  003398                     start_initialization:
  1189                           	callstack 0
  1190  003398                     __initialization:
  1191                           	callstack 0
  1192                           
  1193                           ; Initialize objects allocated to BANK2 (107 bytes)
  1194                           ; load TBLPTR registers with __pidataBANK2
  1195  003398  0EFA               	movlw	low __pidataBANK2
  1196  00339A  6EF6               	movwf	tblptrl,c
  1197  00339C  0E34               	movlw	high __pidataBANK2
  1198  00339E  6EF7               	movwf	tblptrh,c
  1199  0033A0  0E00               	movlw	low (__pidataBANK2 shr (0+16))
  1200  0033A2  6EF8               	movwf	tblptru,c
  1201  0033A4  EE02  F000         	lfsr	0,__pdataBANK2
  1202  0033A8  EE10 F06B          	lfsr	1,107
  1203  0033AC                     copy_data0:
  1204  0033AC  0009               	tblrd		*+
  1205  0033AE  CFF5 FFEE          	movff	tablat,postinc0
  1206  0033B2  50E5               	movf	postdec1,w,c
  1207  0033B4  50E1               	movf	fsr1l,w,c
  1208  0033B6  E1FA               	bnz	copy_data0
  1209                           
  1210                           ; Initialize objects allocated to BANK1 (209 bytes)
  1211                           ; load TBLPTR registers with __pidataBANK1
  1212  0033B8  0ED0               	movlw	low __pidataBANK1
  1213  0033BA  6EF6               	movwf	tblptrl,c
  1214  0033BC  0E2F               	movlw	high __pidataBANK1
  1215  0033BE  6EF7               	movwf	tblptrh,c
  1216  0033C0  0E00               	movlw	low (__pidataBANK1 shr (0+16))
  1217  0033C2  6EF8               	movwf	tblptru,c
  1218  0033C4  EE01  F000         	lfsr	0,__pdataBANK1
  1219  0033C8  EE10 F0D1          	lfsr	1,209
  1220  0033CC                     copy_data1:
  1221  0033CC  0009               	tblrd		*+
  1222  0033CE  CFF5 FFEE          	movff	tablat,postinc0
  1223  0033D2  50E5               	movf	postdec1,w,c
  1224  0033D4  50E1               	movf	fsr1l,w,c
  1225  0033D6  E1FA               	bnz	copy_data1
  1226                           
  1227                           ; Initialize objects allocated to BANK0 (3 bytes)
  1228                           ; load TBLPTR registers with __pidataBANK0
  1229  0033D8  0E5A               	movlw	low __pidataBANK0
  1230  0033DA  6EF6               	movwf	tblptrl,c
  1231  0033DC  0E38               	movlw	high __pidataBANK0
  1232  0033DE  6EF7               	movwf	tblptrh,c
  1233  0033E0  0E00               	movlw	low (__pidataBANK0 shr (0+16))
  1234  0033E2  6EF8               	movwf	tblptru,c
  1235  0033E4  0009               	tblrd		*+	;fetch initializer
  1236  0033E6  CFF5 F0FC          	movff	tablat,__pdataBANK0
  1237  0033EA  0009               	tblrd		*+	;fetch initializer
  1238  0033EC  CFF5 F0FD          	movff	tablat,__pdataBANK0+1
  1239  0033F0  0009               	tblrd		*+	;fetch initializer
  1240  0033F2  CFF5 F0FE          	movff	tablat,__pdataBANK0+2
  1241                           
  1242                           ; Clear objects allocated to BANK1 (34 bytes)
  1243  0033F6  EE01  F0D1         	lfsr	0,__pbssBANK1
  1244  0033FA  0E22               	movlw	34
  1245  0033FC                     clear_0:
  1246  0033FC  6AEE               	clrf	postinc0,c
  1247  0033FE  06E8               	decf	wreg,f,c
  1248  003400  E1FD               	bnz	clear_0
  1249                           
  1250                           ; Clear objects allocated to BANK0 (43 bytes)
  1251  003402  EE00  F0C5         	lfsr	0,__pbssBANK0
  1252  003406  0E2B               	movlw	43
  1253  003408                     clear_1:
  1254  003408  6AEE               	clrf	postinc0,c
  1255  00340A  06E8               	decf	wreg,f,c
  1256  00340C  E1FD               	bnz	clear_1
  1257  00340E                     end_of_initialization:
  1258                           	callstack 0
  1259  00340E                     __end_of__initialization:
  1260                           	callstack 0
  1261  00340E  907F               	bcf	int$flags,0,c	;clear compiler interrupt flag (level 1)
  1262  003410  927F               	bcf	int$flags,1,c	;clear compiler interrupt flag (level 2)
  1263  003412  0E00               	movlw	low (__Lmediumconst shr (0+16))
  1264  003414  6EF8               	movwf	tblptru,c
  1265  003416  0100               	movlb	0
  1266  003418  EF09  F000         	goto	_main	;jump to C main() function
  1267                           
  1268                           	psect	bssBANK0
  1269  0000C5                     __pbssBANK0:
  1270                           	callstack 0
  1271  0000C5                     _nout:
  1272                           	callstack 0
  1273  0000C5                     	ds	2
  1274  0000C7                     _width:
  1275                           	callstack 0
  1276  0000C7                     	ds	2
  1277  0000C9                     _prec:
  1278                           	callstack 0
  1279  0000C9                     	ds	2
  1280  0000CB                     _flags:
  1281                           	callstack 0
  1282  0000CB                     	ds	2
  1283  0000CD                     _Tiempo2:
  1284                           	callstack 0
  1285  0000CD                     	ds	2
  1286  0000CF                     _Tiempo1:
  1287                           	callstack 0
  1288  0000CF                     	ds	2
  1289  0000D1                     _Tiempo0:
  1290                           	callstack 0
  1291  0000D1                     	ds	2
  1292  0000D3                     _ModoTrabajo:
  1293                           	callstack 0
  1294  0000D3                     	ds	2
  1295  0000D5                     _TiempoPulsoBuzzer:
  1296                           	callstack 0
  1297  0000D5                     	ds	2
  1298  0000D7                     _PulsoArribaBuzzer:
  1299                           	callstack 0
  1300  0000D7                     	ds	2
  1301  0000D9                     _TiempoPulso:
  1302                           	callstack 0
  1303  0000D9                     	ds	2
  1304  0000DB                     _PulsoArriba:
  1305                           	callstack 0
  1306  0000DB                     	ds	2
  1307  0000DD                     _EstadoAprobacionBolsa:
  1308                           	callstack 0
  1309  0000DD                     	ds	2
  1310  0000DF                     _PuertaAbierta:
  1311                           	callstack 0
  1312  0000DF                     	ds	2
  1313  0000E1                     _ValorBagStatus:
  1314                           	callstack 0
  1315  0000E1                     	ds	2
  1316  0000E3                     _ValorBagSensor:
  1317                           	callstack 0
  1318  0000E3                     	ds	2
  1319  0000E5                     _ValorStateLock:
  1320                           	callstack 0
  1321  0000E5                     	ds	2
  1322  0000E7                     _ValorStateShutter:
  1323                           	callstack 0
  1324  0000E7                     	ds	2
  1325  0000E9                     _ValorStateE:
  1326                           	callstack 0
  1327  0000E9                     	ds	2
  1328  0000EB                     _txt:
  1329                           	callstack 0
  1330  0000EB                     	ds	5
  1331                           
  1332                           	psect	dataBANK0
  1333  0000FC                     __pdataBANK0:
  1334                           	callstack 0
  1335  0000FC                     _CRLF:
  1336                           	callstack 0
  1337  0000FC                     	ds	3
  1338                           
  1339                           	psect	bssBANK1
  1340  0001D1                     __pbssBANK1:
  1341                           	callstack 0
  1342  0001D1                     _Counter:
  1343                           	callstack 0
  1344  0001D1                     	ds	2
  1345  0001D3                     _dbuf:
  1346                           	callstack 0
  1347  0001D3                     	ds	32
  1348                           
  1349                           	psect	dataBANK1
  1350  000100                     __pdataBANK1:
  1351                           	callstack 0
  1352  000100                     _MsgCritical_3:
  1353                           	callstack 0
  1354  000100                     	ds	34
  1355  000122                     _MsgCritical_1:
  1356                           	callstack 0
  1357  000122                     	ds	33
  1358  000143                     _MsgCritical_0:
  1359                           	callstack 0
  1360  000143                     	ds	33
  1361  000164                     _MsgCritical_2:
  1362                           	callstack 0
  1363  000164                     	ds	32
  1364  000184                     _DelaySensor:
  1365                           	callstack 0
  1366  000184                     	ds	2
  1367  000186                     _MsgPersonalidad2:
  1368                           	callstack 0
  1369  000186                     	ds	29
  1370  0001A3                     _MsgPersonalidad1:
  1371                           	callstack 0
  1372  0001A3                     	ds	26
  1373  0001BD                     _MsgVersion:
  1374                           	callstack 0
  1375  0001BD                     	ds	20
  1376                           
  1377                           	psect	dataBANK2
  1378  000200                     __pdataBANK2:
  1379                           	callstack 0
  1380  000200                     _MsgAyuda:
  1381                           	callstack 0
  1382  000200                     	ds	107
  1383                           
  1384                           	psect	cstackBANK0
  1385  000080                     __pcstackBANK0:
  1386                           	callstack 0
  1387  000080                     ?___fltol:
  1388                           	callstack 0
  1389  000080                     ?___xxtofl:
  1390                           	callstack 0
  1391  000080                     USART_EnviaMsg@msgout:
  1392                           	callstack 0
  1393  000080                     ___fltol@f1:
  1394                           	callstack 0
  1395  000080                     ___xxtofl@val:
  1396                           	callstack 0
  1397                           
  1398                           ; 4 bytes @ 0x0
  1399  000080                     	ds	2
  1400  000082                     USART_EnviaMsg@letraout:
  1401                           	callstack 0
  1402                           
  1403                           ; 1 bytes @ 0x2
  1404  000082                     	ds	2
  1405  000084                     ??___fltol:
  1406  000084                     ??___xxtofl:
  1407                           
  1408                           ; 1 bytes @ 0x4
  1409  000084                     	ds	4
  1410  000088                     ___fltol@sign1:
  1411                           	callstack 0
  1412  000088                     ___xxtofl@sign:
  1413                           	callstack 0
  1414                           
  1415                           ; 1 bytes @ 0x8
  1416  000088                     	ds	1
  1417  000089                     ___fltol@exp1:
  1418                           	callstack 0
  1419  000089                     ___xxtofl@exp:
  1420                           	callstack 0
  1421                           
  1422                           ; 1 bytes @ 0x9
  1423  000089                     	ds	1
  1424  00008A                     ___xxtofl@arg:
  1425                           	callstack 0
  1426                           
  1427                           ; 4 bytes @ 0xA
  1428  00008A                     	ds	4
  1429  00008E                     ?___fldiv:
  1430                           	callstack 0
  1431  00008E                     ___fldiv@b:
  1432                           	callstack 0
  1433                           
  1434                           ; 4 bytes @ 0xE
  1435  00008E                     	ds	4
  1436  000092                     ___fldiv@a:
  1437                           	callstack 0
  1438                           
  1439                           ; 4 bytes @ 0x12
  1440  000092                     	ds	4
  1441  000096                     ??___fldiv:
  1442                           
  1443                           ; 1 bytes @ 0x16
  1444  000096                     	ds	4
  1445  00009A                     ___fldiv@rem:
  1446                           	callstack 0
  1447                           
  1448                           ; 4 bytes @ 0x1A
  1449  00009A                     	ds	4
  1450  00009E                     ___fldiv@sign:
  1451                           	callstack 0
  1452                           
  1453                           ; 1 bytes @ 0x1E
  1454  00009E                     	ds	1
  1455  00009F                     ___fldiv@new_exp:
  1456                           	callstack 0
  1457                           
  1458                           ; 2 bytes @ 0x1F
  1459  00009F                     	ds	2
  1460  0000A1                     ___fldiv@grs:
  1461                           	callstack 0
  1462                           
  1463                           ; 4 bytes @ 0x21
  1464  0000A1                     	ds	4
  1465  0000A5                     ___fldiv@bexp:
  1466                           	callstack 0
  1467                           
  1468                           ; 1 bytes @ 0x25
  1469  0000A5                     	ds	1
  1470  0000A6                     ___fldiv@aexp:
  1471                           	callstack 0
  1472                           
  1473                           ; 1 bytes @ 0x26
  1474  0000A6                     	ds	1
  1475  0000A7                     ?___fladd:
  1476                           	callstack 0
  1477  0000A7                     ___fladd@b:
  1478                           	callstack 0
  1479                           
  1480                           ; 4 bytes @ 0x27
  1481  0000A7                     	ds	4
  1482  0000AB                     ___fladd@a:
  1483                           	callstack 0
  1484                           
  1485                           ; 4 bytes @ 0x2B
  1486  0000AB                     	ds	4
  1487  0000AF                     ??___fladd:
  1488                           
  1489                           ; 1 bytes @ 0x2F
  1490  0000AF                     	ds	4
  1491  0000B3                     ___fladd@signs:
  1492                           	callstack 0
  1493                           
  1494                           ; 1 bytes @ 0x33
  1495  0000B3                     	ds	1
  1496  0000B4                     ___fladd@aexp:
  1497                           	callstack 0
  1498                           
  1499                           ; 1 bytes @ 0x34
  1500  0000B4                     	ds	1
  1501  0000B5                     ___fladd@bexp:
  1502                           	callstack 0
  1503                           
  1504                           ; 1 bytes @ 0x35
  1505  0000B5                     	ds	1
  1506  0000B6                     ___fladd@grs:
  1507                           	callstack 0
  1508                           
  1509                           ; 1 bytes @ 0x36
  1510  0000B6                     	ds	1
  1511  0000B7                     USART_Init@baud_rate:
  1512                           	callstack 0
  1513                           
  1514                           ; 4 bytes @ 0x37
  1515  0000B7                     	ds	4
  1516  0000BB                     USART_Init@temp:
  1517                           	callstack 0
  1518                           
  1519                           ; 4 bytes @ 0x3B
  1520  0000BB                     	ds	4
  1521  0000BF                     ??_main:
  1522                           
  1523                           ; 1 bytes @ 0x3F
  1524  0000BF                     	ds	4
  1525  0000C3                     main@i:
  1526                           	callstack 0
  1527                           
  1528                           ; 2 bytes @ 0x43
  1529  0000C3                     	ds	2
  1530                           
  1531                           	psect	cstackCOMRAM
  1532  000001                     __pcstackCOMRAM:
  1533                           	callstack 0
  1534  000001                     ?_strlen:
  1535                           	callstack 0
  1536  000001                     ?_isupper:
  1537                           	callstack 0
  1538  000001                     ?_isalpha:
  1539                           	callstack 0
  1540  000001                     ?_isdigit:
  1541                           	callstack 0
  1542  000001                     ?_isspace:
  1543                           	callstack 0
  1544  000001                     ?_islower:
  1545                           	callstack 0
  1546  000001                     ?___wmul:
  1547                           	callstack 0
  1548  000001                     ?___lodiv:
  1549                           	callstack 0
  1550  000001                     ?___lomod:
  1551                           	callstack 0
  1552  000001                     ___wmul@multiplier:
  1553                           	callstack 0
  1554  000001                     isalpha@c:
  1555                           	callstack 0
  1556  000001                     isdigit@c:
  1557                           	callstack 0
  1558  000001                     isspace@c:
  1559                           	callstack 0
  1560  000001                     isupper@c:
  1561                           	callstack 0
  1562  000001                     fputc@c:
  1563                           	callstack 0
  1564  000001                     strlen@s:
  1565                           	callstack 0
  1566  000001                     islower@c:
  1567                           	callstack 0
  1568  000001                     i2USART_EnviaMsg@msgout:
  1569                           	callstack 0
  1570  000001                     ___lodiv@dividend:
  1571                           	callstack 0
  1572  000001                     ___lomod@dividend:
  1573                           	callstack 0
  1574                           
  1575                           ; 8 bytes @ 0x0
  1576  000001                     	ds	2
  1577  000003                     ??_isupper:
  1578  000003                     ??_isalpha:
  1579  000003                     ??_isdigit:
  1580  000003                     ??_isspace:
  1581  000003                     ??_islower:
  1582  000003                     i2USART_EnviaMsg@letraout:
  1583                           	callstack 0
  1584  000003                     ___wmul@multiplicand:
  1585                           	callstack 0
  1586  000003                     fputc@fp:
  1587                           	callstack 0
  1588  000003                     strlen@a:
  1589                           	callstack 0
  1590                           
  1591                           ; 2 bytes @ 0x2
  1592  000003                     	ds	2
  1593  000005                     ??_fputc:
  1594  000005                     ___wmul@product:
  1595                           	callstack 0
  1596                           
  1597                           ; 2 bytes @ 0x4
  1598  000005                     	ds	2
  1599  000007                     ?_toupper:
  1600                           	callstack 0
  1601  000007                     _isspace$1024:
  1602                           	callstack 0
  1603  000007                     toupper@c:
  1604                           	callstack 0
  1605                           
  1606                           ; 2 bytes @ 0x6
  1607  000007                     	ds	1
  1608  000008                     ?_atoi:
  1609                           	callstack 0
  1610  000008                     atoi@s:
  1611                           	callstack 0
  1612                           
  1613                           ; 2 bytes @ 0x7
  1614  000008                     	ds	1
  1615  000009                     ??_toupper:
  1616  000009                     ___lodiv@divisor:
  1617                           	callstack 0
  1618  000009                     ___lomod@divisor:
  1619                           	callstack 0
  1620                           
  1621                           ; 8 bytes @ 0x8
  1622  000009                     	ds	1
  1623  00000A                     ??_atoi:
  1624  00000A                     fputs@s:
  1625                           	callstack 0
  1626                           
  1627                           ; 2 bytes @ 0x9
  1628  00000A                     	ds	2
  1629  00000C                     fputs@fp:
  1630                           	callstack 0
  1631                           
  1632                           ; 2 bytes @ 0xB
  1633  00000C                     	ds	1
  1634  00000D                     _toupper$1079:
  1635                           	callstack 0
  1636                           
  1637                           ; 2 bytes @ 0xC
  1638  00000D                     	ds	1
  1639  00000E                     fputs@c:
  1640                           	callstack 0
  1641  00000E                     atoi@neg:
  1642                           	callstack 0
  1643                           
  1644                           ; 2 bytes @ 0xD
  1645  00000E                     	ds	1
  1646  00000F                     fputs@i:
  1647                           	callstack 0
  1648                           
  1649                           ; 2 bytes @ 0xE
  1650  00000F                     	ds	1
  1651  000010                     _atoi$997:
  1652                           	callstack 0
  1653                           
  1654                           ; 2 bytes @ 0xF
  1655  000010                     	ds	1
  1656  000011                     ?_pad:
  1657                           	callstack 0
  1658  000011                     ___lomod@counter:
  1659                           	callstack 0
  1660  000011                     pad@fp:
  1661                           	callstack 0
  1662  000011                     ___lodiv@quotient:
  1663                           	callstack 0
  1664                           
  1665                           ; 8 bytes @ 0x10
  1666  000011                     	ds	1
  1667  000012                     _atoi$999:
  1668                           	callstack 0
  1669                           
  1670                           ; 2 bytes @ 0x11
  1671  000012                     	ds	1
  1672  000013                     pad@buf:
  1673                           	callstack 0
  1674                           
  1675                           ; 2 bytes @ 0x12
  1676  000013                     	ds	1
  1677  000014                     _atoi$998:
  1678                           	callstack 0
  1679                           
  1680                           ; 1 bytes @ 0x13
  1681  000014                     	ds	1
  1682  000015                     pad@p:
  1683                           	callstack 0
  1684  000015                     atoi@n:
  1685                           	callstack 0
  1686                           
  1687                           ; 2 bytes @ 0x14
  1688  000015                     	ds	2
  1689  000017                     ??_pad:
  1690                           
  1691                           ; 1 bytes @ 0x16
  1692  000017                     	ds	1
  1693  000018                     pad@i:
  1694                           	callstack 0
  1695                           
  1696                           ; 2 bytes @ 0x17
  1697  000018                     	ds	1
  1698  000019                     ___lodiv@counter:
  1699                           	callstack 0
  1700                           
  1701                           ; 1 bytes @ 0x18
  1702  000019                     	ds	1
  1703  00001A                     pad@w:
  1704                           	callstack 0
  1705                           
  1706                           ; 2 bytes @ 0x19
  1707  00001A                     	ds	2
  1708  00001C                     ?_utoa:
  1709                           	callstack 0
  1710  00001C                     ?_xtoa:
  1711                           	callstack 0
  1712  00001C                     utoa@fp:
  1713                           	callstack 0
  1714  00001C                     xtoa@fp:
  1715                           	callstack 0
  1716                           
  1717                           ; 2 bytes @ 0x1B
  1718  00001C                     	ds	2
  1719  00001E                     utoa@d:
  1720                           	callstack 0
  1721  00001E                     xtoa@d:
  1722                           	callstack 0
  1723                           
  1724                           ; 8 bytes @ 0x1D
  1725  00001E                     	ds	8
  1726  000026                     ??_utoa:
  1727  000026                     xtoa@x:
  1728                           	callstack 0
  1729                           
  1730                           ; 1 bytes @ 0x25
  1731  000026                     	ds	1
  1732  000027                     ??_xtoa:
  1733                           
  1734                           ; 1 bytes @ 0x26
  1735  000027                     	ds	7
  1736  00002E                     utoa@p:
  1737                           	callstack 0
  1738                           
  1739                           ; 2 bytes @ 0x2D
  1740  00002E                     	ds	1
  1741  00002F                     _xtoa$963:
  1742                           	callstack 0
  1743                           
  1744                           ; 2 bytes @ 0x2E
  1745  00002F                     	ds	1
  1746  000030                     utoa@w:
  1747                           	callstack 0
  1748                           
  1749                           ; 2 bytes @ 0x2F
  1750  000030                     	ds	1
  1751  000031                     _xtoa$964:
  1752                           	callstack 0
  1753                           
  1754                           ; 2 bytes @ 0x30
  1755  000031                     	ds	1
  1756  000032                     utoa@n:
  1757                           	callstack 0
  1758                           
  1759                           ; 8 bytes @ 0x31
  1760  000032                     	ds	1
  1761  000033                     xtoa@p:
  1762                           	callstack 0
  1763                           
  1764                           ; 2 bytes @ 0x32
  1765  000033                     	ds	2
  1766  000035                     xtoa@w:
  1767                           	callstack 0
  1768                           
  1769                           ; 2 bytes @ 0x34
  1770  000035                     	ds	2
  1771  000037                     xtoa@n:
  1772                           	callstack 0
  1773                           
  1774                           ; 8 bytes @ 0x36
  1775  000037                     	ds	3
  1776  00003A                     utoa@i:
  1777                           	callstack 0
  1778                           
  1779                           ; 2 bytes @ 0x39
  1780  00003A                     	ds	5
  1781  00003F                     xtoa@i:
  1782                           	callstack 0
  1783                           
  1784                           ; 2 bytes @ 0x3E
  1785  00003F                     	ds	2
  1786  000041                     xtoa@c:
  1787                           	callstack 0
  1788                           
  1789                           ; 2 bytes @ 0x40
  1790  000041                     	ds	2
  1791  000043                     ?_vfpfcnvrt:
  1792                           	callstack 0
  1793  000043                     vfpfcnvrt@fp:
  1794                           	callstack 0
  1795                           
  1796                           ; 2 bytes @ 0x42
  1797  000043                     	ds	2
  1798  000045                     vfpfcnvrt@fmt:
  1799                           	callstack 0
  1800                           
  1801                           ; 2 bytes @ 0x44
  1802  000045                     	ds	2
  1803  000047                     vfpfcnvrt@ap:
  1804                           	callstack 0
  1805                           
  1806                           ; 2 bytes @ 0x46
  1807  000047                     	ds	2
  1808  000049                     ??_vfpfcnvrt:
  1809                           
  1810                           ; 1 bytes @ 0x48
  1811  000049                     	ds	4
  1812  00004D                     vfpfcnvrt@done:
  1813                           	callstack 0
  1814                           
  1815                           ; 2 bytes @ 0x4C
  1816  00004D                     	ds	2
  1817  00004F                     _vfpfcnvrt$978:
  1818                           	callstack 0
  1819                           
  1820                           ; 2 bytes @ 0x4E
  1821  00004F                     	ds	2
  1822  000051                     vfpfcnvrt@c:
  1823                           	callstack 0
  1824                           
  1825                           ; 1 bytes @ 0x50
  1826  000051                     	ds	1
  1827  000052                     vfpfcnvrt@llu:
  1828                           	callstack 0
  1829                           
  1830                           ; 8 bytes @ 0x51
  1831  000052                     	ds	8
  1832  00005A                     ?_vfprintf:
  1833                           	callstack 0
  1834  00005A                     vfprintf@fp:
  1835                           	callstack 0
  1836                           
  1837                           ; 2 bytes @ 0x59
  1838  00005A                     	ds	2
  1839  00005C                     vfprintf@fmt:
  1840                           	callstack 0
  1841                           
  1842                           ; 2 bytes @ 0x5B
  1843  00005C                     	ds	2
  1844  00005E                     vfprintf@ap:
  1845                           	callstack 0
  1846                           
  1847                           ; 2 bytes @ 0x5D
  1848  00005E                     	ds	2
  1849  000060                     vfprintf@cfmt:
  1850                           	callstack 0
  1851                           
  1852                           ; 2 bytes @ 0x5F
  1853  000060                     	ds	2
  1854  000062                     ?_sprintf:
  1855                           	callstack 0
  1856  000062                     sprintf@s:
  1857                           	callstack 0
  1858                           
  1859                           ; 2 bytes @ 0x61
  1860  000062                     	ds	2
  1861  000064                     sprintf@fmt:
  1862                           	callstack 0
  1863                           
  1864                           ; 2 bytes @ 0x63
  1865  000064                     	ds	4
  1866  000068                     sprintf@ret:
  1867                           	callstack 0
  1868                           
  1869                           ; 2 bytes @ 0x67
  1870  000068                     	ds	2
  1871  00006A                     sprintf@ap:
  1872                           	callstack 0
  1873                           
  1874                           ; 2 bytes @ 0x69
  1875  00006A                     	ds	2
  1876  00006C                     sprintf@f:
  1877                           	callstack 0
  1878                           
  1879                           ; 6 bytes @ 0x6B
  1880  00006C                     	ds	6
  1881  000072                     ??_isr:
  1882                           
  1883                           ; 1 bytes @ 0x71
  1884  000072                     	ds	12
  1885  00007E                     isr@letrain:
  1886                           	callstack 0
  1887                           
  1888                           ; 1 bytes @ 0x7D
  1889  00007E                     	ds	1
  1890                           
  1891 ;;
  1892 ;;Main: autosize = 0, tempsize = 4, incstack = 0, save=0
  1893 ;;
  1894 ;; *************** function _main *****************
  1895 ;; Defined at:
  1896 ;;		line 89 in file "glory.c"
  1897 ;; Parameters:    Size  Location     Type
  1898 ;;		None
  1899 ;; Auto vars:     Size  Location     Type
  1900 ;;  i               2   67[BANK0 ] int 
  1901 ;; Return value:  Size  Location     Type
  1902 ;;                  1    wreg      void 
  1903 ;; Registers used:
  1904 ;;		wreg, fsr1l, fsr1h, status,2, status,0, tblptrl, tblptrh, tblptru, cstack
  1905 ;; Tracked objects:
  1906 ;;		On entry : 0/0
  1907 ;;		On exit  : 0/0
  1908 ;;		Unchanged: 0/0
  1909 ;; Data sizes:     COMRAM   BANK0   BANK1   BANK2   BANK3   BANK4   BANK5
  1910 ;;      Params:         0       0       0       0       0       0       0
  1911 ;;      Locals:         0       2       0       0       0       0       0
  1912 ;;      Temps:          0       4       0       0       0       0       0
  1913 ;;      Totals:         0       6       0       0       0       0       0
  1914 ;;Total ram usage:        6 bytes
  1915 ;; Hardware stack levels required when called: 11
  1916 ;; This function calls:
  1917 ;;		_USART_EnviaMsg
  1918 ;;		_USART_Init
  1919 ;; This function is called by:
  1920 ;;		Startup code after reset
  1921 ;; This function uses a non-reentrant model
  1922 ;;
  1923                           
  1924                           	psect	text0
  1925  000012                     __ptext0:
  1926                           	callstack 0
  1927  000012                     _main:
  1928                           	callstack 20
  1929  000012                     
  1930                           ;glory.c: 90:     int i;;glory.c: 93:     OSCCON=0b01110010;
  1931  000012  0E72               	movlw	114
  1932  000014  6ED3               	movwf	211,c	;volatile
  1933                           
  1934                           ;glory.c: 94:     ADCON1=0b00001111;
  1935  000016  0E0F               	movlw	15
  1936  000018  6EC1               	movwf	193,c	;volatile
  1937                           
  1938                           ;glory.c: 95:     TRISA=0b00000000;
  1939  00001A  0E00               	movlw	0
  1940  00001C  6E92               	movwf	146,c	;volatile
  1941  00001E                     
  1942                           ;glory.c: 96:     TRISB=0b11111111;
  1943  00001E  6893               	setf	147,c	;volatile
  1944                           
  1945                           ;glory.c: 97:     TRISC=0b10010000;
  1946  000020  0E90               	movlw	144
  1947  000022  6E94               	movwf	148,c	;volatile
  1948  000024                     
  1949                           ;glory.c: 98:     TRISD=0b11111111;
  1950  000024  6895               	setf	149,c	;volatile
  1951                           
  1952                           ;glory.c: 99:     TRISE=0b00000000;
  1953  000026  0E00               	movlw	0
  1954  000028  6E96               	movwf	150,c	;volatile
  1955                           
  1956                           ;glory.c: 101:     T0CON=0x81;
  1957  00002A  0E81               	movlw	129
  1958  00002C  6ED5               	movwf	213,c	;volatile
  1959                           
  1960                           ;glory.c: 102:     TMR0H=0x3C;
  1961  00002E  0E3C               	movlw	60
  1962  000030  6ED7               	movwf	215,c	;volatile
  1963                           
  1964                           ;glory.c: 103:     TMR0L=0xB0;
  1965  000032  0EB0               	movlw	176
  1966  000034  6ED6               	movwf	214,c	;volatile
  1967  000036                     
  1968                           ;glory.c: 104:     TMR0IF=0;
  1969  000036  94F2               	bcf	4082,2,c	;volatile
  1970  000038                     
  1971                           ;glory.c: 105:     TMR0IE=0;
  1972  000038  9AF2               	bcf	4082,5,c	;volatile
  1973                           
  1974                           ;glory.c: 107:     T1CON=0x01;
  1975  00003A  0E01               	movlw	1
  1976  00003C  6ECD               	movwf	205,c	;volatile
  1977                           
  1978                           ;glory.c: 108:     TMR1H=0xB1;
  1979  00003E  0EB1               	movlw	177
  1980  000040  6ECF               	movwf	207,c	;volatile
  1981                           
  1982                           ;glory.c: 109:     TMR1L=0xE0;
  1983  000042  0EE0               	movlw	224
  1984  000044  6ECE               	movwf	206,c	;volatile
  1985                           
  1986                           ;glory.c: 111:     T2CON=0x26;
  1987  000046  0E26               	movlw	38
  1988  000048  6ECA               	movwf	202,c	;volatile
  1989                           
  1990                           ;glory.c: 112:     PR2=250;
  1991  00004A  0EFA               	movlw	250
  1992  00004C  6ECB               	movwf	203,c	;volatile
  1993  00004E                     
  1994                           ;glory.c: 115:     LATA2=0;
  1995  00004E  9489               	bcf	3977,2,c	;volatile
  1996  000050                     
  1997                           ;glory.c: 116:     LATC1=0;
  1998  000050  928B               	bcf	3979,1,c	;volatile
  1999  000052                     
  2000                           ;glory.c: 117:     LATC2=0;
  2001  000052  948B               	bcf	3979,2,c	;volatile
  2002                           
  2003                           ;glory.c: 120:     J1=1;
  2004  000054  0E00               	movlw	0
  2005  000056  0101               	movlb	1	; () banked
  2006  000058  6FFE               	movwf	(_J1+1)& (0+255),b
  2007  00005A  0E01               	movlw	1
  2008  00005C  6FFD               	movwf	_J1& (0+255),b
  2009                           
  2010                           ;glory.c: 121:     J2=1;
  2011  00005E  0E00               	movlw	0
  2012  000060  6FFC               	movwf	(_J2+1)& (0+255),b
  2013  000062  0E01               	movlw	1
  2014  000064  6FFB               	movwf	_J2& (0+255),b
  2015                           
  2016                           ;glory.c: 122:     J3=1;
  2017  000066  0E00               	movlw	0
  2018  000068  6FFA               	movwf	(_J3+1)& (0+255),b
  2019  00006A  0E01               	movlw	1
  2020  00006C  6FF9               	movwf	_J3& (0+255),b
  2021                           
  2022                           ;glory.c: 123:     J4=1;
  2023  00006E  0E00               	movlw	0
  2024  000070  6FF8               	movwf	(_J4+1)& (0+255),b
  2025  000072  0E01               	movlw	1
  2026  000074  6FF7               	movwf	_J4& (0+255),b
  2027                           
  2028                           ;glory.c: 124:     J5=1;
  2029  000076  0E00               	movlw	0
  2030  000078  0100               	movlb	0	; () banked
  2031  00007A  6FF9               	movwf	(_J5+1)& (0+255),b
  2032  00007C  0E01               	movlw	1
  2033  00007E  6FF8               	movwf	_J5& (0+255),b
  2034                           
  2035                           ;glory.c: 125:     J6=1;
  2036  000080  0E00               	movlw	0
  2037  000082  6FF7               	movwf	(_J6+1)& (0+255),b
  2038  000084  0E01               	movlw	1
  2039  000086  6FF6               	movwf	_J6& (0+255),b
  2040                           
  2041                           ;glory.c: 126:     J7=1;
  2042  000088  0E00               	movlw	0
  2043  00008A  0102               	movlb	2	; () banked
  2044  00008C  6F72               	movwf	(_J7+1)& (0+255),b
  2045  00008E  0E01               	movlw	1
  2046  000090  6F71               	movwf	_J7& (0+255),b
  2047                           
  2048                           ;glory.c: 127:     J8=1;
  2049  000092  0E00               	movlw	0
  2050  000094  0100               	movlb	0	; () banked
  2051  000096  6FF5               	movwf	(_J8+1)& (0+255),b
  2052  000098  0E01               	movlw	1
  2053  00009A  6FF4               	movwf	_J8& (0+255),b
  2054                           
  2055                           ;glory.c: 128:     J9=1;
  2056  00009C  0E00               	movlw	0
  2057  00009E  0101               	movlb	1	; () banked
  2058  0000A0  6FF6               	movwf	(_J9+1)& (0+255),b
  2059  0000A2  0E01               	movlw	1
  2060  0000A4  6FF5               	movwf	_J9& (0+255),b
  2061                           
  2062                           ;glory.c: 129:     J10=1;
  2063  0000A6  0E00               	movlw	0
  2064  0000A8  0102               	movlb	2	; () banked
  2065  0000AA  6F70               	movwf	(_J10+1)& (0+255),b
  2066  0000AC  0E01               	movlw	1
  2067  0000AE  6F6F               	movwf	_J10& (0+255),b
  2068                           
  2069                           ;glory.c: 130:     J11=1;
  2070  0000B0  0E00               	movlw	0
  2071  0000B2  6F6E               	movwf	(_J11+1)& (0+255),b
  2072  0000B4  0E01               	movlw	1
  2073  0000B6  6F6D               	movwf	_J11& (0+255),b
  2074                           
  2075                           ;glory.c: 131:     J12=1;
  2076  0000B8  0E00               	movlw	0
  2077  0000BA  0100               	movlb	0	; () banked
  2078  0000BC  6FF3               	movwf	(_J12+1)& (0+255),b
  2079  0000BE  0E01               	movlw	1
  2080  0000C0  6FF2               	movwf	_J12& (0+255),b
  2081                           
  2082                           ;glory.c: 132:     J13=1;
  2083  0000C2  0E00               	movlw	0
  2084  0000C4  6FF1               	movwf	(_J13+1)& (0+255),b
  2085  0000C6  0E01               	movlw	1
  2086  0000C8  6FF0               	movwf	_J13& (0+255),b
  2087                           
  2088                           ;glory.c: 133:     J14=1;
  2089  0000CA  0E00               	movlw	0
  2090  0000CC  0102               	movlb	2	; () banked
  2091  0000CE  6F6C               	movwf	(_J14+1)& (0+255),b
  2092  0000D0  0E01               	movlw	1
  2093  0000D2  6F6B               	movwf	_J14& (0+255),b
  2094                           
  2095                           ;glory.c: 134:     J6=PORTDbits.RD3;
  2096  0000D4  B683               	btfsc	131,3,c	;volatile
  2097  0000D6  EF6F  F000         	goto	u4961
  2098  0000DA  EF74  F000         	goto	u4960
  2099  0000DE                     u4961:
  2100  0000DE  0100               	movlb	0	; () banked
  2101  0000E0  6BBF               	clrf	??_main& (0+255),b
  2102  0000E2  2BBF               	incf	??_main& (0+255),f,b
  2103  0000E4  EF76  F000         	goto	u4968
  2104  0000E8                     u4960:
  2105  0000E8  0100               	movlb	0	; () banked
  2106  0000EA  6BBF               	clrf	??_main& (0+255),b
  2107  0000EC                     u4968:
  2108  0000EC  51BF               	movf	??_main& (0+255),w,b
  2109  0000EE  6FF6               	movwf	_J6& (0+255),b
  2110  0000F0  6BF7               	clrf	(_J6+1)& (0+255),b
  2111                           
  2112                           ;glory.c: 135:     J13=PORTDbits.RD2;
  2113  0000F2  B483               	btfsc	131,2,c	;volatile
  2114  0000F4  EF7E  F000         	goto	u4971
  2115  0000F8  EF82  F000         	goto	u4970
  2116  0000FC                     u4971:
  2117  0000FC  6BBF               	clrf	??_main& (0+255),b
  2118  0000FE  2BBF               	incf	??_main& (0+255),f,b
  2119  000100  EF84  F000         	goto	u4978
  2120  000104                     u4970:
  2121  000104  0100               	movlb	0	; () banked
  2122  000106  6BBF               	clrf	??_main& (0+255),b
  2123  000108                     u4978:
  2124  000108  51BF               	movf	??_main& (0+255),w,b
  2125  00010A  6FF0               	movwf	_J13& (0+255),b
  2126  00010C  6BF1               	clrf	(_J13+1)& (0+255),b
  2127                           
  2128                           ;glory.c: 137:     StartUp=1;
  2129  00010E  0E00               	movlw	0
  2130  000110  0101               	movlb	1	; () banked
  2131  000112  6FF4               	movwf	(_StartUp+1)& (0+255),b
  2132  000114  0E01               	movlw	1
  2133  000116  6FF3               	movwf	_StartUp& (0+255),b
  2134                           
  2135                           ;glory.c: 138:     ValorStateE=0;
  2136  000118  0E00               	movlw	0
  2137  00011A  0100               	movlb	0	; () banked
  2138  00011C  6FEA               	movwf	(_ValorStateE+1)& (0+255),b
  2139  00011E  0E00               	movlw	0
  2140  000120  6FE9               	movwf	_ValorStateE& (0+255),b
  2141                           
  2142                           ;glory.c: 139:     ValorStateShutter=0;
  2143  000122  0E00               	movlw	0
  2144  000124  6FE8               	movwf	(_ValorStateShutter+1)& (0+255),b
  2145  000126  0E00               	movlw	0
  2146  000128  6FE7               	movwf	_ValorStateShutter& (0+255),b
  2147                           
  2148                           ;glory.c: 140:     ValorStateLock=0;
  2149  00012A  0E00               	movlw	0
  2150  00012C  6FE6               	movwf	(_ValorStateLock+1)& (0+255),b
  2151  00012E  0E00               	movlw	0
  2152  000130  6FE5               	movwf	_ValorStateLock& (0+255),b
  2153                           
  2154                           ;glory.c: 141:     ValorBagSensor=0;
  2155  000132  0E00               	movlw	0
  2156  000134  6FE4               	movwf	(_ValorBagSensor+1)& (0+255),b
  2157  000136  0E00               	movlw	0
  2158  000138  6FE3               	movwf	_ValorBagSensor& (0+255),b
  2159                           
  2160                           ;glory.c: 142:     ValorBagStatus=0;
  2161  00013A  0E00               	movlw	0
  2162  00013C  6FE2               	movwf	(_ValorBagStatus+1)& (0+255),b
  2163  00013E  0E00               	movlw	0
  2164  000140  6FE1               	movwf	_ValorBagStatus& (0+255),b
  2165                           
  2166                           ;glory.c: 143:     ValorBag=99;
  2167  000142  0E00               	movlw	0
  2168  000144  6FFB               	movwf	(_ValorBag+1)& (0+255),b
  2169  000146  0E63               	movlw	99
  2170  000148  6FFA               	movwf	_ValorBag& (0+255),b
  2171                           
  2172                           ;glory.c: 144:     EstadoAprobacionBolsa=0;
  2173  00014A  0E00               	movlw	0
  2174  00014C  6FDE               	movwf	(_EstadoAprobacionBolsa+1)& (0+255),b
  2175  00014E  0E00               	movlw	0
  2176  000150  6FDD               	movwf	_EstadoAprobacionBolsa& (0+255),b
  2177                           
  2178                           ;glory.c: 145:     Counter=0;
  2179  000152  0E00               	movlw	0
  2180  000154  0101               	movlb	1	; () banked
  2181  000156  6FD2               	movwf	(_Counter+1)& (0+255),b
  2182  000158  0E00               	movlw	0
  2183  00015A  6FD1               	movwf	_Counter& (0+255),b
  2184                           
  2185                           ;glory.c: 147:     PulsoArriba=0;
  2186  00015C  0E00               	movlw	0
  2187  00015E  0100               	movlb	0	; () banked
  2188  000160  6FDC               	movwf	(_PulsoArriba+1)& (0+255),b
  2189  000162  0E00               	movlw	0
  2190  000164  6FDB               	movwf	_PulsoArriba& (0+255),b
  2191                           
  2192                           ;glory.c: 148:     TiempoPulso=0;
  2193  000166  0E00               	movlw	0
  2194  000168  6FDA               	movwf	(_TiempoPulso+1)& (0+255),b
  2195  00016A  0E00               	movlw	0
  2196  00016C  6FD9               	movwf	_TiempoPulso& (0+255),b
  2197                           
  2198                           ;glory.c: 149:     PulsoArribaBuzzer=0;
  2199  00016E  0E00               	movlw	0
  2200  000170  6FD8               	movwf	(_PulsoArribaBuzzer+1)& (0+255),b
  2201  000172  0E00               	movlw	0
  2202  000174  6FD7               	movwf	_PulsoArribaBuzzer& (0+255),b
  2203                           
  2204                           ;glory.c: 150:     TiempoPulsoBuzzer=0;
  2205  000176  0E00               	movlw	0
  2206  000178  6FD6               	movwf	(_TiempoPulsoBuzzer+1)& (0+255),b
  2207  00017A  0E00               	movlw	0
  2208  00017C  6FD5               	movwf	_TiempoPulsoBuzzer& (0+255),b
  2209  00017E                     
  2210                           ; BSR set to: 0
  2211                           ;glory.c: 153:     USART_Init(38400);
  2212  00017E  0E00               	movlw	0
  2213  000180  6FB7               	movwf	USART_Init@baud_rate& (0+255),b
  2214  000182  0E96               	movlw	150
  2215  000184  6FB8               	movwf	(USART_Init@baud_rate+1)& (0+255),b
  2216  000186  0E00               	movlw	0
  2217  000188  6FB9               	movwf	(USART_Init@baud_rate+2)& (0+255),b
  2218  00018A  0E00               	movlw	0
  2219  00018C  6FBA               	movwf	(USART_Init@baud_rate+3)& (0+255),b
  2220  00018E  EC81  F019         	call	_USART_Init	;wreg free
  2221  000192                     
  2222                           ;glory.c: 155:     GIE = 1;
  2223  000192  8EF2               	bsf	4082,7,c	;volatile
  2224  000194                     
  2225                           ;glory.c: 156:     PEIE = 1;
  2226  000194  8CF2               	bsf	4082,6,c	;volatile
  2227  000196                     
  2228                           ;glory.c: 157:     RCIE = 1;
  2229  000196  8A9D               	bsf	3997,5,c	;volatile
  2230  000198                     
  2231                           ;glory.c: 160:     for(i=0;i<=50;i++)
  2232  000198  0E00               	movlw	0
  2233  00019A  0100               	movlb	0	; () banked
  2234  00019C  6FC4               	movwf	(main@i+1)& (0+255),b
  2235  00019E  0E00               	movlw	0
  2236  0001A0  6FC3               	movwf	main@i& (0+255),b
  2237  0001A2                     l3876:
  2238                           
  2239                           ; BSR set to: 0
  2240  0001A2  BFC4               	btfsc	(main@i+1)& (0+255),7,b
  2241  0001A4  EFDD  F000         	goto	u4981
  2242  0001A8  51C4               	movf	(main@i+1)& (0+255),w,b
  2243  0001AA  E109               	bnz	u4980
  2244  0001AC  0E33               	movlw	51
  2245  0001AE  5DC3               	subwf	main@i& (0+255),w,b
  2246  0001B0  A0D8               	btfss	status,0,c
  2247  0001B2  EFDD  F000         	goto	u4981
  2248  0001B6  EFDF  F000         	goto	u4980
  2249  0001BA                     u4981:
  2250  0001BA  EFE1  F000         	goto	l3880
  2251  0001BE                     u4980:
  2252  0001BE  EFF4  F000         	goto	l3888
  2253  0001C2                     l3880:
  2254                           
  2255                           ; BSR set to: 0
  2256                           ;glory.c: 161:     {;glory.c: 162:         USART_EnviaMsg(".");
  2257  0001C2  0EFD               	movlw	low STR_1
  2258  0001C4  6F80               	movwf	USART_EnviaMsg@msgout& (0+255),b
  2259  0001C6  0E7F               	movlw	high STR_1
  2260  0001C8  6F81               	movwf	(USART_EnviaMsg@msgout+1)& (0+255),b
  2261  0001CA  EC0E  F01A         	call	_USART_EnviaMsg	;wreg free
  2262  0001CE                     
  2263                           ;glory.c: 163:         _delay((unsigned long)((30)*(8000000/4000.0)));
  2264  0001CE  0E4E               	movlw	78
  2265  0001D0  0100               	movlb	0	; () banked
  2266  0001D2  6FBF               	movwf	??_main& (0+255),b
  2267  0001D4  0EEB               	movlw	235
  2268  0001D6                     u6697:
  2269  0001D6  2EE8               	decfsz	wreg,f,c
  2270  0001D8  D7FE               	bra	u6697
  2271  0001DA  2FBF               	decfsz	??_main& (0+255),f,b
  2272  0001DC  D7FC               	bra	u6697
  2273  0001DE                     
  2274                           ;glory.c: 164:     }
  2275  0001DE  0100               	movlb	0	; () banked
  2276  0001E0  4BC3               	infsnz	main@i& (0+255),f,b
  2277  0001E2  2BC4               	incf	(main@i+1)& (0+255),f,b
  2278  0001E4  EFD1  F000         	goto	l3876
  2279  0001E8                     l3888:
  2280                           
  2281                           ; BSR set to: 0
  2282                           ;glory.c: 166:     ValorStateShutter=3;
  2283  0001E8  0E00               	movlw	0
  2284  0001EA  6FE8               	movwf	(_ValorStateShutter+1)& (0+255),b
  2285  0001EC  0E03               	movlw	3
  2286  0001EE  6FE7               	movwf	_ValorStateShutter& (0+255),b
  2287  0001F0                     
  2288                           ; BSR set to: 0
  2289                           ;glory.c: 167:     LATE0=1;
  2290  0001F0  808D               	bsf	3981,0,c	;volatile
  2291  0001F2                     
  2292                           ; BSR set to: 0
  2293                           ;glory.c: 168:     LATA5=0;
  2294  0001F2  9A89               	bcf	3977,5,c	;volatile
  2295  0001F4                     
  2296                           ; BSR set to: 0
  2297                           ;glory.c: 169:     LATC1=1;
  2298  0001F4  828B               	bsf	3979,1,c	;volatile
  2299                           
  2300                           ;glory.c: 170:     Tiempo1=0;
  2301  0001F6  0E00               	movlw	0
  2302  0001F8  6FD0               	movwf	(_Tiempo1+1)& (0+255),b
  2303  0001FA  0E00               	movlw	0
  2304  0001FC  6FCF               	movwf	_Tiempo1& (0+255),b
  2305                           
  2306                           ;glory.c: 171:     TMR1H=0xB1;
  2307  0001FE  0EB1               	movlw	177
  2308  000200  6ECF               	movwf	207,c	;volatile
  2309                           
  2310                           ;glory.c: 172:     TMR1L=0xE0;
  2311  000202  0EE0               	movlw	224
  2312  000204  6ECE               	movwf	206,c	;volatile
  2313  000206                     
  2314                           ; BSR set to: 0
  2315                           ;glory.c: 173:     TMR1IF=0;
  2316  000206  909E               	bcf	3998,0,c	;volatile
  2317  000208                     
  2318                           ; BSR set to: 0
  2319                           ;glory.c: 174:     TMR1IE=1;
  2320  000208  809D               	bsf	3997,0,c	;volatile
  2321  00020A                     
  2322                           ; BSR set to: 0
  2323                           ;glory.c: 175:     USART_EnviaMsg("START CLOSE");
  2324  00020A  0EA7               	movlw	low STR_2
  2325  00020C  6F80               	movwf	USART_EnviaMsg@msgout& (0+255),b
  2326  00020E  0E7F               	movlw	high STR_2
  2327  000210  6F81               	movwf	(USART_EnviaMsg@msgout+1)& (0+255),b
  2328  000212  EC0E  F01A         	call	_USART_EnviaMsg	;wreg free
  2329  000216                     
  2330                           ;glory.c: 176:     USART_EnviaMsg(CRLF);
  2331  000216  0EFC               	movlw	low _CRLF
  2332  000218  0100               	movlb	0	; () banked
  2333  00021A  6F80               	movwf	USART_EnviaMsg@msgout& (0+255),b
  2334  00021C  0E00               	movlw	high _CRLF
  2335  00021E  6F81               	movwf	(USART_EnviaMsg@msgout+1)& (0+255),b
  2336  000220  EC0E  F01A         	call	_USART_EnviaMsg	;wreg free
  2337  000224                     
  2338                           ;glory.c: 177:     USART_EnviaMsg("WARNING CLOSE SENSOR DISABLED");
  2339  000224  0E5C               	movlw	low STR_3
  2340  000226  0100               	movlb	0	; () banked
  2341  000228  6F80               	movwf	USART_EnviaMsg@msgout& (0+255),b
  2342  00022A  0E7E               	movlw	high STR_3
  2343  00022C  6F81               	movwf	(USART_EnviaMsg@msgout+1)& (0+255),b
  2344  00022E  EC0E  F01A         	call	_USART_EnviaMsg	;wreg free
  2345  000232                     
  2346                           ;glory.c: 178:     USART_EnviaMsg(CRLF);
  2347  000232  0EFC               	movlw	low _CRLF
  2348  000234  0100               	movlb	0	; () banked
  2349  000236  6F80               	movwf	USART_EnviaMsg@msgout& (0+255),b
  2350  000238  0E00               	movlw	high _CRLF
  2351  00023A  6F81               	movwf	(USART_EnviaMsg@msgout+1)& (0+255),b
  2352  00023C  EC0E  F01A         	call	_USART_EnviaMsg	;wreg free
  2353                           
  2354                           ;glory.c: 179:     ModoTrabajo = 0;
  2355  000240  0E00               	movlw	0
  2356  000242  0100               	movlb	0	; () banked
  2357  000244  6FD4               	movwf	(_ModoTrabajo+1)& (0+255),b
  2358  000246  0E00               	movlw	0
  2359  000248  6FD3               	movwf	_ModoTrabajo& (0+255),b
  2360  00024A                     
  2361                           ; BSR set to: 0
  2362                           ;glory.c: 180:     if ((PORTBbits.RB5==0) )
  2363  00024A  BA81               	btfsc	129,5,c	;volatile
  2364  00024C  EF2A  F001         	goto	u4991
  2365  000250  EF2C  F001         	goto	u4990
  2366  000254                     u4991:
  2367  000254  EF3F  F001         	goto	l3916
  2368  000258                     u4990:
  2369  000258                     
  2370                           ; BSR set to: 0
  2371                           ;glory.c: 181:         {;glory.c: 182:             ModoTrabajo = 1;
  2372  000258  0E00               	movlw	0
  2373  00025A  6FD4               	movwf	(_ModoTrabajo+1)& (0+255),b
  2374  00025C  0E01               	movlw	1
  2375  00025E  6FD3               	movwf	_ModoTrabajo& (0+255),b
  2376  000260                     
  2377                           ; BSR set to: 0
  2378                           ;glory.c: 183:             USART_EnviaMsg("ModoDirecto configurado");
  2379  000260  0ECC               	movlw	low STR_4
  2380  000262  6F80               	movwf	USART_EnviaMsg@msgout& (0+255),b
  2381  000264  0E7E               	movlw	high STR_4
  2382  000266  6F81               	movwf	(USART_EnviaMsg@msgout+1)& (0+255),b
  2383  000268  EC0E  F01A         	call	_USART_EnviaMsg	;wreg free
  2384  00026C                     
  2385                           ;glory.c: 184:             USART_EnviaMsg(CRLF);
  2386  00026C  0EFC               	movlw	low _CRLF
  2387  00026E  0100               	movlb	0	; () banked
  2388  000270  6F80               	movwf	USART_EnviaMsg@msgout& (0+255),b
  2389  000272  0E00               	movlw	high _CRLF
  2390  000274  6F81               	movwf	(USART_EnviaMsg@msgout+1)& (0+255),b
  2391  000276  EC0E  F01A         	call	_USART_EnviaMsg	;wreg free
  2392                           
  2393                           ;glory.c: 185:         }
  2394  00027A  EF4C  F001         	goto	l3918
  2395  00027E                     l3916:
  2396                           
  2397                           ; BSR set to: 0
  2398                           ;glory.c: 187:         USART_EnviaMsg("Modo indirecto");
  2399  00027E  0E48               	movlw	low STR_5
  2400  000280  6F80               	movwf	USART_EnviaMsg@msgout& (0+255),b
  2401  000282  0E7F               	movlw	high STR_5
  2402  000284  6F81               	movwf	(USART_EnviaMsg@msgout+1)& (0+255),b
  2403  000286  EC0E  F01A         	call	_USART_EnviaMsg	;wreg free
  2404                           
  2405                           ;glory.c: 188:         USART_EnviaMsg(CRLF);
  2406  00028A  0EFC               	movlw	low _CRLF
  2407  00028C  0100               	movlb	0	; () banked
  2408  00028E  6F80               	movwf	USART_EnviaMsg@msgout& (0+255),b
  2409  000290  0E00               	movlw	high _CRLF
  2410  000292  6F81               	movwf	(USART_EnviaMsg@msgout+1)& (0+255),b
  2411  000294  EC0E  F01A         	call	_USART_EnviaMsg	;wreg free
  2412  000298                     l3918:
  2413                           
  2414                           ;glory.c: 191:     {;glory.c: 194:             if ((PORTBbits.RB4 == 0) && (J8 == 1))
  2415  000298  B881               	btfsc	129,4,c	;volatile
  2416  00029A  EF51  F001         	goto	u5001
  2417  00029E  EF53  F001         	goto	u5000
  2418  0002A2                     u5001:
  2419  0002A2  EF76  F001         	goto	l3928
  2420  0002A6                     u5000:
  2421  0002A6  0100               	movlb	0	; () banked
  2422  0002A8  05F4               	decf	_J8& (0+255),w,b
  2423  0002AA  11F5               	iorwf	(_J8+1)& (0+255),w,b
  2424  0002AC  A4D8               	btfss	status,2,c
  2425  0002AE  EF5B  F001         	goto	u5011
  2426  0002B2  EF5D  F001         	goto	u5010
  2427  0002B6                     u5011:
  2428  0002B6  EF76  F001         	goto	l3928
  2429  0002BA                     u5010:
  2430  0002BA                     
  2431                           ; BSR set to: 0
  2432                           ;glory.c: 195:             {;glory.c: 196:                 _delay((unsigned long)((100)*
      +                          (8000000/4000.0)));
  2433  0002BA  0E02               	movlw	2
  2434  0002BC  0100               	movlb	0	; () banked
  2435  0002BE  6FC0               	movwf	(??_main+1)& (0+255),b
  2436  0002C0  0E04               	movlw	4
  2437  0002C2  6FBF               	movwf	??_main& (0+255),b
  2438  0002C4  0EBA               	movlw	186
  2439  0002C6                     u6707:
  2440  0002C6  2EE8               	decfsz	wreg,f,c
  2441  0002C8  D7FE               	bra	u6707
  2442  0002CA  2FBF               	decfsz	??_main& (0+255),f,b
  2443  0002CC  D7FC               	bra	u6707
  2444  0002CE  2FC0               	decfsz	(??_main+1)& (0+255),f,b
  2445  0002D0  D7FA               	bra	u6707
  2446  0002D2  F000               	nop	
  2447  0002D4                     
  2448                           ;glory.c: 197:                 if (PORTBbits.RB4 == 0)
  2449  0002D4  B881               	btfsc	129,4,c	;volatile
  2450  0002D6  EF6F  F001         	goto	u5021
  2451  0002DA  EF71  F001         	goto	u5020
  2452  0002DE                     u5021:
  2453  0002DE  EF76  F001         	goto	l3928
  2454  0002E2                     u5020:
  2455  0002E2                     
  2456                           ;glory.c: 198:                 {;glory.c: 199:                     J8 = 0;
  2457  0002E2  0E00               	movlw	0
  2458  0002E4  0100               	movlb	0	; () banked
  2459  0002E6  6FF5               	movwf	(_J8+1)& (0+255),b
  2460  0002E8  0E00               	movlw	0
  2461  0002EA  6FF4               	movwf	_J8& (0+255),b
  2462  0002EC                     l3928:
  2463                           
  2464                           ;glory.c: 202:             if (PORTBbits.RB4 == 1)
  2465  0002EC  A881               	btfss	129,4,c	;volatile
  2466  0002EE  EF7B  F001         	goto	u5031
  2467  0002F2  EF7D  F001         	goto	u5030
  2468  0002F6                     u5031:
  2469  0002F6  EF82  F001         	goto	l3932
  2470  0002FA                     u5030:
  2471  0002FA                     
  2472                           ;glory.c: 203:                 J8 = 1;
  2473  0002FA  0E00               	movlw	0
  2474  0002FC  0100               	movlb	0	; () banked
  2475  0002FE  6FF5               	movwf	(_J8+1)& (0+255),b
  2476  000300  0E01               	movlw	1
  2477  000302  6FF4               	movwf	_J8& (0+255),b
  2478  000304                     l3932:
  2479                           
  2480                           ;glory.c: 205:             if ((PORTDbits.RD3 == 0) && (J6 == 1))
  2481  000304  B683               	btfsc	131,3,c	;volatile
  2482  000306  EF87  F001         	goto	u5041
  2483  00030A  EF89  F001         	goto	u5040
  2484  00030E                     u5041:
  2485  00030E  EFAC  F001         	goto	l3942
  2486  000312                     u5040:
  2487  000312  0100               	movlb	0	; () banked
  2488  000314  05F6               	decf	_J6& (0+255),w,b
  2489  000316  11F7               	iorwf	(_J6+1)& (0+255),w,b
  2490  000318  A4D8               	btfss	status,2,c
  2491  00031A  EF91  F001         	goto	u5051
  2492  00031E  EF93  F001         	goto	u5050
  2493  000322                     u5051:
  2494  000322  EFAC  F001         	goto	l3942
  2495  000326                     u5050:
  2496  000326                     
  2497                           ; BSR set to: 0
  2498                           ;glory.c: 206:             {;glory.c: 207:                 _delay((unsigned long)((100)*
      +                          (8000000/4000.0)));
  2499  000326  0E02               	movlw	2
  2500  000328  0100               	movlb	0	; () banked
  2501  00032A  6FC0               	movwf	(??_main+1)& (0+255),b
  2502  00032C  0E04               	movlw	4
  2503  00032E  6FBF               	movwf	??_main& (0+255),b
  2504  000330  0EBA               	movlw	186
  2505  000332                     u6717:
  2506  000332  2EE8               	decfsz	wreg,f,c
  2507  000334  D7FE               	bra	u6717
  2508  000336  2FBF               	decfsz	??_main& (0+255),f,b
  2509  000338  D7FC               	bra	u6717
  2510  00033A  2FC0               	decfsz	(??_main+1)& (0+255),f,b
  2511  00033C  D7FA               	bra	u6717
  2512  00033E  F000               	nop	
  2513  000340                     
  2514                           ;glory.c: 208:                 if (PORTDbits.RD3 == 0)
  2515  000340  B683               	btfsc	131,3,c	;volatile
  2516  000342  EFA5  F001         	goto	u5061
  2517  000346  EFA7  F001         	goto	u5060
  2518  00034A                     u5061:
  2519  00034A  EFAC  F001         	goto	l3942
  2520  00034E                     u5060:
  2521  00034E                     
  2522                           ;glory.c: 209:                 {;glory.c: 210:                     J6 = 0;
  2523  00034E  0E00               	movlw	0
  2524  000350  0100               	movlb	0	; () banked
  2525  000352  6FF7               	movwf	(_J6+1)& (0+255),b
  2526  000354  0E00               	movlw	0
  2527  000356  6FF6               	movwf	_J6& (0+255),b
  2528  000358                     l3942:
  2529                           
  2530                           ;glory.c: 213:              if (PORTDbits.RD3 == 1)
  2531  000358  A683               	btfss	131,3,c	;volatile
  2532  00035A  EFB1  F001         	goto	u5071
  2533  00035E  EFB3  F001         	goto	u5070
  2534  000362                     u5071:
  2535  000362  EFB8  F001         	goto	l3946
  2536  000366                     u5070:
  2537  000366                     
  2538                           ;glory.c: 214:                J6 = 1;
  2539  000366  0E00               	movlw	0
  2540  000368  0100               	movlb	0	; () banked
  2541  00036A  6FF7               	movwf	(_J6+1)& (0+255),b
  2542  00036C  0E01               	movlw	1
  2543  00036E  6FF6               	movwf	_J6& (0+255),b
  2544  000370                     l3946:
  2545                           
  2546                           ;glory.c: 216:             if ((PORTDbits.RD2 == 0) && (J13 == 1))
  2547  000370  B483               	btfsc	131,2,c	;volatile
  2548  000372  EFBD  F001         	goto	u5081
  2549  000376  EFBF  F001         	goto	u5080
  2550  00037A                     u5081:
  2551  00037A  EFE2  F001         	goto	l3956
  2552  00037E                     u5080:
  2553  00037E  0100               	movlb	0	; () banked
  2554  000380  05F0               	decf	_J13& (0+255),w,b
  2555  000382  11F1               	iorwf	(_J13+1)& (0+255),w,b
  2556  000384  A4D8               	btfss	status,2,c
  2557  000386  EFC7  F001         	goto	u5091
  2558  00038A  EFC9  F001         	goto	u5090
  2559  00038E                     u5091:
  2560  00038E  EFE2  F001         	goto	l3956
  2561  000392                     u5090:
  2562  000392                     
  2563                           ; BSR set to: 0
  2564                           ;glory.c: 217:             {;glory.c: 218:                 _delay((unsigned long)((100)*
      +                          (8000000/4000.0)));
  2565  000392  0E02               	movlw	2
  2566  000394  0100               	movlb	0	; () banked
  2567  000396  6FC0               	movwf	(??_main+1)& (0+255),b
  2568  000398  0E04               	movlw	4
  2569  00039A  6FBF               	movwf	??_main& (0+255),b
  2570  00039C  0EBA               	movlw	186
  2571  00039E                     u6727:
  2572  00039E  2EE8               	decfsz	wreg,f,c
  2573  0003A0  D7FE               	bra	u6727
  2574  0003A2  2FBF               	decfsz	??_main& (0+255),f,b
  2575  0003A4  D7FC               	bra	u6727
  2576  0003A6  2FC0               	decfsz	(??_main+1)& (0+255),f,b
  2577  0003A8  D7FA               	bra	u6727
  2578  0003AA  F000               	nop	
  2579  0003AC                     
  2580                           ;glory.c: 219:                 if (PORTDbits.RD2 == 0)
  2581  0003AC  B483               	btfsc	131,2,c	;volatile
  2582  0003AE  EFDB  F001         	goto	u5101
  2583  0003B2  EFDD  F001         	goto	u5100
  2584  0003B6                     u5101:
  2585  0003B6  EFE2  F001         	goto	l3956
  2586  0003BA                     u5100:
  2587  0003BA                     
  2588                           ;glory.c: 220:                 {;glory.c: 221:                     J13 = 0;
  2589  0003BA  0E00               	movlw	0
  2590  0003BC  0100               	movlb	0	; () banked
  2591  0003BE  6FF1               	movwf	(_J13+1)& (0+255),b
  2592  0003C0  0E00               	movlw	0
  2593  0003C2  6FF0               	movwf	_J13& (0+255),b
  2594  0003C4                     l3956:
  2595                           
  2596                           ;glory.c: 224:             if (PORTDbits.RD2 == 1)
  2597  0003C4  A483               	btfss	131,2,c	;volatile
  2598  0003C6  EFE7  F001         	goto	u5111
  2599  0003CA  EFE9  F001         	goto	u5110
  2600  0003CE                     u5111:
  2601  0003CE  EFEE  F001         	goto	l3960
  2602  0003D2                     u5110:
  2603  0003D2                     
  2604                           ;glory.c: 225:                 J13 = 1;
  2605  0003D2  0E00               	movlw	0
  2606  0003D4  0100               	movlb	0	; () banked
  2607  0003D6  6FF1               	movwf	(_J13+1)& (0+255),b
  2608  0003D8  0E01               	movlw	1
  2609  0003DA  6FF0               	movwf	_J13& (0+255),b
  2610  0003DC                     l3960:
  2611                           
  2612                           ;glory.c: 228:             if ((PuertaAbierta == 0 && J8 == 1) || (StartUp == 1 && J8 ==
      +                           1))
  2613  0003DC  0100               	movlb	0	; () banked
  2614  0003DE  51DF               	movf	_PuertaAbierta& (0+255),w,b
  2615  0003E0  11E0               	iorwf	(_PuertaAbierta+1)& (0+255),w,b
  2616  0003E2  A4D8               	btfss	status,2,c
  2617  0003E4  EFF6  F001         	goto	u5121
  2618  0003E8  EFF8  F001         	goto	u5120
  2619  0003EC                     u5121:
  2620  0003EC  EF01  F002         	goto	l3964
  2621  0003F0                     u5120:
  2622  0003F0                     
  2623                           ; BSR set to: 0
  2624  0003F0  05F4               	decf	_J8& (0+255),w,b
  2625  0003F2  11F5               	iorwf	(_J8+1)& (0+255),w,b
  2626  0003F4  B4D8               	btfsc	status,2,c
  2627  0003F6  EFFF  F001         	goto	u5131
  2628  0003FA  EF01  F002         	goto	u5130
  2629  0003FE                     u5131:
  2630  0003FE  EF15  F002         	goto	l3968
  2631  000402                     u5130:
  2632  000402                     l3964:
  2633                           
  2634                           ; BSR set to: 0
  2635  000402  0101               	movlb	1	; () banked
  2636  000404  05F3               	decf	_StartUp& (0+255),w,b
  2637  000406  11F4               	iorwf	(_StartUp+1)& (0+255),w,b
  2638  000408  A4D8               	btfss	status,2,c
  2639  00040A  EF09  F002         	goto	u5141
  2640  00040E  EF0B  F002         	goto	u5140
  2641  000412                     u5141:
  2642  000412  EF43  F002         	goto	l3990
  2643  000416                     u5140:
  2644  000416                     
  2645                           ; BSR set to: 1
  2646  000416  0100               	movlb	0	; () banked
  2647  000418  05F4               	decf	_J8& (0+255),w,b
  2648  00041A  11F5               	iorwf	(_J8+1)& (0+255),w,b
  2649  00041C  A4D8               	btfss	status,2,c
  2650  00041E  EF13  F002         	goto	u5151
  2651  000422  EF15  F002         	goto	u5150
  2652  000426                     u5151:
  2653  000426  EF43  F002         	goto	l3990
  2654  00042A                     u5150:
  2655  00042A                     l3968:
  2656                           
  2657                           ; BSR set to: 0
  2658                           ;glory.c: 229:             {;glory.c: 230:                 PuertaAbierta = 1;
  2659  00042A  0E00               	movlw	0
  2660  00042C  6FE0               	movwf	(_PuertaAbierta+1)& (0+255),b
  2661  00042E  0E01               	movlw	1
  2662  000430  6FDF               	movwf	_PuertaAbierta& (0+255),b
  2663  000432                     
  2664                           ; BSR set to: 0
  2665                           ;glory.c: 231:                 USART_EnviaMsg("CRITICAL: door open");
  2666  000432  0E24               	movlw	low STR_6
  2667  000434  6F80               	movwf	USART_EnviaMsg@msgout& (0+255),b
  2668  000436  0E7F               	movlw	high STR_6
  2669  000438  6F81               	movwf	(USART_EnviaMsg@msgout+1)& (0+255),b
  2670  00043A  EC0E  F01A         	call	_USART_EnviaMsg	;wreg free
  2671  00043E                     
  2672                           ;glory.c: 232:                 USART_EnviaMsg(CRLF);
  2673  00043E  0EFC               	movlw	low _CRLF
  2674  000440  0100               	movlb	0	; () banked
  2675  000442  6F80               	movwf	USART_EnviaMsg@msgout& (0+255),b
  2676  000444  0E00               	movlw	high _CRLF
  2677  000446  6F81               	movwf	(USART_EnviaMsg@msgout+1)& (0+255),b
  2678  000448  EC0E  F01A         	call	_USART_EnviaMsg	;wreg free
  2679  00044C                     
  2680                           ;glory.c: 233:                 if (TMR0IE == 1)
  2681  00044C  AAF2               	btfss	4082,5,c	;volatile
  2682  00044E  EF2B  F002         	goto	u5161
  2683  000452  EF2D  F002         	goto	u5160
  2684  000456                     u5161:
  2685  000456  EF43  F002         	goto	l3990
  2686  00045A                     u5160:
  2687  00045A                     
  2688                           ;glory.c: 234:                 {;glory.c: 235:                     ValorStateLock = 0;
  2689  00045A  0E00               	movlw	0
  2690  00045C  0100               	movlb	0	; () banked
  2691  00045E  6FE6               	movwf	(_ValorStateLock+1)& (0+255),b
  2692  000460  0E00               	movlw	0
  2693  000462  6FE5               	movwf	_ValorStateLock& (0+255),b
  2694  000464                     
  2695                           ; BSR set to: 0
  2696                           ;glory.c: 236:                     TMR0IE = 0;
  2697  000464  9AF2               	bcf	4082,5,c	;volatile
  2698  000466                     
  2699                           ; BSR set to: 0
  2700                           ;glory.c: 237:                     LATA2 = 0;
  2701  000466  9489               	bcf	3977,2,c	;volatile
  2702  000468                     
  2703                           ; BSR set to: 0
  2704                           ;glory.c: 238:                     LATA1 = 0;
  2705  000468  9289               	bcf	3977,1,c	;volatile
  2706  00046A                     
  2707                           ; BSR set to: 0
  2708                           ;glory.c: 239:                     LATA0 = 0;
  2709  00046A  9089               	bcf	3977,0,c	;volatile
  2710  00046C                     
  2711                           ; BSR set to: 0
  2712                           ;glory.c: 240:                     USART_EnviaMsg("CRITICAL: door locked");
  2713  00046C  0EE4               	movlw	low STR_7
  2714  00046E  6F80               	movwf	USART_EnviaMsg@msgout& (0+255),b
  2715  000470  0E7E               	movlw	high STR_7
  2716  000472  6F81               	movwf	(USART_EnviaMsg@msgout+1)& (0+255),b
  2717  000474  EC0E  F01A         	call	_USART_EnviaMsg	;wreg free
  2718  000478                     
  2719                           ;glory.c: 241:                     USART_EnviaMsg(CRLF);
  2720  000478  0EFC               	movlw	low _CRLF
  2721  00047A  0100               	movlb	0	; () banked
  2722  00047C  6F80               	movwf	USART_EnviaMsg@msgout& (0+255),b
  2723  00047E  0E00               	movlw	high _CRLF
  2724  000480  6F81               	movwf	(USART_EnviaMsg@msgout+1)& (0+255),b
  2725  000482  EC0E  F01A         	call	_USART_EnviaMsg	;wreg free
  2726  000486                     l3990:
  2727                           
  2728                           ;glory.c: 245:             if ((PuertaAbierta == 1 && J8 == 0) || (StartUp == 1 && J8 ==
      +                           0))
  2729  000486  0100               	movlb	0	; () banked
  2730  000488  05DF               	decf	_PuertaAbierta& (0+255),w,b
  2731  00048A  11E0               	iorwf	(_PuertaAbierta+1)& (0+255),w,b
  2732  00048C  A4D8               	btfss	status,2,c
  2733  00048E  EF4B  F002         	goto	u5171
  2734  000492  EF4D  F002         	goto	u5170
  2735  000496                     u5171:
  2736  000496  EF56  F002         	goto	l3994
  2737  00049A                     u5170:
  2738  00049A                     
  2739                           ; BSR set to: 0
  2740  00049A  51F4               	movf	_J8& (0+255),w,b
  2741  00049C  11F5               	iorwf	(_J8+1)& (0+255),w,b
  2742  00049E  B4D8               	btfsc	status,2,c
  2743  0004A0  EF54  F002         	goto	u5181
  2744  0004A4  EF56  F002         	goto	u5180
  2745  0004A8                     u5181:
  2746  0004A8  EF6A  F002         	goto	l3998
  2747  0004AC                     u5180:
  2748  0004AC                     l3994:
  2749                           
  2750                           ; BSR set to: 0
  2751  0004AC  0101               	movlb	1	; () banked
  2752  0004AE  05F3               	decf	_StartUp& (0+255),w,b
  2753  0004B0  11F4               	iorwf	(_StartUp+1)& (0+255),w,b
  2754  0004B2  A4D8               	btfss	status,2,c
  2755  0004B4  EF5E  F002         	goto	u5191
  2756  0004B8  EF60  F002         	goto	u5190
  2757  0004BC                     u5191:
  2758  0004BC  EF98  F002         	goto	l4020
  2759  0004C0                     u5190:
  2760  0004C0                     
  2761                           ; BSR set to: 1
  2762  0004C0  0100               	movlb	0	; () banked
  2763  0004C2  51F4               	movf	_J8& (0+255),w,b
  2764  0004C4  11F5               	iorwf	(_J8+1)& (0+255),w,b
  2765  0004C6  A4D8               	btfss	status,2,c
  2766  0004C8  EF68  F002         	goto	u5201
  2767  0004CC  EF6A  F002         	goto	u5200
  2768  0004D0                     u5201:
  2769  0004D0  EF98  F002         	goto	l4020
  2770  0004D4                     u5200:
  2771  0004D4                     l3998:
  2772                           
  2773                           ; BSR set to: 0
  2774                           ;glory.c: 246:             {;glory.c: 247:                 PuertaAbierta = 0;
  2775  0004D4  0E00               	movlw	0
  2776  0004D6  6FE0               	movwf	(_PuertaAbierta+1)& (0+255),b
  2777  0004D8  0E00               	movlw	0
  2778  0004DA  6FDF               	movwf	_PuertaAbierta& (0+255),b
  2779  0004DC                     
  2780                           ; BSR set to: 0
  2781                           ;glory.c: 248:                 USART_EnviaMsg("CRITICAL: door closed");
  2782  0004DC  0EFA               	movlw	low STR_8
  2783  0004DE  6F80               	movwf	USART_EnviaMsg@msgout& (0+255),b
  2784  0004E0  0E7E               	movlw	high STR_8
  2785  0004E2  6F81               	movwf	(USART_EnviaMsg@msgout+1)& (0+255),b
  2786  0004E4  EC0E  F01A         	call	_USART_EnviaMsg	;wreg free
  2787  0004E8                     
  2788                           ;glory.c: 249:                 USART_EnviaMsg(CRLF);
  2789  0004E8  0EFC               	movlw	low _CRLF
  2790  0004EA  0100               	movlb	0	; () banked
  2791  0004EC  6F80               	movwf	USART_EnviaMsg@msgout& (0+255),b
  2792  0004EE  0E00               	movlw	high _CRLF
  2793  0004F0  6F81               	movwf	(USART_EnviaMsg@msgout+1)& (0+255),b
  2794  0004F2  EC0E  F01A         	call	_USART_EnviaMsg	;wreg free
  2795  0004F6                     
  2796                           ;glory.c: 250:                 if (TMR0IE == 1)
  2797  0004F6  AAF2               	btfss	4082,5,c	;volatile
  2798  0004F8  EF80  F002         	goto	u5211
  2799  0004FC  EF82  F002         	goto	u5210
  2800  000500                     u5211:
  2801  000500  EF98  F002         	goto	l4020
  2802  000504                     u5210:
  2803  000504                     
  2804                           ;glory.c: 251:                 {;glory.c: 252:                     ValorStateLock = 0;
  2805  000504  0E00               	movlw	0
  2806  000506  0100               	movlb	0	; () banked
  2807  000508  6FE6               	movwf	(_ValorStateLock+1)& (0+255),b
  2808  00050A  0E00               	movlw	0
  2809  00050C  6FE5               	movwf	_ValorStateLock& (0+255),b
  2810  00050E                     
  2811                           ; BSR set to: 0
  2812                           ;glory.c: 253:                     TMR0IE = 0;
  2813  00050E  9AF2               	bcf	4082,5,c	;volatile
  2814  000510                     
  2815                           ; BSR set to: 0
  2816                           ;glory.c: 254:                     LATA2 = 0;
  2817  000510  9489               	bcf	3977,2,c	;volatile
  2818  000512                     
  2819                           ; BSR set to: 0
  2820                           ;glory.c: 255:                     LATA1 = 0;
  2821  000512  9289               	bcf	3977,1,c	;volatile
  2822  000514                     
  2823                           ; BSR set to: 0
  2824                           ;glory.c: 256:                     LATA0 = 0;
  2825  000514  9089               	bcf	3977,0,c	;volatile
  2826  000516                     
  2827                           ; BSR set to: 0
  2828                           ;glory.c: 257:                     USART_EnviaMsg("CRITICAL: door locked");
  2829  000516  0EE4               	movlw	low STR_7
  2830  000518  6F80               	movwf	USART_EnviaMsg@msgout& (0+255),b
  2831  00051A  0E7E               	movlw	high STR_7
  2832  00051C  6F81               	movwf	(USART_EnviaMsg@msgout+1)& (0+255),b
  2833  00051E  EC0E  F01A         	call	_USART_EnviaMsg	;wreg free
  2834  000522                     
  2835                           ;glory.c: 258:                     USART_EnviaMsg(CRLF);
  2836  000522  0EFC               	movlw	low _CRLF
  2837  000524  0100               	movlb	0	; () banked
  2838  000526  6F80               	movwf	USART_EnviaMsg@msgout& (0+255),b
  2839  000528  0E00               	movlw	high _CRLF
  2840  00052A  6F81               	movwf	(USART_EnviaMsg@msgout+1)& (0+255),b
  2841  00052C  EC0E  F01A         	call	_USART_EnviaMsg	;wreg free
  2842  000530                     l4020:
  2843                           
  2844                           ;glory.c: 289:         if (ModoTrabajo == 0)
  2845  000530  0100               	movlb	0	; () banked
  2846  000532  51D3               	movf	_ModoTrabajo& (0+255),w,b
  2847  000534  11D4               	iorwf	(_ModoTrabajo+1)& (0+255),w,b
  2848  000536  A4D8               	btfss	status,2,c
  2849  000538  EFA0  F002         	goto	u5221
  2850  00053C  EFA2  F002         	goto	u5220
  2851  000540                     u5221:
  2852  000540  EF26  F004         	goto	l4112
  2853  000544                     u5220:
  2854  000544                     
  2855                           ; BSR set to: 0
  2856                           ;glory.c: 290:         {;glory.c: 292:             ValorStateE = (J8 * 4) + (J9 * 2) + J
      +                          2;
  2857  000544  C1F5  F0BF         	movff	_J9,??_main
  2858  000548  C1F6  F0C0         	movff	_J9+1,??_main+1
  2859  00054C  90D8               	bcf	status,0,c
  2860  00054E  37BF               	rlcf	??_main& (0+255),f,b
  2861  000550  37C0               	rlcf	(??_main+1)& (0+255),f,b
  2862  000552  C0F4  F0C1         	movff	_J8,??_main+2
  2863  000556  C0F5  F0C2         	movff	_J8+1,??_main+3
  2864  00055A  90D8               	bcf	status,0,c
  2865  00055C  37C1               	rlcf	(??_main+2)& (0+255),f,b
  2866  00055E  37C2               	rlcf	(??_main+3)& (0+255),f,b
  2867  000560  90D8               	bcf	status,0,c
  2868  000562  37C1               	rlcf	(??_main+2)& (0+255),f,b
  2869  000564  37C2               	rlcf	(??_main+3)& (0+255),f,b
  2870  000566  51BF               	movf	??_main& (0+255),w,b
  2871  000568  27C1               	addwf	(??_main+2)& (0+255),f,b
  2872  00056A  51C0               	movf	(??_main+1)& (0+255),w,b
  2873  00056C  23C2               	addwfc	(??_main+3)& (0+255),f,b
  2874  00056E  0101               	movlb	1	; () banked
  2875  000570  51FB               	movf	_J2& (0+255),w,b
  2876  000572  0100               	movlb	0	; () banked
  2877  000574  25C1               	addwf	(??_main+2)& (0+255),w,b
  2878  000576  6FE9               	movwf	_ValorStateE& (0+255),b
  2879  000578  0101               	movlb	1	; () banked
  2880  00057A  51FC               	movf	(_J2+1)& (0+255),w,b
  2881  00057C  0100               	movlb	0	; () banked
  2882  00057E  21C2               	addwfc	(??_main+3)& (0+255),w,b
  2883  000580  6FEA               	movwf	(_ValorStateE+1)& (0+255),b
  2884                           
  2885                           ;glory.c: 294:             ValorBagSensor = (J6 * 2) + J13;
  2886  000582  C0F6  F0BF         	movff	_J6,??_main
  2887  000586  C0F7  F0C0         	movff	_J6+1,??_main+1
  2888  00058A  90D8               	bcf	status,0,c
  2889  00058C  37BF               	rlcf	??_main& (0+255),f,b
  2890  00058E  37C0               	rlcf	(??_main+1)& (0+255),f,b
  2891  000590  51F0               	movf	_J13& (0+255),w,b
  2892  000592  25BF               	addwf	??_main& (0+255),w,b
  2893  000594  6FE3               	movwf	_ValorBagSensor& (0+255),b
  2894  000596  51F1               	movf	(_J13+1)& (0+255),w,b
  2895  000598  21C0               	addwfc	(??_main+1)& (0+255),w,b
  2896  00059A  6FE4               	movwf	(_ValorBagSensor+1)& (0+255),b
  2897                           
  2898                           ;glory.c: 296:             if (J6 == 1 && J13 == 1)
  2899  00059C  05F6               	decf	_J6& (0+255),w,b
  2900  00059E  11F7               	iorwf	(_J6+1)& (0+255),w,b
  2901  0005A0  A4D8               	btfss	status,2,c
  2902  0005A2  EFD5  F002         	goto	u5231
  2903  0005A6  EFD7  F002         	goto	u5230
  2904  0005AA                     u5231:
  2905  0005AA  EFE4  F002         	goto	l4028
  2906  0005AE                     u5230:
  2907  0005AE                     
  2908                           ; BSR set to: 0
  2909  0005AE  05F0               	decf	_J13& (0+255),w,b
  2910  0005B0  11F1               	iorwf	(_J13+1)& (0+255),w,b
  2911  0005B2  A4D8               	btfss	status,2,c
  2912  0005B4  EFDE  F002         	goto	u5241
  2913  0005B8  EFE0  F002         	goto	u5240
  2914  0005BC                     u5241:
  2915  0005BC  EFE4  F002         	goto	l4028
  2916  0005C0                     u5240:
  2917  0005C0                     
  2918                           ; BSR set to: 0
  2919                           ;glory.c: 297:                 ValorBagStatus = 2;
  2920  0005C0  0E00               	movlw	0
  2921  0005C2  6FE2               	movwf	(_ValorBagStatus+1)& (0+255),b
  2922  0005C4  0E02               	movlw	2
  2923  0005C6  6FE1               	movwf	_ValorBagStatus& (0+255),b
  2924  0005C8                     l4028:
  2925                           
  2926                           ; BSR set to: 0
  2927                           ;glory.c: 298:             if (J6 == 0 && J13 == 1)
  2928  0005C8  51F6               	movf	_J6& (0+255),w,b
  2929  0005CA  11F7               	iorwf	(_J6+1)& (0+255),w,b
  2930  0005CC  A4D8               	btfss	status,2,c
  2931  0005CE  EFEB  F002         	goto	u5251
  2932  0005D2  EFED  F002         	goto	u5250
  2933  0005D6                     u5251:
  2934  0005D6  EFFA  F002         	goto	l4034
  2935  0005DA                     u5250:
  2936  0005DA                     
  2937                           ; BSR set to: 0
  2938  0005DA  05F0               	decf	_J13& (0+255),w,b
  2939  0005DC  11F1               	iorwf	(_J13+1)& (0+255),w,b
  2940  0005DE  A4D8               	btfss	status,2,c
  2941  0005E0  EFF4  F002         	goto	u5261
  2942  0005E4  EFF6  F002         	goto	u5260
  2943  0005E8                     u5261:
  2944  0005E8  EFFA  F002         	goto	l4034
  2945  0005EC                     u5260:
  2946  0005EC                     
  2947                           ; BSR set to: 0
  2948                           ;glory.c: 299:                 ValorBagStatus = 0;
  2949  0005EC  0E00               	movlw	0
  2950  0005EE  6FE2               	movwf	(_ValorBagStatus+1)& (0+255),b
  2951  0005F0  0E00               	movlw	0
  2952  0005F2  6FE1               	movwf	_ValorBagStatus& (0+255),b
  2953  0005F4                     l4034:
  2954                           
  2955                           ; BSR set to: 0
  2956                           ;glory.c: 300:             if (J6 == 0 && J13 == 0)
  2957  0005F4  51F6               	movf	_J6& (0+255),w,b
  2958  0005F6  11F7               	iorwf	(_J6+1)& (0+255),w,b
  2959  0005F8  A4D8               	btfss	status,2,c
  2960  0005FA  EF01  F003         	goto	u5271
  2961  0005FE  EF03  F003         	goto	u5270
  2962  000602                     u5271:
  2963  000602  EF10  F003         	goto	l4040
  2964  000606                     u5270:
  2965  000606                     
  2966                           ; BSR set to: 0
  2967  000606  51F0               	movf	_J13& (0+255),w,b
  2968  000608  11F1               	iorwf	(_J13+1)& (0+255),w,b
  2969  00060A  A4D8               	btfss	status,2,c
  2970  00060C  EF0A  F003         	goto	u5281
  2971  000610  EF0C  F003         	goto	u5280
  2972  000614                     u5281:
  2973  000614  EF10  F003         	goto	l4040
  2974  000618                     u5280:
  2975  000618                     
  2976                           ; BSR set to: 0
  2977                           ;glory.c: 301:                 ValorBagStatus = 1;
  2978  000618  0E00               	movlw	0
  2979  00061A  6FE2               	movwf	(_ValorBagStatus+1)& (0+255),b
  2980  00061C  0E01               	movlw	1
  2981  00061E  6FE1               	movwf	_ValorBagStatus& (0+255),b
  2982  000620                     l4040:
  2983                           
  2984                           ; BSR set to: 0
  2985                           ;glory.c: 302:             if (J6 == 1 && J13 == 0)
  2986  000620  05F6               	decf	_J6& (0+255),w,b
  2987  000622  11F7               	iorwf	(_J6+1)& (0+255),w,b
  2988  000624  A4D8               	btfss	status,2,c
  2989  000626  EF17  F003         	goto	u5291
  2990  00062A  EF19  F003         	goto	u5290
  2991  00062E                     u5291:
  2992  00062E  EF26  F003         	goto	l4046
  2993  000632                     u5290:
  2994  000632                     
  2995                           ; BSR set to: 0
  2996  000632  51F0               	movf	_J13& (0+255),w,b
  2997  000634  11F1               	iorwf	(_J13+1)& (0+255),w,b
  2998  000636  A4D8               	btfss	status,2,c
  2999  000638  EF20  F003         	goto	u5301
  3000  00063C  EF22  F003         	goto	u5300
  3001  000640                     u5301:
  3002  000640  EF26  F003         	goto	l4046
  3003  000644                     u5300:
  3004  000644                     
  3005                           ; BSR set to: 0
  3006                           ;glory.c: 303:                 ValorBagStatus = 0;
  3007  000644  0E00               	movlw	0
  3008  000646  6FE2               	movwf	(_ValorBagStatus+1)& (0+255),b
  3009  000648  0E00               	movlw	0
  3010  00064A  6FE1               	movwf	_ValorBagStatus& (0+255),b
  3011  00064C                     l4046:
  3012                           
  3013                           ; BSR set to: 0
  3014                           ;glory.c: 310:        if ((PORTDbits.RD3 == 0) && (J6 == 1))
  3015  00064C  B683               	btfsc	131,3,c	;volatile
  3016  00064E  EF2B  F003         	goto	u5311
  3017  000652  EF2D  F003         	goto	u5310
  3018  000656                     u5311:
  3019  000656  EF4F  F003         	goto	l4056
  3020  00065A                     u5310:
  3021  00065A                     
  3022                           ; BSR set to: 0
  3023  00065A  05F6               	decf	_J6& (0+255),w,b
  3024  00065C  11F7               	iorwf	(_J6+1)& (0+255),w,b
  3025  00065E  A4D8               	btfss	status,2,c
  3026  000660  EF34  F003         	goto	u5321
  3027  000664  EF36  F003         	goto	u5320
  3028  000668                     u5321:
  3029  000668  EF4F  F003         	goto	l4056
  3030  00066C                     u5320:
  3031  00066C                     
  3032                           ; BSR set to: 0
  3033                           ;glory.c: 311:         {;glory.c: 312:                 _delay((unsigned long)((100)*(800
      +                          0000/4000.0)));
  3034  00066C  0E02               	movlw	2
  3035  00066E  0100               	movlb	0	; () banked
  3036  000670  6FC0               	movwf	(??_main+1)& (0+255),b
  3037  000672  0E04               	movlw	4
  3038  000674  6FBF               	movwf	??_main& (0+255),b
  3039  000676  0EBA               	movlw	186
  3040  000678                     u6737:
  3041  000678  2EE8               	decfsz	wreg,f,c
  3042  00067A  D7FE               	bra	u6737
  3043  00067C  2FBF               	decfsz	??_main& (0+255),f,b
  3044  00067E  D7FC               	bra	u6737
  3045  000680  2FC0               	decfsz	(??_main+1)& (0+255),f,b
  3046  000682  D7FA               	bra	u6737
  3047  000684  F000               	nop	
  3048  000686                     
  3049                           ;glory.c: 313:        if (PORTDbits.RD3 == 0)
  3050  000686  B683               	btfsc	131,3,c	;volatile
  3051  000688  EF48  F003         	goto	u5331
  3052  00068C  EF4A  F003         	goto	u5330
  3053  000690                     u5331:
  3054  000690  EF4F  F003         	goto	l4056
  3055  000694                     u5330:
  3056  000694                     
  3057                           ;glory.c: 314:             {;glory.c: 315:             J6 = 0;
  3058  000694  0E00               	movlw	0
  3059  000696  0100               	movlb	0	; () banked
  3060  000698  6FF7               	movwf	(_J6+1)& (0+255),b
  3061  00069A  0E00               	movlw	0
  3062  00069C  6FF6               	movwf	_J6& (0+255),b
  3063  00069E                     l4056:
  3064                           
  3065                           ;glory.c: 318:       if (PORTDbits.RD3 == 1)
  3066  00069E  A683               	btfss	131,3,c	;volatile
  3067  0006A0  EF54  F003         	goto	u5341
  3068  0006A4  EF56  F003         	goto	u5340
  3069  0006A8                     u5341:
  3070  0006A8  EF5B  F003         	goto	l4060
  3071  0006AC                     u5340:
  3072  0006AC                     
  3073                           ;glory.c: 319:             J6 = 1;
  3074  0006AC  0E00               	movlw	0
  3075  0006AE  0100               	movlb	0	; () banked
  3076  0006B0  6FF7               	movwf	(_J6+1)& (0+255),b
  3077  0006B2  0E01               	movlw	1
  3078  0006B4  6FF6               	movwf	_J6& (0+255),b
  3079  0006B6                     l4060:
  3080                           
  3081                           ;glory.c: 321:       if ((PORTDbits.RD2 == 0) && (J13 == 1))
  3082  0006B6  B483               	btfsc	131,2,c	;volatile
  3083  0006B8  EF60  F003         	goto	u5351
  3084  0006BC  EF62  F003         	goto	u5350
  3085  0006C0                     u5351:
  3086  0006C0  EF85  F003         	goto	l4070
  3087  0006C4                     u5350:
  3088  0006C4  0100               	movlb	0	; () banked
  3089  0006C6  05F0               	decf	_J13& (0+255),w,b
  3090  0006C8  11F1               	iorwf	(_J13+1)& (0+255),w,b
  3091  0006CA  A4D8               	btfss	status,2,c
  3092  0006CC  EF6A  F003         	goto	u5361
  3093  0006D0  EF6C  F003         	goto	u5360
  3094  0006D4                     u5361:
  3095  0006D4  EF85  F003         	goto	l4070
  3096  0006D8                     u5360:
  3097  0006D8                     
  3098                           ; BSR set to: 0
  3099                           ;glory.c: 322:         {;glory.c: 323:                 _delay((unsigned long)((100)*(800
      +                          0000/4000.0)));
  3100  0006D8  0E02               	movlw	2
  3101  0006DA  0100               	movlb	0	; () banked
  3102  0006DC  6FC0               	movwf	(??_main+1)& (0+255),b
  3103  0006DE  0E04               	movlw	4
  3104  0006E0  6FBF               	movwf	??_main& (0+255),b
  3105  0006E2  0EBA               	movlw	186
  3106  0006E4                     u6747:
  3107  0006E4  2EE8               	decfsz	wreg,f,c
  3108  0006E6  D7FE               	bra	u6747
  3109  0006E8  2FBF               	decfsz	??_main& (0+255),f,b
  3110  0006EA  D7FC               	bra	u6747
  3111  0006EC  2FC0               	decfsz	(??_main+1)& (0+255),f,b
  3112  0006EE  D7FA               	bra	u6747
  3113  0006F0  F000               	nop	
  3114  0006F2                     
  3115                           ;glory.c: 324:       if (PORTDbits.RD2 == 0)
  3116  0006F2  B483               	btfsc	131,2,c	;volatile
  3117  0006F4  EF7E  F003         	goto	u5371
  3118  0006F8  EF80  F003         	goto	u5370
  3119  0006FC                     u5371:
  3120  0006FC  EF85  F003         	goto	l4070
  3121  000700                     u5370:
  3122  000700                     
  3123                           ;glory.c: 325:             {;glory.c: 326:             J13 = 0;
  3124  000700  0E00               	movlw	0
  3125  000702  0100               	movlb	0	; () banked
  3126  000704  6FF1               	movwf	(_J13+1)& (0+255),b
  3127  000706  0E00               	movlw	0
  3128  000708  6FF0               	movwf	_J13& (0+255),b
  3129  00070A                     l4070:
  3130                           
  3131                           ;glory.c: 329:       if (PORTDbits.RD2 == 1)
  3132  00070A  A483               	btfss	131,2,c	;volatile
  3133  00070C  EF8A  F003         	goto	u5381
  3134  000710  EF8C  F003         	goto	u5380
  3135  000714                     u5381:
  3136  000714  EF91  F003         	goto	l4074
  3137  000718                     u5380:
  3138  000718                     
  3139                           ;glory.c: 330:                 J13 = 1;
  3140  000718  0E00               	movlw	0
  3141  00071A  0100               	movlb	0	; () banked
  3142  00071C  6FF1               	movwf	(_J13+1)& (0+255),b
  3143  00071E  0E01               	movlw	1
  3144  000720  6FF0               	movwf	_J13& (0+255),b
  3145  000722                     l4074:
  3146                           
  3147                           ;glory.c: 333:       if (J13 == 0 && J6 == 0){
  3148  000722  0100               	movlb	0	; () banked
  3149  000724  51F0               	movf	_J13& (0+255),w,b
  3150  000726  11F1               	iorwf	(_J13+1)& (0+255),w,b
  3151  000728  A4D8               	btfss	status,2,c
  3152  00072A  EF99  F003         	goto	u5391
  3153  00072E  EF9B  F003         	goto	u5390
  3154  000732                     u5391:
  3155  000732  EFA8  F003         	goto	l4080
  3156  000736                     u5390:
  3157  000736                     
  3158                           ; BSR set to: 0
  3159  000736  51F6               	movf	_J6& (0+255),w,b
  3160  000738  11F7               	iorwf	(_J6+1)& (0+255),w,b
  3161  00073A  A4D8               	btfss	status,2,c
  3162  00073C  EFA2  F003         	goto	u5401
  3163  000740  EFA4  F003         	goto	u5400
  3164  000744                     u5401:
  3165  000744  EFA8  F003         	goto	l4080
  3166  000748                     u5400:
  3167  000748                     
  3168                           ; BSR set to: 0
  3169                           ;glory.c: 334:           ValorBag = 2;
  3170  000748  0E00               	movlw	0
  3171  00074A  6FFB               	movwf	(_ValorBag+1)& (0+255),b
  3172  00074C  0E02               	movlw	2
  3173  00074E  6FFA               	movwf	_ValorBag& (0+255),b
  3174  000750                     l4080:
  3175                           
  3176                           ; BSR set to: 0
  3177                           ;glory.c: 338:       if (J13 == 0 && J6 == 1){
  3178  000750  51F0               	movf	_J13& (0+255),w,b
  3179  000752  11F1               	iorwf	(_J13+1)& (0+255),w,b
  3180  000754  A4D8               	btfss	status,2,c
  3181  000756  EFAF  F003         	goto	u5411
  3182  00075A  EFB1  F003         	goto	u5410
  3183  00075E                     u5411:
  3184  00075E  EFBE  F003         	goto	l4086
  3185  000762                     u5410:
  3186  000762                     
  3187                           ; BSR set to: 0
  3188  000762  05F6               	decf	_J6& (0+255),w,b
  3189  000764  11F7               	iorwf	(_J6+1)& (0+255),w,b
  3190  000766  A4D8               	btfss	status,2,c
  3191  000768  EFB8  F003         	goto	u5421
  3192  00076C  EFBA  F003         	goto	u5420
  3193  000770                     u5421:
  3194  000770  EFBE  F003         	goto	l4086
  3195  000774                     u5420:
  3196  000774                     
  3197                           ; BSR set to: 0
  3198                           ;glory.c: 339:           ValorBag = 0;
  3199  000774  0E00               	movlw	0
  3200  000776  6FFB               	movwf	(_ValorBag+1)& (0+255),b
  3201  000778  0E00               	movlw	0
  3202  00077A  6FFA               	movwf	_ValorBag& (0+255),b
  3203  00077C                     l4086:
  3204                           
  3205                           ; BSR set to: 0
  3206                           ;glory.c: 343:       if (J13 == 1 && J6 == 0){
  3207  00077C  05F0               	decf	_J13& (0+255),w,b
  3208  00077E  11F1               	iorwf	(_J13+1)& (0+255),w,b
  3209  000780  A4D8               	btfss	status,2,c
  3210  000782  EFC5  F003         	goto	u5431
  3211  000786  EFC7  F003         	goto	u5430
  3212  00078A                     u5431:
  3213  00078A  EFD4  F003         	goto	l4092
  3214  00078E                     u5430:
  3215  00078E                     
  3216                           ; BSR set to: 0
  3217  00078E  51F6               	movf	_J6& (0+255),w,b
  3218  000790  11F7               	iorwf	(_J6+1)& (0+255),w,b
  3219  000792  A4D8               	btfss	status,2,c
  3220  000794  EFCE  F003         	goto	u5441
  3221  000798  EFD0  F003         	goto	u5440
  3222  00079C                     u5441:
  3223  00079C  EFD4  F003         	goto	l4092
  3224  0007A0                     u5440:
  3225  0007A0                     
  3226                           ; BSR set to: 0
  3227                           ;glory.c: 344:           ValorBag = 0;
  3228  0007A0  0E00               	movlw	0
  3229  0007A2  6FFB               	movwf	(_ValorBag+1)& (0+255),b
  3230  0007A4  0E00               	movlw	0
  3231  0007A6  6FFA               	movwf	_ValorBag& (0+255),b
  3232  0007A8                     l4092:
  3233                           
  3234                           ; BSR set to: 0
  3235                           ;glory.c: 348:       if ((J13 && J6)== 1){
  3236  0007A8  51F0               	movf	_J13& (0+255),w,b
  3237  0007AA  11F1               	iorwf	(_J13+1)& (0+255),w,b
  3238  0007AC  B4D8               	btfsc	status,2,c
  3239  0007AE  EFDB  F003         	goto	u5451
  3240  0007B2  EFDD  F003         	goto	u5450
  3241  0007B6                     u5451:
  3242  0007B6  EFEA  F003         	goto	l4098
  3243  0007BA                     u5450:
  3244  0007BA                     
  3245                           ; BSR set to: 0
  3246  0007BA  51F6               	movf	_J6& (0+255),w,b
  3247  0007BC  11F7               	iorwf	(_J6+1)& (0+255),w,b
  3248  0007BE  B4D8               	btfsc	status,2,c
  3249  0007C0  EFE4  F003         	goto	u5461
  3250  0007C4  EFE6  F003         	goto	u5460
  3251  0007C8                     u5461:
  3252  0007C8  EFEA  F003         	goto	l4098
  3253  0007CC                     u5460:
  3254  0007CC                     
  3255                           ; BSR set to: 0
  3256                           ;glory.c: 349:           ValorBag = 1;
  3257  0007CC  0E00               	movlw	0
  3258  0007CE  6FFB               	movwf	(_ValorBag+1)& (0+255),b
  3259  0007D0  0E01               	movlw	1
  3260  0007D2  6FFA               	movwf	_ValorBag& (0+255),b
  3261  0007D4                     l4098:
  3262                           
  3263                           ; BSR set to: 0
  3264                           ;glory.c: 359:             if ((ValorBag != 2 || J6 != 0) && (ValorStateLock == 0))
  3265  0007D4  0E02               	movlw	2
  3266  0007D6  19FA               	xorwf	_ValorBag& (0+255),w,b
  3267  0007D8  11FB               	iorwf	(_ValorBag+1)& (0+255),w,b
  3268  0007DA  A4D8               	btfss	status,2,c
  3269  0007DC  EFF2  F003         	goto	u5471
  3270  0007E0  EFF4  F003         	goto	u5470
  3271  0007E4                     u5471:
  3272  0007E4  EFFD  F003         	goto	l4102
  3273  0007E8                     u5470:
  3274  0007E8                     
  3275                           ; BSR set to: 0
  3276  0007E8  51F6               	movf	_J6& (0+255),w,b
  3277  0007EA  11F7               	iorwf	(_J6+1)& (0+255),w,b
  3278  0007EC  B4D8               	btfsc	status,2,c
  3279  0007EE  EFFB  F003         	goto	u5481
  3280  0007F2  EFFD  F003         	goto	u5480
  3281  0007F6                     u5481:
  3282  0007F6  EF0B  F004         	goto	l4106
  3283  0007FA                     u5480:
  3284  0007FA                     l4102:
  3285                           
  3286                           ; BSR set to: 0
  3287  0007FA  51E5               	movf	_ValorStateLock& (0+255),w,b
  3288  0007FC  11E6               	iorwf	(_ValorStateLock+1)& (0+255),w,b
  3289  0007FE  A4D8               	btfss	status,2,c
  3290  000800  EF04  F004         	goto	u5491
  3291  000804  EF06  F004         	goto	u5490
  3292  000808                     u5491:
  3293  000808  EF0B  F004         	goto	l4106
  3294  00080C                     u5490:
  3295  00080C                     l4104:
  3296                           
  3297                           ; BSR set to: 0
  3298                           ;glory.c: 360:             {;glory.c: 361:                 LATC2 = 1;
  3299  00080C  848B               	bsf	3979,2,c	;volatile
  3300                           
  3301                           ;glory.c: 362:                 TMR2IF = 0;
  3302  00080E  929E               	bcf	3998,1,c	;volatile
  3303                           
  3304                           ;glory.c: 363:                 TMR2IE = 1;
  3305  000810  829D               	bsf	3997,1,c	;volatile
  3306                           
  3307                           ;glory.c: 364:             }
  3308  000812  EF1F  F004         	goto	l4110
  3309  000816                     l4106:
  3310                           
  3311                           ; BSR set to: 0
  3312                           ;glory.c: 366:             {;glory.c: 367:                 if (ValorStateLock == 1)
  3313  000816  05E5               	decf	_ValorStateLock& (0+255),w,b
  3314  000818  11E6               	iorwf	(_ValorStateLock+1)& (0+255),w,b
  3315  00081A  A4D8               	btfss	status,2,c
  3316  00081C  EF12  F004         	goto	u5501
  3317  000820  EF14  F004         	goto	u5500
  3318  000824                     u5501:
  3319  000824  EF1B  F004         	goto	l246
  3320  000828                     u5500:
  3321  000828                     l4108:
  3322                           
  3323                           ; BSR set to: 0
  3324                           ;glory.c: 368:                 {;glory.c: 369:                     LATC2 = 1;
  3325  000828  848B               	bsf	3979,2,c	;volatile
  3326                           
  3327                           ;glory.c: 370:                     LATE2 = 1;
  3328  00082A  848D               	bsf	3981,2,c	;volatile
  3329                           
  3330                           ;glory.c: 371:                     LATE1 = 0;
  3331  00082C  928D               	bcf	3981,1,c	;volatile
  3332                           
  3333                           ;glory.c: 372:                     TMR2IF = 0;
  3334  00082E  929E               	bcf	3998,1,c	;volatile
  3335                           
  3336                           ;glory.c: 373:                     TMR2IE = 0;
  3337  000830  929D               	bcf	3997,1,c	;volatile
  3338                           
  3339                           ;glory.c: 374:                 }
  3340  000832  EF1F  F004         	goto	l4110
  3341  000836                     l246:
  3342                           
  3343                           ; BSR set to: 0
  3344                           ;glory.c: 376:                 {;glory.c: 377:                     LATC2 = 0;
  3345  000836  948B               	bcf	3979,2,c	;volatile
  3346                           
  3347                           ;glory.c: 378:                     LATE2 = 0;
  3348  000838  948D               	bcf	3981,2,c	;volatile
  3349                           
  3350                           ;glory.c: 379:                     LATE1 = 0;
  3351  00083A  928D               	bcf	3981,1,c	;volatile
  3352                           
  3353                           ;glory.c: 380:                     TMR2IE = 0;
  3354  00083C  929D               	bcf	3997,1,c	;volatile
  3355  00083E                     l4110:
  3356                           
  3357                           ; BSR set to: 0
  3358                           ;glory.c: 383:             StartUp = 0;
  3359  00083E  0E00               	movlw	0
  3360  000840  0101               	movlb	1	; () banked
  3361  000842  6FF4               	movwf	(_StartUp+1)& (0+255),b
  3362  000844  0E00               	movlw	0
  3363  000846  6FF3               	movwf	_StartUp& (0+255),b
  3364                           
  3365                           ;glory.c: 386:         } else {
  3366  000848  EF4C  F001         	goto	l3918
  3367  00084C                     l4112:
  3368                           
  3369                           ; BSR set to: 0
  3370                           ;glory.c: 390:             ValorStateE = (J8 * 4) + (J9 * 2) + J2;
  3371  00084C  C1F5  F0BF         	movff	_J9,??_main
  3372  000850  C1F6  F0C0         	movff	_J9+1,??_main+1
  3373  000854  90D8               	bcf	status,0,c
  3374  000856  37BF               	rlcf	??_main& (0+255),f,b
  3375  000858  37C0               	rlcf	(??_main+1)& (0+255),f,b
  3376  00085A  C0F4  F0C1         	movff	_J8,??_main+2
  3377  00085E  C0F5  F0C2         	movff	_J8+1,??_main+3
  3378  000862  90D8               	bcf	status,0,c
  3379  000864  37C1               	rlcf	(??_main+2)& (0+255),f,b
  3380  000866  37C2               	rlcf	(??_main+3)& (0+255),f,b
  3381  000868  90D8               	bcf	status,0,c
  3382  00086A  37C1               	rlcf	(??_main+2)& (0+255),f,b
  3383  00086C  37C2               	rlcf	(??_main+3)& (0+255),f,b
  3384  00086E  51BF               	movf	??_main& (0+255),w,b
  3385  000870  27C1               	addwf	(??_main+2)& (0+255),f,b
  3386  000872  51C0               	movf	(??_main+1)& (0+255),w,b
  3387  000874  23C2               	addwfc	(??_main+3)& (0+255),f,b
  3388  000876  0101               	movlb	1	; () banked
  3389  000878  51FB               	movf	_J2& (0+255),w,b
  3390  00087A  0100               	movlb	0	; () banked
  3391  00087C  25C1               	addwf	(??_main+2)& (0+255),w,b
  3392  00087E  6FE9               	movwf	_ValorStateE& (0+255),b
  3393  000880  0101               	movlb	1	; () banked
  3394  000882  51FC               	movf	(_J2+1)& (0+255),w,b
  3395  000884  0100               	movlb	0	; () banked
  3396  000886  21C2               	addwfc	(??_main+3)& (0+255),w,b
  3397  000888  6FEA               	movwf	(_ValorStateE+1)& (0+255),b
  3398                           
  3399                           ;glory.c: 392:             ValorBagSensor = (J5 * 4) + (J6 * 2) + J12;
  3400  00088A  C0F6  F0BF         	movff	_J6,??_main
  3401  00088E  C0F7  F0C0         	movff	_J6+1,??_main+1
  3402  000892  90D8               	bcf	status,0,c
  3403  000894  37BF               	rlcf	??_main& (0+255),f,b
  3404  000896  37C0               	rlcf	(??_main+1)& (0+255),f,b
  3405  000898  C0F8  F0C1         	movff	_J5,??_main+2
  3406  00089C  C0F9  F0C2         	movff	_J5+1,??_main+3
  3407  0008A0  90D8               	bcf	status,0,c
  3408  0008A2  37C1               	rlcf	(??_main+2)& (0+255),f,b
  3409  0008A4  37C2               	rlcf	(??_main+3)& (0+255),f,b
  3410  0008A6  90D8               	bcf	status,0,c
  3411  0008A8  37C1               	rlcf	(??_main+2)& (0+255),f,b
  3412  0008AA  37C2               	rlcf	(??_main+3)& (0+255),f,b
  3413  0008AC  51BF               	movf	??_main& (0+255),w,b
  3414  0008AE  27C1               	addwf	(??_main+2)& (0+255),f,b
  3415  0008B0  51C0               	movf	(??_main+1)& (0+255),w,b
  3416  0008B2  23C2               	addwfc	(??_main+3)& (0+255),f,b
  3417  0008B4  51F2               	movf	_J12& (0+255),w,b
  3418  0008B6  25C1               	addwf	(??_main+2)& (0+255),w,b
  3419  0008B8  6FE3               	movwf	_ValorBagSensor& (0+255),b
  3420  0008BA  51F3               	movf	(_J12+1)& (0+255),w,b
  3421  0008BC  21C2               	addwfc	(??_main+3)& (0+255),w,b
  3422  0008BE  6FE4               	movwf	(_ValorBagSensor+1)& (0+255),b
  3423                           
  3424                           ;glory.c: 394:             if (J5 == 1 && J6 == 1 && J12 == 1)
  3425  0008C0  05F8               	decf	_J5& (0+255),w,b
  3426  0008C2  11F9               	iorwf	(_J5+1)& (0+255),w,b
  3427  0008C4  A4D8               	btfss	status,2,c
  3428  0008C6  EF67  F004         	goto	u5511
  3429  0008CA  EF69  F004         	goto	u5510
  3430  0008CE                     u5511:
  3431  0008CE  EF7F  F004         	goto	l4120
  3432  0008D2                     u5510:
  3433  0008D2                     
  3434                           ; BSR set to: 0
  3435  0008D2  05F6               	decf	_J6& (0+255),w,b
  3436  0008D4  11F7               	iorwf	(_J6+1)& (0+255),w,b
  3437  0008D6  A4D8               	btfss	status,2,c
  3438  0008D8  EF70  F004         	goto	u5521
  3439  0008DC  EF72  F004         	goto	u5520
  3440  0008E0                     u5521:
  3441  0008E0  EF7F  F004         	goto	l4120
  3442  0008E4                     u5520:
  3443  0008E4                     
  3444                           ; BSR set to: 0
  3445  0008E4  05F2               	decf	_J12& (0+255),w,b
  3446  0008E6  11F3               	iorwf	(_J12+1)& (0+255),w,b
  3447  0008E8  A4D8               	btfss	status,2,c
  3448  0008EA  EF79  F004         	goto	u5531
  3449  0008EE  EF7B  F004         	goto	u5530
  3450  0008F2                     u5531:
  3451  0008F2  EF7F  F004         	goto	l4120
  3452  0008F6                     u5530:
  3453  0008F6                     
  3454                           ; BSR set to: 0
  3455                           ;glory.c: 395:                 ValorBagStatus = 2;
  3456  0008F6  0E00               	movlw	0
  3457  0008F8  6FE2               	movwf	(_ValorBagStatus+1)& (0+255),b
  3458  0008FA  0E02               	movlw	2
  3459  0008FC  6FE1               	movwf	_ValorBagStatus& (0+255),b
  3460  0008FE                     l4120:
  3461                           
  3462                           ; BSR set to: 0
  3463                           ;glory.c: 396:             if (J5 == 0 && J6 == 1 && J12 == 1)
  3464  0008FE  51F8               	movf	_J5& (0+255),w,b
  3465  000900  11F9               	iorwf	(_J5+1)& (0+255),w,b
  3466  000902  A4D8               	btfss	status,2,c
  3467  000904  EF86  F004         	goto	u5541
  3468  000908  EF88  F004         	goto	u5540
  3469  00090C                     u5541:
  3470  00090C  EF9E  F004         	goto	l4128
  3471  000910                     u5540:
  3472  000910                     
  3473                           ; BSR set to: 0
  3474  000910  05F6               	decf	_J6& (0+255),w,b
  3475  000912  11F7               	iorwf	(_J6+1)& (0+255),w,b
  3476  000914  A4D8               	btfss	status,2,c
  3477  000916  EF8F  F004         	goto	u5551
  3478  00091A  EF91  F004         	goto	u5550
  3479  00091E                     u5551:
  3480  00091E  EF9E  F004         	goto	l4128
  3481  000922                     u5550:
  3482  000922                     
  3483                           ; BSR set to: 0
  3484  000922  05F2               	decf	_J12& (0+255),w,b
  3485  000924  11F3               	iorwf	(_J12+1)& (0+255),w,b
  3486  000926  A4D8               	btfss	status,2,c
  3487  000928  EF98  F004         	goto	u5561
  3488  00092C  EF9A  F004         	goto	u5560
  3489  000930                     u5561:
  3490  000930  EF9E  F004         	goto	l4128
  3491  000934                     u5560:
  3492  000934                     
  3493                           ; BSR set to: 0
  3494                           ;glory.c: 397:                 ValorBagStatus = 3;
  3495  000934  0E00               	movlw	0
  3496  000936  6FE2               	movwf	(_ValorBagStatus+1)& (0+255),b
  3497  000938  0E03               	movlw	3
  3498  00093A  6FE1               	movwf	_ValorBagStatus& (0+255),b
  3499  00093C                     l4128:
  3500                           
  3501                           ; BSR set to: 0
  3502                           ;glory.c: 398:             if (J5 == 0 && J6 == 0 && J12 == 1)
  3503  00093C  51F8               	movf	_J5& (0+255),w,b
  3504  00093E  11F9               	iorwf	(_J5+1)& (0+255),w,b
  3505  000940  A4D8               	btfss	status,2,c
  3506  000942  EFA5  F004         	goto	u5571
  3507  000946  EFA7  F004         	goto	u5570
  3508  00094A                     u5571:
  3509  00094A  EFBD  F004         	goto	l4136
  3510  00094E                     u5570:
  3511  00094E                     
  3512                           ; BSR set to: 0
  3513  00094E  51F6               	movf	_J6& (0+255),w,b
  3514  000950  11F7               	iorwf	(_J6+1)& (0+255),w,b
  3515  000952  A4D8               	btfss	status,2,c
  3516  000954  EFAE  F004         	goto	u5581
  3517  000958  EFB0  F004         	goto	u5580
  3518  00095C                     u5581:
  3519  00095C  EFBD  F004         	goto	l4136
  3520  000960                     u5580:
  3521  000960                     
  3522                           ; BSR set to: 0
  3523  000960  05F2               	decf	_J12& (0+255),w,b
  3524  000962  11F3               	iorwf	(_J12+1)& (0+255),w,b
  3525  000964  A4D8               	btfss	status,2,c
  3526  000966  EFB7  F004         	goto	u5591
  3527  00096A  EFB9  F004         	goto	u5590
  3528  00096E                     u5591:
  3529  00096E  EFBD  F004         	goto	l4136
  3530  000972                     u5590:
  3531  000972                     
  3532                           ; BSR set to: 0
  3533                           ;glory.c: 399:                 ValorBagStatus = 5;
  3534  000972  0E00               	movlw	0
  3535  000974  6FE2               	movwf	(_ValorBagStatus+1)& (0+255),b
  3536  000976  0E05               	movlw	5
  3537  000978  6FE1               	movwf	_ValorBagStatus& (0+255),b
  3538  00097A                     l4136:
  3539                           
  3540                           ; BSR set to: 0
  3541                           ;glory.c: 400:             if (J5 == 0 && J6 == 0 && J12 == 0)
  3542  00097A  51F8               	movf	_J5& (0+255),w,b
  3543  00097C  11F9               	iorwf	(_J5+1)& (0+255),w,b
  3544  00097E  A4D8               	btfss	status,2,c
  3545  000980  EFC4  F004         	goto	u5601
  3546  000984  EFC6  F004         	goto	u5600
  3547  000988                     u5601:
  3548  000988  EFDC  F004         	goto	l4144
  3549  00098C                     u5600:
  3550  00098C                     
  3551                           ; BSR set to: 0
  3552  00098C  51F6               	movf	_J6& (0+255),w,b
  3553  00098E  11F7               	iorwf	(_J6+1)& (0+255),w,b
  3554  000990  A4D8               	btfss	status,2,c
  3555  000992  EFCD  F004         	goto	u5611
  3556  000996  EFCF  F004         	goto	u5610
  3557  00099A                     u5611:
  3558  00099A  EFDC  F004         	goto	l4144
  3559  00099E                     u5610:
  3560  00099E                     
  3561                           ; BSR set to: 0
  3562  00099E  51F2               	movf	_J12& (0+255),w,b
  3563  0009A0  11F3               	iorwf	(_J12+1)& (0+255),w,b
  3564  0009A2  A4D8               	btfss	status,2,c
  3565  0009A4  EFD6  F004         	goto	u5621
  3566  0009A8  EFD8  F004         	goto	u5620
  3567  0009AC                     u5621:
  3568  0009AC  EFDC  F004         	goto	l4144
  3569  0009B0                     u5620:
  3570  0009B0                     
  3571                           ; BSR set to: 0
  3572                           ;glory.c: 401:                 ValorBagStatus = 6;
  3573  0009B0  0E00               	movlw	0
  3574  0009B2  6FE2               	movwf	(_ValorBagStatus+1)& (0+255),b
  3575  0009B4  0E06               	movlw	6
  3576  0009B6  6FE1               	movwf	_ValorBagStatus& (0+255),b
  3577  0009B8                     l4144:
  3578                           
  3579                           ; BSR set to: 0
  3580                           ;glory.c: 402:             if (J5 == 0 && J6 == 1 && J12 == 0)
  3581  0009B8  51F8               	movf	_J5& (0+255),w,b
  3582  0009BA  11F9               	iorwf	(_J5+1)& (0+255),w,b
  3583  0009BC  A4D8               	btfss	status,2,c
  3584  0009BE  EFE3  F004         	goto	u5631
  3585  0009C2  EFE5  F004         	goto	u5630
  3586  0009C6                     u5631:
  3587  0009C6  EFFB  F004         	goto	l4152
  3588  0009CA                     u5630:
  3589  0009CA                     
  3590                           ; BSR set to: 0
  3591  0009CA  05F6               	decf	_J6& (0+255),w,b
  3592  0009CC  11F7               	iorwf	(_J6+1)& (0+255),w,b
  3593  0009CE  A4D8               	btfss	status,2,c
  3594  0009D0  EFEC  F004         	goto	u5641
  3595  0009D4  EFEE  F004         	goto	u5640
  3596  0009D8                     u5641:
  3597  0009D8  EFFB  F004         	goto	l4152
  3598  0009DC                     u5640:
  3599  0009DC                     
  3600                           ; BSR set to: 0
  3601  0009DC  51F2               	movf	_J12& (0+255),w,b
  3602  0009DE  11F3               	iorwf	(_J12+1)& (0+255),w,b
  3603  0009E0  A4D8               	btfss	status,2,c
  3604  0009E2  EFF5  F004         	goto	u5651
  3605  0009E6  EFF7  F004         	goto	u5650
  3606  0009EA                     u5651:
  3607  0009EA  EFFB  F004         	goto	l4152
  3608  0009EE                     u5650:
  3609  0009EE                     
  3610                           ; BSR set to: 0
  3611                           ;glory.c: 403:                 ValorBagStatus = 4;
  3612  0009EE  0E00               	movlw	0
  3613  0009F0  6FE2               	movwf	(_ValorBagStatus+1)& (0+255),b
  3614  0009F2  0E04               	movlw	4
  3615  0009F4  6FE1               	movwf	_ValorBagStatus& (0+255),b
  3616  0009F6                     l4152:
  3617                           
  3618                           ; BSR set to: 0
  3619                           ;glory.c: 404:             if (J5 == 1 && J6 == 0 && J12 == 0)
  3620  0009F6  05F8               	decf	_J5& (0+255),w,b
  3621  0009F8  11F9               	iorwf	(_J5+1)& (0+255),w,b
  3622  0009FA  A4D8               	btfss	status,2,c
  3623  0009FC  EF02  F005         	goto	u5661
  3624  000A00  EF04  F005         	goto	u5660
  3625  000A04                     u5661:
  3626  000A04  EF1A  F005         	goto	l4160
  3627  000A08                     u5660:
  3628  000A08                     
  3629                           ; BSR set to: 0
  3630  000A08  51F6               	movf	_J6& (0+255),w,b
  3631  000A0A  11F7               	iorwf	(_J6+1)& (0+255),w,b
  3632  000A0C  A4D8               	btfss	status,2,c
  3633  000A0E  EF0B  F005         	goto	u5671
  3634  000A12  EF0D  F005         	goto	u5670
  3635  000A16                     u5671:
  3636  000A16  EF1A  F005         	goto	l4160
  3637  000A1A                     u5670:
  3638  000A1A                     
  3639                           ; BSR set to: 0
  3640  000A1A  51F2               	movf	_J12& (0+255),w,b
  3641  000A1C  11F3               	iorwf	(_J12+1)& (0+255),w,b
  3642  000A1E  A4D8               	btfss	status,2,c
  3643  000A20  EF14  F005         	goto	u5681
  3644  000A24  EF16  F005         	goto	u5680
  3645  000A28                     u5681:
  3646  000A28  EF1A  F005         	goto	l4160
  3647  000A2C                     u5680:
  3648  000A2C                     
  3649                           ; BSR set to: 0
  3650                           ;glory.c: 405:                 ValorBagStatus = 1;
  3651  000A2C  0E00               	movlw	0
  3652  000A2E  6FE2               	movwf	(_ValorBagStatus+1)& (0+255),b
  3653  000A30  0E01               	movlw	1
  3654  000A32  6FE1               	movwf	_ValorBagStatus& (0+255),b
  3655  000A34                     l4160:
  3656                           
  3657                           ; BSR set to: 0
  3658                           ;glory.c: 406:             if (J5 == 1 && J6 == 0 && J12 == 1)
  3659  000A34  05F8               	decf	_J5& (0+255),w,b
  3660  000A36  11F9               	iorwf	(_J5+1)& (0+255),w,b
  3661  000A38  A4D8               	btfss	status,2,c
  3662  000A3A  EF21  F005         	goto	u5691
  3663  000A3E  EF23  F005         	goto	u5690
  3664  000A42                     u5691:
  3665  000A42  EF39  F005         	goto	l4168
  3666  000A46                     u5690:
  3667  000A46                     
  3668                           ; BSR set to: 0
  3669  000A46  51F6               	movf	_J6& (0+255),w,b
  3670  000A48  11F7               	iorwf	(_J6+1)& (0+255),w,b
  3671  000A4A  A4D8               	btfss	status,2,c
  3672  000A4C  EF2A  F005         	goto	u5701
  3673  000A50  EF2C  F005         	goto	u5700
  3674  000A54                     u5701:
  3675  000A54  EF39  F005         	goto	l4168
  3676  000A58                     u5700:
  3677  000A58                     
  3678                           ; BSR set to: 0
  3679  000A58  05F2               	decf	_J12& (0+255),w,b
  3680  000A5A  11F3               	iorwf	(_J12+1)& (0+255),w,b
  3681  000A5C  A4D8               	btfss	status,2,c
  3682  000A5E  EF33  F005         	goto	u5711
  3683  000A62  EF35  F005         	goto	u5710
  3684  000A66                     u5711:
  3685  000A66  EF39  F005         	goto	l4168
  3686  000A6A                     u5710:
  3687  000A6A                     
  3688                           ; BSR set to: 0
  3689                           ;glory.c: 407:                 ValorBagStatus = 0;
  3690  000A6A  0E00               	movlw	0
  3691  000A6C  6FE2               	movwf	(_ValorBagStatus+1)& (0+255),b
  3692  000A6E  0E00               	movlw	0
  3693  000A70  6FE1               	movwf	_ValorBagStatus& (0+255),b
  3694  000A72                     l4168:
  3695                           
  3696                           ; BSR set to: 0
  3697                           ;glory.c: 408:             if (J5 == 1 && J6 == 1 && J12 == 0)
  3698  000A72  05F8               	decf	_J5& (0+255),w,b
  3699  000A74  11F9               	iorwf	(_J5+1)& (0+255),w,b
  3700  000A76  A4D8               	btfss	status,2,c
  3701  000A78  EF40  F005         	goto	u5721
  3702  000A7C  EF42  F005         	goto	u5720
  3703  000A80                     u5721:
  3704  000A80  EF58  F005         	goto	l4176
  3705  000A84                     u5720:
  3706  000A84                     
  3707                           ; BSR set to: 0
  3708  000A84  05F6               	decf	_J6& (0+255),w,b
  3709  000A86  11F7               	iorwf	(_J6+1)& (0+255),w,b
  3710  000A88  A4D8               	btfss	status,2,c
  3711  000A8A  EF49  F005         	goto	u5731
  3712  000A8E  EF4B  F005         	goto	u5730
  3713  000A92                     u5731:
  3714  000A92  EF58  F005         	goto	l4176
  3715  000A96                     u5730:
  3716  000A96                     
  3717                           ; BSR set to: 0
  3718  000A96  51F2               	movf	_J12& (0+255),w,b
  3719  000A98  11F3               	iorwf	(_J12+1)& (0+255),w,b
  3720  000A9A  A4D8               	btfss	status,2,c
  3721  000A9C  EF52  F005         	goto	u5741
  3722  000AA0  EF54  F005         	goto	u5740
  3723  000AA4                     u5741:
  3724  000AA4  EF58  F005         	goto	l4176
  3725  000AA8                     u5740:
  3726  000AA8                     
  3727                           ; BSR set to: 0
  3728                           ;glory.c: 409:                 ValorBagStatus = 0;
  3729  000AA8  0E00               	movlw	0
  3730  000AAA  6FE2               	movwf	(_ValorBagStatus+1)& (0+255),b
  3731  000AAC  0E00               	movlw	0
  3732  000AAE  6FE1               	movwf	_ValorBagStatus& (0+255),b
  3733  000AB0                     l4176:
  3734                           
  3735                           ; BSR set to: 0
  3736                           ;glory.c: 413:             if (ValorBag == 99)
  3737  000AB0  0E63               	movlw	99
  3738  000AB2  19FA               	xorwf	_ValorBag& (0+255),w,b
  3739  000AB4  11FB               	iorwf	(_ValorBag+1)& (0+255),w,b
  3740  000AB6  A4D8               	btfss	status,2,c
  3741  000AB8  EF60  F005         	goto	u5751
  3742  000ABC  EF62  F005         	goto	u5750
  3743  000AC0                     u5751:
  3744  000AC0  EF87  F005         	goto	l4188
  3745  000AC4                     u5750:
  3746  000AC4                     
  3747                           ; BSR set to: 0
  3748                           ;glory.c: 414:             {;glory.c: 415:                 if (J5 == 1 && J6 == 0 && J12
      +                           == 0)
  3749  000AC4  05F8               	decf	_J5& (0+255),w,b
  3750  000AC6  11F9               	iorwf	(_J5+1)& (0+255),w,b
  3751  000AC8  A4D8               	btfss	status,2,c
  3752  000ACA  EF69  F005         	goto	u5761
  3753  000ACE  EF6B  F005         	goto	u5760
  3754  000AD2                     u5761:
  3755  000AD2  EF83  F005         	goto	l4186
  3756  000AD6                     u5760:
  3757  000AD6                     
  3758                           ; BSR set to: 0
  3759  000AD6  51F6               	movf	_J6& (0+255),w,b
  3760  000AD8  11F7               	iorwf	(_J6+1)& (0+255),w,b
  3761  000ADA  A4D8               	btfss	status,2,c
  3762  000ADC  EF72  F005         	goto	u5771
  3763  000AE0  EF74  F005         	goto	u5770
  3764  000AE4                     u5771:
  3765  000AE4  EF83  F005         	goto	l4186
  3766  000AE8                     u5770:
  3767  000AE8                     
  3768                           ; BSR set to: 0
  3769  000AE8  51F2               	movf	_J12& (0+255),w,b
  3770  000AEA  11F3               	iorwf	(_J12+1)& (0+255),w,b
  3771  000AEC  A4D8               	btfss	status,2,c
  3772  000AEE  EF7B  F005         	goto	u5781
  3773  000AF2  EF7D  F005         	goto	u5780
  3774  000AF6                     u5781:
  3775  000AF6  EF83  F005         	goto	l4186
  3776  000AFA                     u5780:
  3777  000AFA                     
  3778                           ; BSR set to: 0
  3779                           ;glory.c: 416:                 {;glory.c: 417:                     ValorBag = 2;
  3780  000AFA  0E00               	movlw	0
  3781  000AFC  6FFB               	movwf	(_ValorBag+1)& (0+255),b
  3782  000AFE  0E02               	movlw	2
  3783  000B00  6FFA               	movwf	_ValorBag& (0+255),b
  3784                           
  3785                           ;glory.c: 418:                 }
  3786  000B02  EF87  F005         	goto	l4188
  3787  000B06                     l4186:
  3788                           
  3789                           ; BSR set to: 0
  3790                           ;glory.c: 420:                 {;glory.c: 421:                     ValorBag = 0;
  3791  000B06  0E00               	movlw	0
  3792  000B08  6FFB               	movwf	(_ValorBag+1)& (0+255),b
  3793  000B0A  0E00               	movlw	0
  3794  000B0C  6FFA               	movwf	_ValorBag& (0+255),b
  3795  000B0E                     l4188:
  3796                           
  3797                           ; BSR set to: 0
  3798                           ;glory.c: 424:             if (ValorBag == 0)
  3799  000B0E  51FA               	movf	_ValorBag& (0+255),w,b
  3800  000B10  11FB               	iorwf	(_ValorBag+1)& (0+255),w,b
  3801  000B12  A4D8               	btfss	status,2,c
  3802  000B14  EF8E  F005         	goto	u5791
  3803  000B18  EF90  F005         	goto	u5790
  3804  000B1C                     u5791:
  3805  000B1C  EFCB  F005         	goto	l4202
  3806  000B20                     u5790:
  3807  000B20                     
  3808                           ; BSR set to: 0
  3809                           ;glory.c: 425:             {;glory.c: 426:                 if (J5 == 1 && J6 == 1 && J12
      +                           == 1)
  3810  000B20  05F8               	decf	_J5& (0+255),w,b
  3811  000B22  11F9               	iorwf	(_J5+1)& (0+255),w,b
  3812  000B24  A4D8               	btfss	status,2,c
  3813  000B26  EF97  F005         	goto	u5801
  3814  000B2A  EF99  F005         	goto	u5800
  3815  000B2E                     u5801:
  3816  000B2E  EFCB  F005         	goto	l4202
  3817  000B32                     u5800:
  3818  000B32                     
  3819                           ; BSR set to: 0
  3820  000B32  05F6               	decf	_J6& (0+255),w,b
  3821  000B34  11F7               	iorwf	(_J6+1)& (0+255),w,b
  3822  000B36  A4D8               	btfss	status,2,c
  3823  000B38  EFA0  F005         	goto	u5811
  3824  000B3C  EFA2  F005         	goto	u5810
  3825  000B40                     u5811:
  3826  000B40  EFCB  F005         	goto	l4202
  3827  000B44                     u5810:
  3828  000B44                     
  3829                           ; BSR set to: 0
  3830  000B44  05F2               	decf	_J12& (0+255),w,b
  3831  000B46  11F3               	iorwf	(_J12+1)& (0+255),w,b
  3832  000B48  A4D8               	btfss	status,2,c
  3833  000B4A  EFA9  F005         	goto	u5821
  3834  000B4E  EFAB  F005         	goto	u5820
  3835  000B52                     u5821:
  3836  000B52  EFCB  F005         	goto	l4202
  3837  000B56                     u5820:
  3838  000B56                     
  3839                           ; BSR set to: 0
  3840                           ;glory.c: 427:                 {;glory.c: 428:                     ValorBag = 1;
  3841  000B56  0E00               	movlw	0
  3842  000B58  6FFB               	movwf	(_ValorBag+1)& (0+255),b
  3843  000B5A  0E01               	movlw	1
  3844  000B5C  6FFA               	movwf	_ValorBag& (0+255),b
  3845                           
  3846                           ;glory.c: 429:                     EstadoAprobacionBolsa = 0;
  3847  000B5E  0E00               	movlw	0
  3848  000B60  6FDE               	movwf	(_EstadoAprobacionBolsa+1)& (0+255),b
  3849  000B62  0E00               	movlw	0
  3850  000B64  6FDD               	movwf	_EstadoAprobacionBolsa& (0+255),b
  3851  000B66                     
  3852                           ; BSR set to: 0
  3853                           ;glory.c: 430:                     if (StartUp == 0)
  3854  000B66  0101               	movlb	1	; () banked
  3855  000B68  51F3               	movf	_StartUp& (0+255),w,b
  3856  000B6A  11F4               	iorwf	(_StartUp+1)& (0+255),w,b
  3857  000B6C  A4D8               	btfss	status,2,c
  3858  000B6E  EFBB  F005         	goto	u5831
  3859  000B72  EFBD  F005         	goto	u5830
  3860  000B76                     u5831:
  3861  000B76  EFCB  F005         	goto	l4202
  3862  000B7A                     u5830:
  3863  000B7A                     
  3864                           ; BSR set to: 1
  3865                           ;glory.c: 431:                     {;glory.c: 432:                         USART_EnviaMs
      +                          g("BAG REMOVED");
  3866  000B7A  0E8F               	movlw	low STR_10
  3867  000B7C  0100               	movlb	0	; () banked
  3868  000B7E  6F80               	movwf	USART_EnviaMsg@msgout& (0+255),b
  3869  000B80  0E7F               	movlw	high STR_10
  3870  000B82  6F81               	movwf	(USART_EnviaMsg@msgout+1)& (0+255),b
  3871  000B84  EC0E  F01A         	call	_USART_EnviaMsg	;wreg free
  3872                           
  3873                           ;glory.c: 433:                         USART_EnviaMsg(CRLF);
  3874  000B88  0EFC               	movlw	low _CRLF
  3875  000B8A  0100               	movlb	0	; () banked
  3876  000B8C  6F80               	movwf	USART_EnviaMsg@msgout& (0+255),b
  3877  000B8E  0E00               	movlw	high _CRLF
  3878  000B90  6F81               	movwf	(USART_EnviaMsg@msgout+1)& (0+255),b
  3879  000B92  EC0E  F01A         	call	_USART_EnviaMsg	;wreg free
  3880  000B96                     l4202:
  3881                           
  3882                           ;glory.c: 437:             if (ValorBag == 1)
  3883  000B96  0100               	movlb	0	; () banked
  3884  000B98  05FA               	decf	_ValorBag& (0+255),w,b
  3885  000B9A  11FB               	iorwf	(_ValorBag+1)& (0+255),w,b
  3886  000B9C  A4D8               	btfss	status,2,c
  3887  000B9E  EFD3  F005         	goto	u5841
  3888  000BA2  EFD5  F005         	goto	u5840
  3889  000BA6                     u5841:
  3890  000BA6  EF29  F006         	goto	l4226
  3891  000BAA                     u5840:
  3892  000BAA                     
  3893                           ; BSR set to: 0
  3894                           ;glory.c: 438:             {;glory.c: 439:                 if (J5 == 1 && J6 == 1 && J12
      +                           == 1)
  3895  000BAA  05F8               	decf	_J5& (0+255),w,b
  3896  000BAC  11F9               	iorwf	(_J5+1)& (0+255),w,b
  3897  000BAE  A4D8               	btfss	status,2,c
  3898  000BB0  EFDC  F005         	goto	u5851
  3899  000BB4  EFDE  F005         	goto	u5850
  3900  000BB8                     u5851:
  3901  000BB8  EFF4  F005         	goto	l4212
  3902  000BBC                     u5850:
  3903  000BBC                     
  3904                           ; BSR set to: 0
  3905  000BBC  05F6               	decf	_J6& (0+255),w,b
  3906  000BBE  11F7               	iorwf	(_J6+1)& (0+255),w,b
  3907  000BC0  A4D8               	btfss	status,2,c
  3908  000BC2  EFE5  F005         	goto	u5861
  3909  000BC6  EFE7  F005         	goto	u5860
  3910  000BCA                     u5861:
  3911  000BCA  EFF4  F005         	goto	l4212
  3912  000BCE                     u5860:
  3913  000BCE                     
  3914                           ; BSR set to: 0
  3915  000BCE  05F2               	decf	_J12& (0+255),w,b
  3916  000BD0  11F3               	iorwf	(_J12+1)& (0+255),w,b
  3917  000BD2  A4D8               	btfss	status,2,c
  3918  000BD4  EFEE  F005         	goto	u5871
  3919  000BD8  EFF0  F005         	goto	u5870
  3920  000BDC                     u5871:
  3921  000BDC  EFF4  F005         	goto	l4212
  3922  000BE0                     u5870:
  3923  000BE0                     
  3924                           ; BSR set to: 0
  3925                           ;glory.c: 440:                     ValorBag = 1;
  3926  000BE0  0E00               	movlw	0
  3927  000BE2  6FFB               	movwf	(_ValorBag+1)& (0+255),b
  3928  000BE4  0E01               	movlw	1
  3929  000BE6  6FFA               	movwf	_ValorBag& (0+255),b
  3930  000BE8                     l4212:
  3931                           
  3932                           ; BSR set to: 0
  3933                           ;glory.c: 441:                 if (J6 == 0 && J12 == 1)
  3934  000BE8  51F6               	movf	_J6& (0+255),w,b
  3935  000BEA  11F7               	iorwf	(_J6+1)& (0+255),w,b
  3936  000BEC  A4D8               	btfss	status,2,c
  3937  000BEE  EFFB  F005         	goto	u5881
  3938  000BF2  EFFD  F005         	goto	u5880
  3939  000BF6                     u5881:
  3940  000BF6  EF0A  F006         	goto	l4218
  3941  000BFA                     u5880:
  3942  000BFA                     
  3943                           ; BSR set to: 0
  3944  000BFA  05F2               	decf	_J12& (0+255),w,b
  3945  000BFC  11F3               	iorwf	(_J12+1)& (0+255),w,b
  3946  000BFE  A4D8               	btfss	status,2,c
  3947  000C00  EF04  F006         	goto	u5891
  3948  000C04  EF06  F006         	goto	u5890
  3949  000C08                     u5891:
  3950  000C08  EF0A  F006         	goto	l4218
  3951  000C0C                     u5890:
  3952  000C0C                     
  3953                           ; BSR set to: 0
  3954                           ;glory.c: 442:                 {;glory.c: 443:                     ValorBag = 6;
  3955  000C0C  0E00               	movlw	0
  3956  000C0E  6FFB               	movwf	(_ValorBag+1)& (0+255),b
  3957  000C10  0E06               	movlw	6
  3958  000C12  6FFA               	movwf	_ValorBag& (0+255),b
  3959  000C14                     l4218:
  3960                           
  3961                           ; BSR set to: 0
  3962                           ;glory.c: 445:                 if (J5 == 1 && J6 == 1 && J12 == 0)
  3963  000C14  05F8               	decf	_J5& (0+255),w,b
  3964  000C16  11F9               	iorwf	(_J5+1)& (0+255),w,b
  3965  000C18  A4D8               	btfss	status,2,c
  3966  000C1A  EF11  F006         	goto	u5901
  3967  000C1E  EF13  F006         	goto	u5900
  3968  000C22                     u5901:
  3969  000C22  EF29  F006         	goto	l4226
  3970  000C26                     u5900:
  3971  000C26                     
  3972                           ; BSR set to: 0
  3973  000C26  05F6               	decf	_J6& (0+255),w,b
  3974  000C28  11F7               	iorwf	(_J6+1)& (0+255),w,b
  3975  000C2A  A4D8               	btfss	status,2,c
  3976  000C2C  EF1A  F006         	goto	u5911
  3977  000C30  EF1C  F006         	goto	u5910
  3978  000C34                     u5911:
  3979  000C34  EF29  F006         	goto	l4226
  3980  000C38                     u5910:
  3981  000C38                     
  3982                           ; BSR set to: 0
  3983  000C38  51F2               	movf	_J12& (0+255),w,b
  3984  000C3A  11F3               	iorwf	(_J12+1)& (0+255),w,b
  3985  000C3C  A4D8               	btfss	status,2,c
  3986  000C3E  EF23  F006         	goto	u5921
  3987  000C42  EF25  F006         	goto	u5920
  3988  000C46                     u5921:
  3989  000C46  EF29  F006         	goto	l4226
  3990  000C4A                     u5920:
  3991  000C4A                     
  3992                           ; BSR set to: 0
  3993                           ;glory.c: 446:                     ValorBag = 0;
  3994  000C4A  0E00               	movlw	0
  3995  000C4C  6FFB               	movwf	(_ValorBag+1)& (0+255),b
  3996  000C4E  0E00               	movlw	0
  3997  000C50  6FFA               	movwf	_ValorBag& (0+255),b
  3998  000C52                     l4226:
  3999                           
  4000                           ; BSR set to: 0
  4001                           ;glory.c: 449:             if (ValorBag == 6)
  4002  000C52  0E06               	movlw	6
  4003  000C54  19FA               	xorwf	_ValorBag& (0+255),w,b
  4004  000C56  11FB               	iorwf	(_ValorBag+1)& (0+255),w,b
  4005  000C58  A4D8               	btfss	status,2,c
  4006  000C5A  EF31  F006         	goto	u5931
  4007  000C5E  EF33  F006         	goto	u5930
  4008  000C62                     u5931:
  4009  000C62  EFE0  F006         	goto	l4274
  4010  000C66                     u5930:
  4011  000C66                     
  4012                           ; BSR set to: 0
  4013                           ;glory.c: 450:             {;glory.c: 451:                 if (J5 == 1 && J6 == 0 && J12
      +                           == 0)
  4014  000C66  05F8               	decf	_J5& (0+255),w,b
  4015  000C68  11F9               	iorwf	(_J5+1)& (0+255),w,b
  4016  000C6A  A4D8               	btfss	status,2,c
  4017  000C6C  EF3A  F006         	goto	u5941
  4018  000C70  EF3C  F006         	goto	u5940
  4019  000C74                     u5941:
  4020  000C74  EF5F  F006         	goto	l4240
  4021  000C78                     u5940:
  4022  000C78                     
  4023                           ; BSR set to: 0
  4024  000C78  51F6               	movf	_J6& (0+255),w,b
  4025  000C7A  11F7               	iorwf	(_J6+1)& (0+255),w,b
  4026  000C7C  A4D8               	btfss	status,2,c
  4027  000C7E  EF43  F006         	goto	u5951
  4028  000C82  EF45  F006         	goto	u5950
  4029  000C86                     u5951:
  4030  000C86  EF5F  F006         	goto	l4240
  4031  000C8A                     u5950:
  4032  000C8A                     
  4033                           ; BSR set to: 0
  4034  000C8A  51F2               	movf	_J12& (0+255),w,b
  4035  000C8C  11F3               	iorwf	(_J12+1)& (0+255),w,b
  4036  000C8E  A4D8               	btfss	status,2,c
  4037  000C90  EF4C  F006         	goto	u5961
  4038  000C94  EF4E  F006         	goto	u5960
  4039  000C98                     u5961:
  4040  000C98  EF5F  F006         	goto	l4240
  4041  000C9C                     u5960:
  4042  000C9C                     
  4043                           ; BSR set to: 0
  4044                           ;glory.c: 452:                 {;glory.c: 453:                     ValorBag = 2;
  4045  000C9C  0E00               	movlw	0
  4046  000C9E  6FFB               	movwf	(_ValorBag+1)& (0+255),b
  4047  000CA0  0E02               	movlw	2
  4048  000CA2  6FFA               	movwf	_ValorBag& (0+255),b
  4049  000CA4                     
  4050                           ; BSR set to: 0
  4051                           ;glory.c: 454:                     USART_EnviaMsg("BAG INPLACE");
  4052  000CA4  0E9B               	movlw	low STR_11
  4053  000CA6  6F80               	movwf	USART_EnviaMsg@msgout& (0+255),b
  4054  000CA8  0E7F               	movlw	high STR_11
  4055  000CAA  6F81               	movwf	(USART_EnviaMsg@msgout+1)& (0+255),b
  4056  000CAC  EC0E  F01A         	call	_USART_EnviaMsg	;wreg free
  4057  000CB0                     
  4058                           ;glory.c: 455:                     USART_EnviaMsg(CRLF);
  4059  000CB0  0EFC               	movlw	low _CRLF
  4060  000CB2  0100               	movlb	0	; () banked
  4061  000CB4  6F80               	movwf	USART_EnviaMsg@msgout& (0+255),b
  4062  000CB6  0E00               	movlw	high _CRLF
  4063  000CB8  6F81               	movwf	(USART_EnviaMsg@msgout+1)& (0+255),b
  4064  000CBA  EC0E  F01A         	call	_USART_EnviaMsg	;wreg free
  4065  000CBE                     l4240:
  4066                           
  4067                           ;glory.c: 457:                     if (J6 == 0 && J12 == 1)
  4068  000CBE  0100               	movlb	0	; () banked
  4069  000CC0  51F6               	movf	_J6& (0+255),w,b
  4070  000CC2  11F7               	iorwf	(_J6+1)& (0+255),w,b
  4071  000CC4  A4D8               	btfss	status,2,c
  4072  000CC6  EF67  F006         	goto	u5971
  4073  000CCA  EF69  F006         	goto	u5970
  4074  000CCE                     u5971:
  4075  000CCE  EF76  F006         	goto	l4246
  4076  000CD2                     u5970:
  4077  000CD2                     
  4078                           ; BSR set to: 0
  4079  000CD2  05F2               	decf	_J12& (0+255),w,b
  4080  000CD4  11F3               	iorwf	(_J12+1)& (0+255),w,b
  4081  000CD6  A4D8               	btfss	status,2,c
  4082  000CD8  EF70  F006         	goto	u5981
  4083  000CDC  EF72  F006         	goto	u5980
  4084  000CE0                     u5981:
  4085  000CE0  EF76  F006         	goto	l4246
  4086  000CE4                     u5980:
  4087  000CE4                     
  4088                           ; BSR set to: 0
  4089                           ;glory.c: 458:                     ValorBag = 6;
  4090  000CE4  0E00               	movlw	0
  4091  000CE6  6FFB               	movwf	(_ValorBag+1)& (0+255),b
  4092  000CE8  0E06               	movlw	6
  4093  000CEA  6FFA               	movwf	_ValorBag& (0+255),b
  4094  000CEC                     l4246:
  4095                           
  4096                           ; BSR set to: 0
  4097                           ;glory.c: 459:                 if (J5 == 0 && J6 == 1 && J12 == 1)
  4098  000CEC  51F8               	movf	_J5& (0+255),w,b
  4099  000CEE  11F9               	iorwf	(_J5+1)& (0+255),w,b
  4100  000CF0  A4D8               	btfss	status,2,c
  4101  000CF2  EF7D  F006         	goto	u5991
  4102  000CF6  EF7F  F006         	goto	u5990
  4103  000CFA                     u5991:
  4104  000CFA  EF95  F006         	goto	l4254
  4105  000CFE                     u5990:
  4106  000CFE                     
  4107                           ; BSR set to: 0
  4108  000CFE  05F6               	decf	_J6& (0+255),w,b
  4109  000D00  11F7               	iorwf	(_J6+1)& (0+255),w,b
  4110  000D02  A4D8               	btfss	status,2,c
  4111  000D04  EF86  F006         	goto	u6001
  4112  000D08  EF88  F006         	goto	u6000
  4113  000D0C                     u6001:
  4114  000D0C  EF95  F006         	goto	l4254
  4115  000D10                     u6000:
  4116  000D10                     
  4117                           ; BSR set to: 0
  4118  000D10  05F2               	decf	_J12& (0+255),w,b
  4119  000D12  11F3               	iorwf	(_J12+1)& (0+255),w,b
  4120  000D14  A4D8               	btfss	status,2,c
  4121  000D16  EF8F  F006         	goto	u6011
  4122  000D1A  EF91  F006         	goto	u6010
  4123  000D1E                     u6011:
  4124  000D1E  EF95  F006         	goto	l4254
  4125  000D22                     u6010:
  4126  000D22                     
  4127                           ; BSR set to: 0
  4128                           ;glory.c: 460:                     ValorBag = 6;
  4129  000D22  0E00               	movlw	0
  4130  000D24  6FFB               	movwf	(_ValorBag+1)& (0+255),b
  4131  000D26  0E06               	movlw	6
  4132  000D28  6FFA               	movwf	_ValorBag& (0+255),b
  4133  000D2A                     l4254:
  4134                           
  4135                           ; BSR set to: 0
  4136                           ;glory.c: 461:                 if (J5 == 1 && J6 == 1 && J12 == 1)
  4137  000D2A  05F8               	decf	_J5& (0+255),w,b
  4138  000D2C  11F9               	iorwf	(_J5+1)& (0+255),w,b
  4139  000D2E  A4D8               	btfss	status,2,c
  4140  000D30  EF9C  F006         	goto	u6021
  4141  000D34  EF9E  F006         	goto	u6020
  4142  000D38                     u6021:
  4143  000D38  EFB4  F006         	goto	l4262
  4144  000D3C                     u6020:
  4145  000D3C                     
  4146                           ; BSR set to: 0
  4147  000D3C  05F6               	decf	_J6& (0+255),w,b
  4148  000D3E  11F7               	iorwf	(_J6+1)& (0+255),w,b
  4149  000D40  A4D8               	btfss	status,2,c
  4150  000D42  EFA5  F006         	goto	u6031
  4151  000D46  EFA7  F006         	goto	u6030
  4152  000D4A                     u6031:
  4153  000D4A  EFB4  F006         	goto	l4262
  4154  000D4E                     u6030:
  4155  000D4E                     
  4156                           ; BSR set to: 0
  4157  000D4E  05F2               	decf	_J12& (0+255),w,b
  4158  000D50  11F3               	iorwf	(_J12+1)& (0+255),w,b
  4159  000D52  A4D8               	btfss	status,2,c
  4160  000D54  EFAE  F006         	goto	u6041
  4161  000D58  EFB0  F006         	goto	u6040
  4162  000D5C                     u6041:
  4163  000D5C  EFB4  F006         	goto	l4262
  4164  000D60                     u6040:
  4165  000D60                     
  4166                           ; BSR set to: 0
  4167                           ;glory.c: 462:                     ValorBag = 1;
  4168  000D60  0E00               	movlw	0
  4169  000D62  6FFB               	movwf	(_ValorBag+1)& (0+255),b
  4170  000D64  0E01               	movlw	1
  4171  000D66  6FFA               	movwf	_ValorBag& (0+255),b
  4172  000D68                     l4262:
  4173                           
  4174                           ; BSR set to: 0
  4175                           ;glory.c: 463:                 if (J5 == 0 && J6 == 0 && J12 == 0)
  4176  000D68  51F8               	movf	_J5& (0+255),w,b
  4177  000D6A  11F9               	iorwf	(_J5+1)& (0+255),w,b
  4178  000D6C  A4D8               	btfss	status,2,c
  4179  000D6E  EFBB  F006         	goto	u6051
  4180  000D72  EFBD  F006         	goto	u6050
  4181  000D76                     u6051:
  4182  000D76  EFE0  F006         	goto	l4274
  4183  000D7A                     u6050:
  4184  000D7A                     
  4185                           ; BSR set to: 0
  4186  000D7A  51F6               	movf	_J6& (0+255),w,b
  4187  000D7C  11F7               	iorwf	(_J6+1)& (0+255),w,b
  4188  000D7E  A4D8               	btfss	status,2,c
  4189  000D80  EFC4  F006         	goto	u6061
  4190  000D84  EFC6  F006         	goto	u6060
  4191  000D88                     u6061:
  4192  000D88  EFE0  F006         	goto	l4274
  4193  000D8C                     u6060:
  4194  000D8C                     
  4195                           ; BSR set to: 0
  4196  000D8C  51F2               	movf	_J12& (0+255),w,b
  4197  000D8E  11F3               	iorwf	(_J12+1)& (0+255),w,b
  4198  000D90  A4D8               	btfss	status,2,c
  4199  000D92  EFCD  F006         	goto	u6071
  4200  000D96  EFCF  F006         	goto	u6070
  4201  000D9A                     u6071:
  4202  000D9A  EFE0  F006         	goto	l4274
  4203  000D9E                     u6070:
  4204  000D9E                     
  4205                           ; BSR set to: 0
  4206                           ;glory.c: 464:                 {;glory.c: 465:                     ValorBag = 0;
  4207  000D9E  0E00               	movlw	0
  4208  000DA0  6FFB               	movwf	(_ValorBag+1)& (0+255),b
  4209  000DA2  0E00               	movlw	0
  4210  000DA4  6FFA               	movwf	_ValorBag& (0+255),b
  4211  000DA6                     
  4212                           ; BSR set to: 0
  4213                           ;glory.c: 466:                     USART_EnviaMsg("CRITICAL : BAG PLACED CLOSED");
  4214  000DA6  0E97               	movlw	low STR_12
  4215  000DA8  6F80               	movwf	USART_EnviaMsg@msgout& (0+255),b
  4216  000DAA  0E7E               	movlw	high STR_12
  4217  000DAC  6F81               	movwf	(USART_EnviaMsg@msgout+1)& (0+255),b
  4218  000DAE  EC0E  F01A         	call	_USART_EnviaMsg	;wreg free
  4219  000DB2                     
  4220                           ;glory.c: 467:                     USART_EnviaMsg(CRLF);
  4221  000DB2  0EFC               	movlw	low _CRLF
  4222  000DB4  0100               	movlb	0	; () banked
  4223  000DB6  6F80               	movwf	USART_EnviaMsg@msgout& (0+255),b
  4224  000DB8  0E00               	movlw	high _CRLF
  4225  000DBA  6F81               	movwf	(USART_EnviaMsg@msgout+1)& (0+255),b
  4226  000DBC  EC0E  F01A         	call	_USART_EnviaMsg	;wreg free
  4227  000DC0                     l4274:
  4228                           
  4229                           ;glory.c: 471:             if (ValorBag == 2)
  4230  000DC0  0E02               	movlw	2
  4231  000DC2  0100               	movlb	0	; () banked
  4232  000DC4  19FA               	xorwf	_ValorBag& (0+255),w,b
  4233  000DC6  11FB               	iorwf	(_ValorBag+1)& (0+255),w,b
  4234  000DC8  A4D8               	btfss	status,2,c
  4235  000DCA  EFE9  F006         	goto	u6081
  4236  000DCE  EFEB  F006         	goto	u6080
  4237  000DD2                     u6081:
  4238  000DD2  EF5E  F007         	goto	l4308
  4239  000DD6                     u6080:
  4240  000DD6                     
  4241                           ; BSR set to: 0
  4242                           ;glory.c: 472:             {;glory.c: 473:                 if (J5 == 0 && J6 == 0 && J12
      +                           == 0)
  4243  000DD6  51F8               	movf	_J5& (0+255),w,b
  4244  000DD8  11F9               	iorwf	(_J5+1)& (0+255),w,b
  4245  000DDA  A4D8               	btfss	status,2,c
  4246  000DDC  EFF2  F006         	goto	u6091
  4247  000DE0  EFF4  F006         	goto	u6090
  4248  000DE4                     u6091:
  4249  000DE4  EF0A  F007         	goto	l4284
  4250  000DE8                     u6090:
  4251  000DE8                     
  4252                           ; BSR set to: 0
  4253  000DE8  51F6               	movf	_J6& (0+255),w,b
  4254  000DEA  11F7               	iorwf	(_J6+1)& (0+255),w,b
  4255  000DEC  A4D8               	btfss	status,2,c
  4256  000DEE  EFFB  F006         	goto	u6101
  4257  000DF2  EFFD  F006         	goto	u6100
  4258  000DF6                     u6101:
  4259  000DF6  EF0A  F007         	goto	l4284
  4260  000DFA                     u6100:
  4261  000DFA                     
  4262                           ; BSR set to: 0
  4263  000DFA  51F2               	movf	_J12& (0+255),w,b
  4264  000DFC  11F3               	iorwf	(_J12+1)& (0+255),w,b
  4265  000DFE  A4D8               	btfss	status,2,c
  4266  000E00  EF04  F007         	goto	u6111
  4267  000E04  EF06  F007         	goto	u6110
  4268  000E08                     u6111:
  4269  000E08  EF0A  F007         	goto	l4284
  4270  000E0C                     u6110:
  4271  000E0C                     
  4272                           ; BSR set to: 0
  4273                           ;glory.c: 474:                     ValorBag = 4;
  4274  000E0C  0E00               	movlw	0
  4275  000E0E  6FFB               	movwf	(_ValorBag+1)& (0+255),b
  4276  000E10  0E04               	movlw	4
  4277  000E12  6FFA               	movwf	_ValorBag& (0+255),b
  4278  000E14                     l4284:
  4279                           
  4280                           ; BSR set to: 0
  4281                           ;glory.c: 475:                 if (J5 == 1 && J6 == 0 && J12 == 0)
  4282  000E14  05F8               	decf	_J5& (0+255),w,b
  4283  000E16  11F9               	iorwf	(_J5+1)& (0+255),w,b
  4284  000E18  A4D8               	btfss	status,2,c
  4285  000E1A  EF11  F007         	goto	u6121
  4286  000E1E  EF13  F007         	goto	u6120
  4287  000E22                     u6121:
  4288  000E22  EF29  F007         	goto	l4292
  4289  000E26                     u6120:
  4290  000E26                     
  4291                           ; BSR set to: 0
  4292  000E26  51F6               	movf	_J6& (0+255),w,b
  4293  000E28  11F7               	iorwf	(_J6+1)& (0+255),w,b
  4294  000E2A  A4D8               	btfss	status,2,c
  4295  000E2C  EF1A  F007         	goto	u6131
  4296  000E30  EF1C  F007         	goto	u6130
  4297  000E34                     u6131:
  4298  000E34  EF29  F007         	goto	l4292
  4299  000E38                     u6130:
  4300  000E38                     
  4301                           ; BSR set to: 0
  4302  000E38  51F2               	movf	_J12& (0+255),w,b
  4303  000E3A  11F3               	iorwf	(_J12+1)& (0+255),w,b
  4304  000E3C  A4D8               	btfss	status,2,c
  4305  000E3E  EF23  F007         	goto	u6141
  4306  000E42  EF25  F007         	goto	u6140
  4307  000E46                     u6141:
  4308  000E46  EF29  F007         	goto	l4292
  4309  000E4A                     u6140:
  4310  000E4A                     
  4311                           ; BSR set to: 0
  4312                           ;glory.c: 476:                     ValorBag = 2;
  4313  000E4A  0E00               	movlw	0
  4314  000E4C  6FFB               	movwf	(_ValorBag+1)& (0+255),b
  4315  000E4E  0E02               	movlw	2
  4316  000E50  6FFA               	movwf	_ValorBag& (0+255),b
  4317  000E52                     l4292:
  4318                           
  4319                           ; BSR set to: 0
  4320                           ;glory.c: 477:                 if (J6 == 1)
  4321  000E52  05F6               	decf	_J6& (0+255),w,b
  4322  000E54  11F7               	iorwf	(_J6+1)& (0+255),w,b
  4323  000E56  A4D8               	btfss	status,2,c
  4324  000E58  EF30  F007         	goto	u6151
  4325  000E5C  EF32  F007         	goto	u6150
  4326  000E60                     u6151:
  4327  000E60  EF43  F007         	goto	l4300
  4328  000E64                     u6150:
  4329  000E64                     
  4330                           ; BSR set to: 0
  4331                           ;glory.c: 478:                 {;glory.c: 479:                     ValorBag = 0;
  4332  000E64  0E00               	movlw	0
  4333  000E66  6FFB               	movwf	(_ValorBag+1)& (0+255),b
  4334  000E68  0E00               	movlw	0
  4335  000E6A  6FFA               	movwf	_ValorBag& (0+255),b
  4336  000E6C                     
  4337                           ; BSR set to: 0
  4338                           ;glory.c: 480:                     USART_EnviaMsg("CRITICAL : BAG BAG_STATE_INPLACE 0x00
      +                           0x01");
  4339  000E6C  0EDB               	movlw	low STR_13
  4340  000E6E  6F80               	movwf	USART_EnviaMsg@msgout& (0+255),b
  4341  000E70  0E7D               	movlw	high STR_13
  4342  000E72  6F81               	movwf	(USART_EnviaMsg@msgout+1)& (0+255),b
  4343  000E74  EC0E  F01A         	call	_USART_EnviaMsg	;wreg free
  4344  000E78                     
  4345                           ;glory.c: 481:                     USART_EnviaMsg(CRLF);
  4346  000E78  0EFC               	movlw	low _CRLF
  4347  000E7A  0100               	movlb	0	; () banked
  4348  000E7C  6F80               	movwf	USART_EnviaMsg@msgout& (0+255),b
  4349  000E7E  0E00               	movlw	high _CRLF
  4350  000E80  6F81               	movwf	(USART_EnviaMsg@msgout+1)& (0+255),b
  4351  000E82  EC0E  F01A         	call	_USART_EnviaMsg	;wreg free
  4352  000E86                     l4300:
  4353                           
  4354                           ;glory.c: 483:                 if (J12 == 1)
  4355  000E86  0100               	movlb	0	; () banked
  4356  000E88  05F2               	decf	_J12& (0+255),w,b
  4357  000E8A  11F3               	iorwf	(_J12+1)& (0+255),w,b
  4358  000E8C  A4D8               	btfss	status,2,c
  4359  000E8E  EF4B  F007         	goto	u6161
  4360  000E92  EF4D  F007         	goto	u6160
  4361  000E96                     u6161:
  4362  000E96  EF5E  F007         	goto	l4308
  4363  000E9A                     u6160:
  4364  000E9A                     
  4365                           ; BSR set to: 0
  4366                           ;glory.c: 484:                 {;glory.c: 485:                     ValorBag = 0;
  4367  000E9A  0E00               	movlw	0
  4368  000E9C  6FFB               	movwf	(_ValorBag+1)& (0+255),b
  4369  000E9E  0E00               	movlw	0
  4370  000EA0  6FFA               	movwf	_ValorBag& (0+255),b
  4371  000EA2                     
  4372                           ; BSR set to: 0
  4373                           ;glory.c: 486:                     USART_EnviaMsg("CRITICAL : BAG BAG_UNLOCKED_OPEN 0x00
      +                           0x02");
  4374  000EA2  0E06               	movlw	low STR_14
  4375  000EA4  6F80               	movwf	USART_EnviaMsg@msgout& (0+255),b
  4376  000EA6  0E7E               	movlw	high STR_14
  4377  000EA8  6F81               	movwf	(USART_EnviaMsg@msgout+1)& (0+255),b
  4378  000EAA  EC0E  F01A         	call	_USART_EnviaMsg	;wreg free
  4379  000EAE                     
  4380                           ;glory.c: 487:                     USART_EnviaMsg(CRLF);
  4381  000EAE  0EFC               	movlw	low _CRLF
  4382  000EB0  0100               	movlb	0	; () banked
  4383  000EB2  6F80               	movwf	USART_EnviaMsg@msgout& (0+255),b
  4384  000EB4  0E00               	movlw	high _CRLF
  4385  000EB6  6F81               	movwf	(USART_EnviaMsg@msgout+1)& (0+255),b
  4386  000EB8  EC0E  F01A         	call	_USART_EnviaMsg	;wreg free
  4387  000EBC                     l4308:
  4388                           
  4389                           ;glory.c: 490:             if (ValorBag == 4)
  4390  000EBC  0E04               	movlw	4
  4391  000EBE  0100               	movlb	0	; () banked
  4392  000EC0  19FA               	xorwf	_ValorBag& (0+255),w,b
  4393  000EC2  11FB               	iorwf	(_ValorBag+1)& (0+255),w,b
  4394  000EC4  A4D8               	btfss	status,2,c
  4395  000EC6  EF67  F007         	goto	u6171
  4396  000ECA  EF69  F007         	goto	u6170
  4397  000ECE                     u6171:
  4398  000ECE  EFE5  F007         	goto	l4342
  4399  000ED2                     u6170:
  4400  000ED2                     
  4401                           ; BSR set to: 0
  4402                           ;glory.c: 491:             {;glory.c: 492:                 if (J5 == 0 && J6 == 0 && J12
      +                           == 1)
  4403  000ED2  51F8               	movf	_J5& (0+255),w,b
  4404  000ED4  11F9               	iorwf	(_J5+1)& (0+255),w,b
  4405  000ED6  A4D8               	btfss	status,2,c
  4406  000ED8  EF70  F007         	goto	u6181
  4407  000EDC  EF72  F007         	goto	u6180
  4408  000EE0                     u6181:
  4409  000EE0  EF88  F007         	goto	l4318
  4410  000EE4                     u6180:
  4411  000EE4                     
  4412                           ; BSR set to: 0
  4413  000EE4  51F6               	movf	_J6& (0+255),w,b
  4414  000EE6  11F7               	iorwf	(_J6+1)& (0+255),w,b
  4415  000EE8  A4D8               	btfss	status,2,c
  4416  000EEA  EF79  F007         	goto	u6191
  4417  000EEE  EF7B  F007         	goto	u6190
  4418  000EF2                     u6191:
  4419  000EF2  EF88  F007         	goto	l4318
  4420  000EF6                     u6190:
  4421  000EF6                     
  4422                           ; BSR set to: 0
  4423  000EF6  05F2               	decf	_J12& (0+255),w,b
  4424  000EF8  11F3               	iorwf	(_J12+1)& (0+255),w,b
  4425  000EFA  A4D8               	btfss	status,2,c
  4426  000EFC  EF82  F007         	goto	u6201
  4427  000F00  EF84  F007         	goto	u6200
  4428  000F04                     u6201:
  4429  000F04  EF88  F007         	goto	l4318
  4430  000F08                     u6200:
  4431  000F08                     
  4432                           ; BSR set to: 0
  4433                           ;glory.c: 493:                     ValorBag = 5;
  4434  000F08  0E00               	movlw	0
  4435  000F0A  6FFB               	movwf	(_ValorBag+1)& (0+255),b
  4436  000F0C  0E05               	movlw	5
  4437  000F0E  6FFA               	movwf	_ValorBag& (0+255),b
  4438  000F10                     l4318:
  4439                           
  4440                           ; BSR set to: 0
  4441                           ;glory.c: 494:                 if (J5 == 0 && J6 == 0 && J12 == 0)
  4442  000F10  51F8               	movf	_J5& (0+255),w,b
  4443  000F12  11F9               	iorwf	(_J5+1)& (0+255),w,b
  4444  000F14  A4D8               	btfss	status,2,c
  4445  000F16  EF8F  F007         	goto	u6211
  4446  000F1A  EF91  F007         	goto	u6210
  4447  000F1E                     u6211:
  4448  000F1E  EFA7  F007         	goto	l4326
  4449  000F22                     u6210:
  4450  000F22                     
  4451                           ; BSR set to: 0
  4452  000F22  51F6               	movf	_J6& (0+255),w,b
  4453  000F24  11F7               	iorwf	(_J6+1)& (0+255),w,b
  4454  000F26  A4D8               	btfss	status,2,c
  4455  000F28  EF98  F007         	goto	u6221
  4456  000F2C  EF9A  F007         	goto	u6220
  4457  000F30                     u6221:
  4458  000F30  EFA7  F007         	goto	l4326
  4459  000F34                     u6220:
  4460  000F34                     
  4461                           ; BSR set to: 0
  4462  000F34  51F2               	movf	_J12& (0+255),w,b
  4463  000F36  11F3               	iorwf	(_J12+1)& (0+255),w,b
  4464  000F38  A4D8               	btfss	status,2,c
  4465  000F3A  EFA1  F007         	goto	u6231
  4466  000F3E  EFA3  F007         	goto	u6230
  4467  000F42                     u6231:
  4468  000F42  EFA7  F007         	goto	l4326
  4469  000F46                     u6230:
  4470  000F46                     
  4471                           ; BSR set to: 0
  4472                           ;glory.c: 495:                     ValorBag = 4;
  4473  000F46  0E00               	movlw	0
  4474  000F48  6FFB               	movwf	(_ValorBag+1)& (0+255),b
  4475  000F4A  0E04               	movlw	4
  4476  000F4C  6FFA               	movwf	_ValorBag& (0+255),b
  4477  000F4E                     l4326:
  4478                           
  4479                           ; BSR set to: 0
  4480                           ;glory.c: 496:                 if (J5 == 0 && J6 == 1 && J12 == 1)
  4481  000F4E  51F8               	movf	_J5& (0+255),w,b
  4482  000F50  11F9               	iorwf	(_J5+1)& (0+255),w,b
  4483  000F52  A4D8               	btfss	status,2,c
  4484  000F54  EFAE  F007         	goto	u6241
  4485  000F58  EFB0  F007         	goto	u6240
  4486  000F5C                     u6241:
  4487  000F5C  EFC6  F007         	goto	l4334
  4488  000F60                     u6240:
  4489  000F60                     
  4490                           ; BSR set to: 0
  4491  000F60  05F6               	decf	_J6& (0+255),w,b
  4492  000F62  11F7               	iorwf	(_J6+1)& (0+255),w,b
  4493  000F64  A4D8               	btfss	status,2,c
  4494  000F66  EFB7  F007         	goto	u6251
  4495  000F6A  EFB9  F007         	goto	u6250
  4496  000F6E                     u6251:
  4497  000F6E  EFC6  F007         	goto	l4334
  4498  000F72                     u6250:
  4499  000F72                     
  4500                           ; BSR set to: 0
  4501  000F72  05F2               	decf	_J12& (0+255),w,b
  4502  000F74  11F3               	iorwf	(_J12+1)& (0+255),w,b
  4503  000F76  A4D8               	btfss	status,2,c
  4504  000F78  EFC0  F007         	goto	u6261
  4505  000F7C  EFC2  F007         	goto	u6260
  4506  000F80                     u6261:
  4507  000F80  EFC6  F007         	goto	l4334
  4508  000F84                     u6260:
  4509  000F84                     
  4510                           ; BSR set to: 0
  4511                           ;glory.c: 497:                     ValorBag = 5;
  4512  000F84  0E00               	movlw	0
  4513  000F86  6FFB               	movwf	(_ValorBag+1)& (0+255),b
  4514  000F88  0E05               	movlw	5
  4515  000F8A  6FFA               	movwf	_ValorBag& (0+255),b
  4516  000F8C                     l4334:
  4517                           
  4518                           ; BSR set to: 0
  4519                           ;glory.c: 498:                 if (J5 == 1 && J6 == 0 && J12 == 0)
  4520  000F8C  05F8               	decf	_J5& (0+255),w,b
  4521  000F8E  11F9               	iorwf	(_J5+1)& (0+255),w,b
  4522  000F90  A4D8               	btfss	status,2,c
  4523  000F92  EFCD  F007         	goto	u6271
  4524  000F96  EFCF  F007         	goto	u6270
  4525  000F9A                     u6271:
  4526  000F9A  EFE5  F007         	goto	l4342
  4527  000F9E                     u6270:
  4528  000F9E                     
  4529                           ; BSR set to: 0
  4530  000F9E  51F6               	movf	_J6& (0+255),w,b
  4531  000FA0  11F7               	iorwf	(_J6+1)& (0+255),w,b
  4532  000FA2  A4D8               	btfss	status,2,c
  4533  000FA4  EFD6  F007         	goto	u6281
  4534  000FA8  EFD8  F007         	goto	u6280
  4535  000FAC                     u6281:
  4536  000FAC  EFE5  F007         	goto	l4342
  4537  000FB0                     u6280:
  4538  000FB0                     
  4539                           ; BSR set to: 0
  4540  000FB0  51F2               	movf	_J12& (0+255),w,b
  4541  000FB2  11F3               	iorwf	(_J12+1)& (0+255),w,b
  4542  000FB4  A4D8               	btfss	status,2,c
  4543  000FB6  EFDF  F007         	goto	u6291
  4544  000FBA  EFE1  F007         	goto	u6290
  4545  000FBE                     u6291:
  4546  000FBE  EFE5  F007         	goto	l4342
  4547  000FC2                     u6290:
  4548  000FC2                     
  4549                           ; BSR set to: 0
  4550                           ;glory.c: 499:                     ValorBag = 2;
  4551  000FC2  0E00               	movlw	0
  4552  000FC4  6FFB               	movwf	(_ValorBag+1)& (0+255),b
  4553  000FC6  0E02               	movlw	2
  4554  000FC8  6FFA               	movwf	_ValorBag& (0+255),b
  4555  000FCA                     l4342:
  4556                           
  4557                           ; BSR set to: 0
  4558                           ;glory.c: 502:             if (ValorBag == 5)
  4559  000FCA  0E05               	movlw	5
  4560  000FCC  19FA               	xorwf	_ValorBag& (0+255),w,b
  4561  000FCE  11FB               	iorwf	(_ValorBag+1)& (0+255),w,b
  4562  000FD0  A4D8               	btfss	status,2,c
  4563  000FD2  EFED  F007         	goto	u6301
  4564  000FD6  EFEF  F007         	goto	u6300
  4565  000FDA                     u6301:
  4566  000FDA  EF78  F008         	goto	l4380
  4567  000FDE                     u6300:
  4568  000FDE                     
  4569                           ; BSR set to: 0
  4570                           ;glory.c: 503:             {;glory.c: 504:                 if (J5 == 0 && J6 == 1 && J12
      +                           == 1)
  4571  000FDE  51F8               	movf	_J5& (0+255),w,b
  4572  000FE0  11F9               	iorwf	(_J5+1)& (0+255),w,b
  4573  000FE2  A4D8               	btfss	status,2,c
  4574  000FE4  EFF6  F007         	goto	u6311
  4575  000FE8  EFF8  F007         	goto	u6310
  4576  000FEC                     u6311:
  4577  000FEC  EF0E  F008         	goto	l4352
  4578  000FF0                     u6310:
  4579  000FF0                     
  4580                           ; BSR set to: 0
  4581  000FF0  05F6               	decf	_J6& (0+255),w,b
  4582  000FF2  11F7               	iorwf	(_J6+1)& (0+255),w,b
  4583  000FF4  A4D8               	btfss	status,2,c
  4584  000FF6  EFFF  F007         	goto	u6321
  4585  000FFA  EF01  F008         	goto	u6320
  4586  000FFE                     u6321:
  4587  000FFE  EF0E  F008         	goto	l4352
  4588  001002                     u6320:
  4589  001002                     
  4590                           ; BSR set to: 0
  4591  001002  05F2               	decf	_J12& (0+255),w,b
  4592  001004  11F3               	iorwf	(_J12+1)& (0+255),w,b
  4593  001006  A4D8               	btfss	status,2,c
  4594  001008  EF08  F008         	goto	u6331
  4595  00100C  EF0A  F008         	goto	u6330
  4596  001010                     u6331:
  4597  001010  EF0E  F008         	goto	l4352
  4598  001014                     u6330:
  4599  001014                     
  4600                           ; BSR set to: 0
  4601                           ;glory.c: 505:                     ValorBag = 5;
  4602  001014  0E00               	movlw	0
  4603  001016  6FFB               	movwf	(_ValorBag+1)& (0+255),b
  4604  001018  0E05               	movlw	5
  4605  00101A  6FFA               	movwf	_ValorBag& (0+255),b
  4606  00101C                     l4352:
  4607                           
  4608                           ; BSR set to: 0
  4609                           ;glory.c: 506:                 if (J5 == 0 && J6 == 0 && J12 == 1)
  4610  00101C  51F8               	movf	_J5& (0+255),w,b
  4611  00101E  11F9               	iorwf	(_J5+1)& (0+255),w,b
  4612  001020  A4D8               	btfss	status,2,c
  4613  001022  EF15  F008         	goto	u6341
  4614  001026  EF17  F008         	goto	u6340
  4615  00102A                     u6341:
  4616  00102A  EF2D  F008         	goto	l4360
  4617  00102E                     u6340:
  4618  00102E                     
  4619                           ; BSR set to: 0
  4620  00102E  51F6               	movf	_J6& (0+255),w,b
  4621  001030  11F7               	iorwf	(_J6+1)& (0+255),w,b
  4622  001032  A4D8               	btfss	status,2,c
  4623  001034  EF1E  F008         	goto	u6351
  4624  001038  EF20  F008         	goto	u6350
  4625  00103C                     u6351:
  4626  00103C  EF2D  F008         	goto	l4360
  4627  001040                     u6350:
  4628  001040                     
  4629                           ; BSR set to: 0
  4630  001040  05F2               	decf	_J12& (0+255),w,b
  4631  001042  11F3               	iorwf	(_J12+1)& (0+255),w,b
  4632  001044  A4D8               	btfss	status,2,c
  4633  001046  EF27  F008         	goto	u6361
  4634  00104A  EF29  F008         	goto	u6360
  4635  00104E                     u6361:
  4636  00104E  EF2D  F008         	goto	l4360
  4637  001052                     u6360:
  4638  001052                     
  4639                           ; BSR set to: 0
  4640                           ;glory.c: 507:                     ValorBag = 5;
  4641  001052  0E00               	movlw	0
  4642  001054  6FFB               	movwf	(_ValorBag+1)& (0+255),b
  4643  001056  0E05               	movlw	5
  4644  001058  6FFA               	movwf	_ValorBag& (0+255),b
  4645  00105A                     l4360:
  4646                           
  4647                           ; BSR set to: 0
  4648                           ;glory.c: 508:                 if (J5 == 0 && J6 == 0 && J12 == 0)
  4649  00105A  51F8               	movf	_J5& (0+255),w,b
  4650  00105C  11F9               	iorwf	(_J5+1)& (0+255),w,b
  4651  00105E  A4D8               	btfss	status,2,c
  4652  001060  EF34  F008         	goto	u6371
  4653  001064  EF36  F008         	goto	u6370
  4654  001068                     u6371:
  4655  001068  EF4C  F008         	goto	l4368
  4656  00106C                     u6370:
  4657  00106C                     
  4658                           ; BSR set to: 0
  4659  00106C  51F6               	movf	_J6& (0+255),w,b
  4660  00106E  11F7               	iorwf	(_J6+1)& (0+255),w,b
  4661  001070  A4D8               	btfss	status,2,c
  4662  001072  EF3D  F008         	goto	u6381
  4663  001076  EF3F  F008         	goto	u6380
  4664  00107A                     u6381:
  4665  00107A  EF4C  F008         	goto	l4368
  4666  00107E                     u6380:
  4667  00107E                     
  4668                           ; BSR set to: 0
  4669  00107E  51F2               	movf	_J12& (0+255),w,b
  4670  001080  11F3               	iorwf	(_J12+1)& (0+255),w,b
  4671  001082  A4D8               	btfss	status,2,c
  4672  001084  EF46  F008         	goto	u6391
  4673  001088  EF48  F008         	goto	u6390
  4674  00108C                     u6391:
  4675  00108C  EF4C  F008         	goto	l4368
  4676  001090                     u6390:
  4677  001090                     
  4678                           ; BSR set to: 0
  4679                           ;glory.c: 509:                     ValorBag = 0;
  4680  001090  0E00               	movlw	0
  4681  001092  6FFB               	movwf	(_ValorBag+1)& (0+255),b
  4682  001094  0E00               	movlw	0
  4683  001096  6FFA               	movwf	_ValorBag& (0+255),b
  4684  001098                     l4368:
  4685                           
  4686                           ; BSR set to: 0
  4687                           ;glory.c: 510:                 if (J5 == 1 && J6 == 1 && J12 == 1)
  4688  001098  05F8               	decf	_J5& (0+255),w,b
  4689  00109A  11F9               	iorwf	(_J5+1)& (0+255),w,b
  4690  00109C  A4D8               	btfss	status,2,c
  4691  00109E  EF53  F008         	goto	u6401
  4692  0010A2  EF55  F008         	goto	u6400
  4693  0010A6                     u6401:
  4694  0010A6  EF78  F008         	goto	l4380
  4695  0010AA                     u6400:
  4696  0010AA                     
  4697                           ; BSR set to: 0
  4698  0010AA  05F6               	decf	_J6& (0+255),w,b
  4699  0010AC  11F7               	iorwf	(_J6+1)& (0+255),w,b
  4700  0010AE  A4D8               	btfss	status,2,c
  4701  0010B0  EF5C  F008         	goto	u6411
  4702  0010B4  EF5E  F008         	goto	u6410
  4703  0010B8                     u6411:
  4704  0010B8  EF78  F008         	goto	l4380
  4705  0010BC                     u6410:
  4706  0010BC                     
  4707                           ; BSR set to: 0
  4708  0010BC  05F2               	decf	_J12& (0+255),w,b
  4709  0010BE  11F3               	iorwf	(_J12+1)& (0+255),w,b
  4710  0010C0  A4D8               	btfss	status,2,c
  4711  0010C2  EF65  F008         	goto	u6421
  4712  0010C6  EF67  F008         	goto	u6420
  4713  0010CA                     u6421:
  4714  0010CA  EF78  F008         	goto	l4380
  4715  0010CE                     u6420:
  4716  0010CE                     
  4717                           ; BSR set to: 0
  4718                           ;glory.c: 511:                 {;glory.c: 512:                     ValorBag = 1;
  4719  0010CE  0E00               	movlw	0
  4720  0010D0  6FFB               	movwf	(_ValorBag+1)& (0+255),b
  4721  0010D2  0E01               	movlw	1
  4722  0010D4  6FFA               	movwf	_ValorBag& (0+255),b
  4723  0010D6                     
  4724                           ; BSR set to: 0
  4725                           ;glory.c: 513:                     USART_EnviaMsg("BAG REMOVED");
  4726  0010D6  0E8F               	movlw	low STR_10
  4727  0010D8  6F80               	movwf	USART_EnviaMsg@msgout& (0+255),b
  4728  0010DA  0E7F               	movlw	high STR_10
  4729  0010DC  6F81               	movwf	(USART_EnviaMsg@msgout+1)& (0+255),b
  4730  0010DE  EC0E  F01A         	call	_USART_EnviaMsg	;wreg free
  4731  0010E2                     
  4732                           ;glory.c: 514:                     USART_EnviaMsg(CRLF);
  4733  0010E2  0EFC               	movlw	low _CRLF
  4734  0010E4  0100               	movlb	0	; () banked
  4735  0010E6  6F80               	movwf	USART_EnviaMsg@msgout& (0+255),b
  4736  0010E8  0E00               	movlw	high _CRLF
  4737  0010EA  6F81               	movwf	(USART_EnviaMsg@msgout+1)& (0+255),b
  4738  0010EC  EC0E  F01A         	call	_USART_EnviaMsg	;wreg free
  4739  0010F0                     l4380:
  4740                           
  4741                           ;glory.c: 518:             if (ValorBag != 2 && (ValorStateLock == 0))
  4742  0010F0  0E02               	movlw	2
  4743  0010F2  0100               	movlb	0	; () banked
  4744  0010F4  19FA               	xorwf	_ValorBag& (0+255),w,b
  4745  0010F6  11FB               	iorwf	(_ValorBag+1)& (0+255),w,b
  4746  0010F8  B4D8               	btfsc	status,2,c
  4747  0010FA  EF81  F008         	goto	u6431
  4748  0010FE  EF83  F008         	goto	u6430
  4749  001102                     u6431:
  4750  001102  EF8E  F008         	goto	l4386
  4751  001106                     u6430:
  4752  001106                     
  4753                           ; BSR set to: 0
  4754  001106  51E5               	movf	_ValorStateLock& (0+255),w,b
  4755  001108  11E6               	iorwf	(_ValorStateLock+1)& (0+255),w,b
  4756  00110A  A4D8               	btfss	status,2,c
  4757  00110C  EF8A  F008         	goto	u6441
  4758  001110  EF8C  F008         	goto	u6440
  4759  001114                     u6441:
  4760  001114  EF8E  F008         	goto	l4386
  4761  001118                     u6440:
  4762  001118  EF06  F004         	goto	l4104
  4763  00111C                     l4386:
  4764                           
  4765                           ; BSR set to: 0
  4766                           ;glory.c: 525:             {;glory.c: 526:                 if (ValorStateLock == 1)
  4767  00111C  05E5               	decf	_ValorStateLock& (0+255),w,b
  4768  00111E  11E6               	iorwf	(_ValorStateLock+1)& (0+255),w,b
  4769  001120  A4D8               	btfss	status,2,c
  4770  001122  EF95  F008         	goto	u6451
  4771  001126  EF97  F008         	goto	u6450
  4772  00112A                     u6451:
  4773  00112A  EF1B  F004         	goto	l246
  4774  00112E                     u6450:
  4775  00112E  EF14  F004         	goto	l4108
  4776  001132  EF07  F000         	goto	start
  4777  001136                     __end_of_main:
  4778                           	callstack 0
  4779                           
  4780 ;; *************** function _USART_Init *****************
  4781 ;; Defined at:
  4782 ;;		line 551 in file "glory.c"
  4783 ;; Parameters:    Size  Location     Type
  4784 ;;  baud_rate       4   55[BANK0 ] long 
  4785 ;; Auto vars:     Size  Location     Type
  4786 ;;  temp            4   59[BANK0 ] float 
  4787 ;; Return value:  Size  Location     Type
  4788 ;;                  1    wreg      void 
  4789 ;; Registers used:
  4790 ;;		wreg, status,2, status,0, cstack
  4791 ;; Tracked objects:
  4792 ;;		On entry : 0/0
  4793 ;;		On exit  : 0/0
  4794 ;;		Unchanged: 0/0
  4795 ;; Data sizes:     COMRAM   BANK0   BANK1   BANK2   BANK3   BANK4   BANK5
  4796 ;;      Params:         0       4       0       0       0       0       0
  4797 ;;      Locals:         0       4       0       0       0       0       0
  4798 ;;      Temps:          0       0       0       0       0       0       0
  4799 ;;      Totals:         0       8       0       0       0       0       0
  4800 ;;Total ram usage:        8 bytes
  4801 ;; Hardware stack levels used: 1
  4802 ;; Hardware stack levels required when called: 10
  4803 ;; This function calls:
  4804 ;;		___fladd
  4805 ;;		___fldiv
  4806 ;;		___fltol
  4807 ;;		___xxtofl
  4808 ;; This function is called by:
  4809 ;;		_main
  4810 ;; This function uses a non-reentrant model
  4811 ;;
  4812                           
  4813                           	psect	text1
  4814  003302                     __ptext1:
  4815                           	callstack 0
  4816  003302                     _USART_Init:
  4817                           	callstack 20
  4818  003302                     
  4819                           ;glory.c: 551: void USART_Init(long baud_rate);glory.c: 552: {;glory.c: 553:     float t
      +                          emp;;glory.c: 554:     temp=(((float)(8000000/16)/(float)baud_rate)-1);
  4820  003302  C0B7  F080         	movff	USART_Init@baud_rate,___xxtofl@val
  4821  003306  C0B8  F081         	movff	USART_Init@baud_rate+1,___xxtofl@val+1
  4822  00330A  C0B9  F082         	movff	USART_Init@baud_rate+2,___xxtofl@val+2
  4823  00330E  C0BA  F083         	movff	USART_Init@baud_rate+3,___xxtofl@val+3
  4824  003312  0E01               	movlw	1
  4825  003314  EC48  F015         	call	___xxtofl
  4826  003318  C080  F092         	movff	?___xxtofl,___fldiv@a
  4827  00331C  C081  F093         	movff	?___xxtofl+1,___fldiv@a+1
  4828  003320  C082  F094         	movff	?___xxtofl+2,___fldiv@a+2
  4829  003324  C083  F095         	movff	?___xxtofl+3,___fldiv@a+3
  4830  003328  0E00               	movlw	0
  4831  00332A  0100               	movlb	0	; () banked
  4832  00332C  6F8E               	movwf	___fldiv@b& (0+255),b
  4833  00332E  0E24               	movlw	36
  4834  003330  6F8F               	movwf	(___fldiv@b+1)& (0+255),b
  4835  003332  0EF4               	movlw	244
  4836  003334  6F90               	movwf	(___fldiv@b+2)& (0+255),b
  4837  003336  0E48               	movlw	72
  4838  003338  6F91               	movwf	(___fldiv@b+3)& (0+255),b
  4839  00333A  EC0B  F011         	call	___fldiv	;wreg free
  4840  00333E  C08E  F0A7         	movff	?___fldiv,___fladd@b
  4841  003342  C08F  F0A8         	movff	?___fldiv+1,___fladd@b+1
  4842  003346  C090  F0A9         	movff	?___fldiv+2,___fladd@b+2
  4843  00334A  C091  F0AA         	movff	?___fldiv+3,___fladd@b+3
  4844  00334E  0E00               	movlw	0
  4845  003350  0100               	movlb	0	; () banked
  4846  003352  6FAB               	movwf	___fladd@a& (0+255),b
  4847  003354  0E00               	movlw	0
  4848  003356  6FAC               	movwf	(___fladd@a+1)& (0+255),b
  4849  003358  0E80               	movlw	128
  4850  00335A  6FAD               	movwf	(___fladd@a+2)& (0+255),b
  4851  00335C  0EBF               	movlw	191
  4852  00335E  6FAE               	movwf	(___fladd@a+3)& (0+255),b
  4853  003360  EC8E  F00C         	call	___fladd	;wreg free
  4854  003364  C0A7  F0BB         	movff	?___fladd,USART_Init@temp
  4855  003368  C0A8  F0BC         	movff	?___fladd+1,USART_Init@temp+1
  4856  00336C  C0A9  F0BD         	movff	?___fladd+2,USART_Init@temp+2
  4857  003370  C0AA  F0BE         	movff	?___fladd+3,USART_Init@temp+3
  4858                           
  4859                           ;glory.c: 555:     SPBRG=(int)temp;
  4860  003374  C0BB  F080         	movff	USART_Init@temp,___fltol@f1
  4861  003378  C0BC  F081         	movff	USART_Init@temp+1,___fltol@f1+1
  4862  00337C  C0BD  F082         	movff	USART_Init@temp+2,___fltol@f1+2
  4863  003380  C0BE  F083         	movff	USART_Init@temp+3,___fltol@f1+3
  4864  003384  ECEC  F016         	call	___fltol	;wreg free
  4865  003388  0100               	movlb	0	; () banked
  4866  00338A  5180               	movf	?___fltol& (0+255),w,b
  4867  00338C  6EAF               	movwf	175,c	;volatile
  4868  00338E                     
  4869                           ; BSR set to: 0
  4870                           ;glory.c: 557:     TXSTA=0x24;
  4871  00338E  0E24               	movlw	36
  4872  003390  6EAC               	movwf	172,c	;volatile
  4873  003392                     
  4874                           ; BSR set to: 0
  4875                           ;glory.c: 558:     RCSTA=0x90;
  4876  003392  0E90               	movlw	144
  4877  003394  6EAB               	movwf	171,c	;volatile
  4878  003396                     
  4879                           ; BSR set to: 0
  4880  003396  0012               	return		;funcret
  4881  003398                     __end_of_USART_Init:
  4882                           	callstack 0
  4883                           
  4884 ;; *************** function ___xxtofl *****************
  4885 ;; Defined at:
  4886 ;;		line 10 in file "/opt/microchip/xc8/v2.32/pic/sources/c99/common/xxtofl.c"
  4887 ;; Parameters:    Size  Location     Type
  4888 ;;  sign            1    wreg     unsigned char 
  4889 ;;  val             4    0[BANK0 ] long 
  4890 ;; Auto vars:     Size  Location     Type
  4891 ;;  sign            1    8[BANK0 ] unsigned char 
  4892 ;;  arg             4   10[BANK0 ] unsigned long 
  4893 ;;  exp             1    9[BANK0 ] unsigned char 
  4894 ;; Return value:  Size  Location     Type
  4895 ;;                  4    0[BANK0 ] unsigned char 
  4896 ;; Registers used:
  4897 ;;		wreg, status,2, status,0
  4898 ;; Tracked objects:
  4899 ;;		On entry : 0/0
  4900 ;;		On exit  : 0/0
  4901 ;;		Unchanged: 0/0
  4902 ;; Data sizes:     COMRAM   BANK0   BANK1   BANK2   BANK3   BANK4   BANK5
  4903 ;;      Params:         0       4       0       0       0       0       0
  4904 ;;      Locals:         0       6       0       0       0       0       0
  4905 ;;      Temps:          0       4       0       0       0       0       0
  4906 ;;      Totals:         0      14       0       0       0       0       0
  4907 ;;Total ram usage:       14 bytes
  4908 ;; Hardware stack levels used: 1
  4909 ;; Hardware stack levels required when called: 9
  4910 ;; This function calls:
  4911 ;;		Nothing
  4912 ;; This function is called by:
  4913 ;;		_USART_Init
  4914 ;; This function uses a non-reentrant model
  4915 ;;
  4916                           
  4917                           	psect	text2
  4918  002A90                     __ptext2:
  4919                           	callstack 0
  4920  002A90                     ___xxtofl:
  4921                           	callstack 20
  4922                           
  4923                           ; BSR set to: 0
  4924                           ;incstack = 0
  4925                           ;___xxtofl@sign stored from wreg
  4926  002A90  0100               	movlb	0	; () banked
  4927  002A92  6F88               	movwf	___xxtofl@sign& (0+255),b
  4928  002A94  0100               	movlb	0	; () banked
  4929  002A96  5188               	movf	___xxtofl@sign& (0+255),w,b
  4930  002A98  B4D8               	btfsc	status,2,c
  4931  002A9A  EF51  F015         	goto	u4771
  4932  002A9E  EF53  F015         	goto	u4770
  4933  002AA2                     u4771:
  4934  002AA2  EF75  F015         	goto	l1014
  4935  002AA6                     u4770:
  4936  002AA6                     
  4937                           ; BSR set to: 0
  4938  002AA6  BF83               	btfsc	(___xxtofl@val+3)& (0+255),7,b
  4939  002AA8  EF5A  F015         	goto	u4780
  4940  002AAC  EF58  F015         	goto	u4781
  4941  002AB0                     u4781:
  4942  002AB0  EF75  F015         	goto	l1014
  4943  002AB4                     u4780:
  4944  002AB4                     
  4945                           ; BSR set to: 0
  4946  002AB4  C080  F084         	movff	___xxtofl@val,??___xxtofl
  4947  002AB8  C081  F085         	movff	___xxtofl@val+1,??___xxtofl+1
  4948  002ABC  C082  F086         	movff	___xxtofl@val+2,??___xxtofl+2
  4949  002AC0  C083  F087         	movff	___xxtofl@val+3,??___xxtofl+3
  4950  002AC4  1F84               	comf	??___xxtofl& (0+255),f,b
  4951  002AC6  1F85               	comf	(??___xxtofl+1)& (0+255),f,b
  4952  002AC8  1F86               	comf	(??___xxtofl+2)& (0+255),f,b
  4953  002ACA  1F87               	comf	(??___xxtofl+3)& (0+255),f,b
  4954  002ACC  2B84               	incf	??___xxtofl& (0+255),f,b
  4955  002ACE  0E00               	movlw	0
  4956  002AD0  2385               	addwfc	(??___xxtofl+1)& (0+255),f,b
  4957  002AD2  2386               	addwfc	(??___xxtofl+2)& (0+255),f,b
  4958  002AD4  2387               	addwfc	(??___xxtofl+3)& (0+255),f,b
  4959  002AD6  C084  F08A         	movff	??___xxtofl,___xxtofl@arg
  4960  002ADA  C085  F08B         	movff	??___xxtofl+1,___xxtofl@arg+1
  4961  002ADE  C086  F08C         	movff	??___xxtofl+2,___xxtofl@arg+2
  4962  002AE2  C087  F08D         	movff	??___xxtofl+3,___xxtofl@arg+3
  4963  002AE6  EF7D  F015         	goto	l3766
  4964  002AEA                     l1014:
  4965                           
  4966                           ; BSR set to: 0
  4967  002AEA  C080  F08A         	movff	___xxtofl@val,___xxtofl@arg
  4968  002AEE  C081  F08B         	movff	___xxtofl@val+1,___xxtofl@arg+1
  4969  002AF2  C082  F08C         	movff	___xxtofl@val+2,___xxtofl@arg+2
  4970  002AF6  C083  F08D         	movff	___xxtofl@val+3,___xxtofl@arg+3
  4971  002AFA                     l3766:
  4972                           
  4973                           ; BSR set to: 0
  4974  002AFA  5180               	movf	___xxtofl@val& (0+255),w,b
  4975  002AFC  1181               	iorwf	(___xxtofl@val+1)& (0+255),w,b
  4976  002AFE  1182               	iorwf	(___xxtofl@val+2)& (0+255),w,b
  4977  002B00  1183               	iorwf	(___xxtofl@val+3)& (0+255),w,b
  4978  002B02  A4D8               	btfss	status,2,c
  4979  002B04  EF86  F015         	goto	u4791
  4980  002B08  EF88  F015         	goto	u4790
  4981  002B0C                     u4791:
  4982  002B0C  EF92  F015         	goto	l3772
  4983  002B10                     u4790:
  4984  002B10                     
  4985                           ; BSR set to: 0
  4986  002B10  0E00               	movlw	0
  4987  002B12  6F80               	movwf	?___xxtofl& (0+255),b
  4988  002B14  0E00               	movlw	0
  4989  002B16  6F81               	movwf	(?___xxtofl+1)& (0+255),b
  4990  002B18  0E00               	movlw	0
  4991  002B1A  6F82               	movwf	(?___xxtofl+2)& (0+255),b
  4992  002B1C  0E00               	movlw	0
  4993  002B1E  6F83               	movwf	(?___xxtofl+3)& (0+255),b
  4994  002B20  EF23  F016         	goto	l1017
  4995  002B24                     l3772:
  4996                           
  4997                           ; BSR set to: 0
  4998  002B24  0E96               	movlw	150
  4999  002B26  6F89               	movwf	___xxtofl@exp& (0+255),b
  5000  002B28  EF9C  F015         	goto	l3776
  5001  002B2C                     l3774:
  5002                           
  5003                           ; BSR set to: 0
  5004  002B2C  2B89               	incf	___xxtofl@exp& (0+255),f,b
  5005  002B2E  90D8               	bcf	status,0,c
  5006  002B30  338D               	rrcf	(___xxtofl@arg+3)& (0+255),f,b
  5007  002B32  338C               	rrcf	(___xxtofl@arg+2)& (0+255),f,b
  5008  002B34  338B               	rrcf	(___xxtofl@arg+1)& (0+255),f,b
  5009  002B36  338A               	rrcf	___xxtofl@arg& (0+255),f,b
  5010  002B38                     l3776:
  5011                           
  5012                           ; BSR set to: 0
  5013  002B38  0E00               	movlw	0
  5014  002B3A  158A               	andwf	___xxtofl@arg& (0+255),w,b
  5015  002B3C  6F84               	movwf	??___xxtofl& (0+255),b
  5016  002B3E  0E00               	movlw	0
  5017  002B40  158B               	andwf	(___xxtofl@arg+1)& (0+255),w,b
  5018  002B42  6F85               	movwf	(??___xxtofl+1)& (0+255),b
  5019  002B44  0E00               	movlw	0
  5020  002B46  158C               	andwf	(___xxtofl@arg+2)& (0+255),w,b
  5021  002B48  6F86               	movwf	(??___xxtofl+2)& (0+255),b
  5022  002B4A  0EFE               	movlw	254
  5023  002B4C  158D               	andwf	(___xxtofl@arg+3)& (0+255),w,b
  5024  002B4E  6F87               	movwf	(??___xxtofl+3)& (0+255),b
  5025  002B50  5184               	movf	??___xxtofl& (0+255),w,b
  5026  002B52  1185               	iorwf	(??___xxtofl+1)& (0+255),w,b
  5027  002B54  1186               	iorwf	(??___xxtofl+2)& (0+255),w,b
  5028  002B56  1187               	iorwf	(??___xxtofl+3)& (0+255),w,b
  5029  002B58  A4D8               	btfss	status,2,c
  5030  002B5A  EFB1  F015         	goto	u4801
  5031  002B5E  EFB3  F015         	goto	u4800
  5032  002B62                     u4801:
  5033  002B62  EF96  F015         	goto	l3774
  5034  002B66                     u4800:
  5035  002B66  EFC1  F015         	goto	l1021
  5036  002B6A                     l3778:
  5037                           
  5038                           ; BSR set to: 0
  5039  002B6A  2B89               	incf	___xxtofl@exp& (0+255),f,b
  5040  002B6C                     
  5041                           ; BSR set to: 0
  5042  002B6C  0E01               	movlw	1
  5043  002B6E  278A               	addwf	___xxtofl@arg& (0+255),f,b
  5044  002B70  0E00               	movlw	0
  5045  002B72  238B               	addwfc	(___xxtofl@arg+1)& (0+255),f,b
  5046  002B74  238C               	addwfc	(___xxtofl@arg+2)& (0+255),f,b
  5047  002B76  238D               	addwfc	(___xxtofl@arg+3)& (0+255),f,b
  5048  002B78                     
  5049                           ; BSR set to: 0
  5050  002B78  90D8               	bcf	status,0,c
  5051  002B7A  338D               	rrcf	(___xxtofl@arg+3)& (0+255),f,b
  5052  002B7C  338C               	rrcf	(___xxtofl@arg+2)& (0+255),f,b
  5053  002B7E  338B               	rrcf	(___xxtofl@arg+1)& (0+255),f,b
  5054  002B80  338A               	rrcf	___xxtofl@arg& (0+255),f,b
  5055  002B82                     l1021:
  5056                           
  5057                           ; BSR set to: 0
  5058  002B82  0E00               	movlw	0
  5059  002B84  158A               	andwf	___xxtofl@arg& (0+255),w,b
  5060  002B86  6F84               	movwf	??___xxtofl& (0+255),b
  5061  002B88  0E00               	movlw	0
  5062  002B8A  158B               	andwf	(___xxtofl@arg+1)& (0+255),w,b
  5063  002B8C  6F85               	movwf	(??___xxtofl+1)& (0+255),b
  5064  002B8E  0E00               	movlw	0
  5065  002B90  158C               	andwf	(___xxtofl@arg+2)& (0+255),w,b
  5066  002B92  6F86               	movwf	(??___xxtofl+2)& (0+255),b
  5067  002B94  0EFF               	movlw	255
  5068  002B96  158D               	andwf	(___xxtofl@arg+3)& (0+255),w,b
  5069  002B98  6F87               	movwf	(??___xxtofl+3)& (0+255),b
  5070  002B9A  5184               	movf	??___xxtofl& (0+255),w,b
  5071  002B9C  1185               	iorwf	(??___xxtofl+1)& (0+255),w,b
  5072  002B9E  1186               	iorwf	(??___xxtofl+2)& (0+255),w,b
  5073  002BA0  1187               	iorwf	(??___xxtofl+3)& (0+255),w,b
  5074  002BA2  A4D8               	btfss	status,2,c
  5075  002BA4  EFD6  F015         	goto	u4811
  5076  002BA8  EFD8  F015         	goto	u4810
  5077  002BAC                     u4811:
  5078  002BAC  EFB5  F015         	goto	l3778
  5079  002BB0                     u4810:
  5080  002BB0  EFE0  F015         	goto	l3786
  5081  002BB4                     l3784:
  5082                           
  5083                           ; BSR set to: 0
  5084  002BB4  0789               	decf	___xxtofl@exp& (0+255),f,b
  5085  002BB6  90D8               	bcf	status,0,c
  5086  002BB8  378A               	rlcf	___xxtofl@arg& (0+255),f,b
  5087  002BBA  378B               	rlcf	(___xxtofl@arg+1)& (0+255),f,b
  5088  002BBC  378C               	rlcf	(___xxtofl@arg+2)& (0+255),f,b
  5089  002BBE  378D               	rlcf	(___xxtofl@arg+3)& (0+255),f,b
  5090  002BC0                     l3786:
  5091                           
  5092                           ; BSR set to: 0
  5093  002BC0  BF8C               	btfsc	(___xxtofl@arg+2)& (0+255),7,b
  5094  002BC2  EFE5  F015         	goto	u4821
  5095  002BC6  EFE7  F015         	goto	u4820
  5096  002BCA                     u4821:
  5097  002BCA  EFEF  F015         	goto	l1028
  5098  002BCE                     u4820:
  5099  002BCE                     
  5100                           ; BSR set to: 0
  5101  002BCE  0E02               	movlw	2
  5102  002BD0  6189               	cpfslt	___xxtofl@exp& (0+255),b
  5103  002BD2  EFED  F015         	goto	u4831
  5104  002BD6  EFEF  F015         	goto	u4830
  5105  002BDA                     u4831:
  5106  002BDA  EFDA  F015         	goto	l3784
  5107  002BDE                     u4830:
  5108  002BDE                     l1028:
  5109                           
  5110                           ; BSR set to: 0
  5111  002BDE  B189               	btfsc	___xxtofl@exp& (0+255),0,b
  5112  002BE0  EFF4  F015         	goto	u4841
  5113  002BE4  EFF6  F015         	goto	u4840
  5114  002BE8                     u4841:
  5115  002BE8  EFF7  F015         	goto	l3792
  5116  002BEC                     u4840:
  5117  002BEC                     
  5118                           ; BSR set to: 0
  5119  002BEC  9F8C               	bcf	(___xxtofl@arg+2)& (0+255),7,b
  5120  002BEE                     l3792:
  5121                           
  5122                           ; BSR set to: 0
  5123  002BEE  90D8               	bcf	status,0,c
  5124  002BF0  3389               	rrcf	___xxtofl@exp& (0+255),f,b
  5125  002BF2                     
  5126                           ; BSR set to: 0
  5127  002BF2  C089  F084         	movff	___xxtofl@exp,??___xxtofl
  5128  002BF6  6B85               	clrf	(??___xxtofl+1)& (0+255),b
  5129  002BF8  6B86               	clrf	(??___xxtofl+2)& (0+255),b
  5130  002BFA  6B87               	clrf	(??___xxtofl+3)& (0+255),b
  5131  002BFC  C084  F087         	movff	??___xxtofl,??___xxtofl+3
  5132  002C00  6B86               	clrf	(??___xxtofl+2)& (0+255),b
  5133  002C02  6B85               	clrf	(??___xxtofl+1)& (0+255),b
  5134  002C04  6B84               	clrf	??___xxtofl& (0+255),b
  5135  002C06  5184               	movf	??___xxtofl& (0+255),w,b
  5136  002C08  138A               	iorwf	___xxtofl@arg& (0+255),f,b
  5137  002C0A  5185               	movf	(??___xxtofl+1)& (0+255),w,b
  5138  002C0C  138B               	iorwf	(___xxtofl@arg+1)& (0+255),f,b
  5139  002C0E  5186               	movf	(??___xxtofl+2)& (0+255),w,b
  5140  002C10  138C               	iorwf	(___xxtofl@arg+2)& (0+255),f,b
  5141  002C12  5187               	movf	(??___xxtofl+3)& (0+255),w,b
  5142  002C14  138D               	iorwf	(___xxtofl@arg+3)& (0+255),f,b
  5143  002C16                     
  5144                           ; BSR set to: 0
  5145  002C16  5188               	movf	___xxtofl@sign& (0+255),w,b
  5146  002C18  B4D8               	btfsc	status,2,c
  5147  002C1A  EF11  F016         	goto	u4851
  5148  002C1E  EF13  F016         	goto	u4850
  5149  002C22                     u4851:
  5150  002C22  EF1B  F016         	goto	l3802
  5151  002C26                     u4850:
  5152  002C26                     
  5153                           ; BSR set to: 0
  5154  002C26  BF83               	btfsc	(___xxtofl@val+3)& (0+255),7,b
  5155  002C28  EF1A  F016         	goto	u4860
  5156  002C2C  EF18  F016         	goto	u4861
  5157  002C30                     u4861:
  5158  002C30  EF1B  F016         	goto	l3802
  5159  002C34                     u4860:
  5160  002C34                     
  5161                           ; BSR set to: 0
  5162  002C34  8F8D               	bsf	(___xxtofl@arg+3)& (0+255),7,b
  5163  002C36                     l3802:
  5164                           
  5165                           ; BSR set to: 0
  5166  002C36  C08A  F080         	movff	___xxtofl@arg,?___xxtofl
  5167  002C3A  C08B  F081         	movff	___xxtofl@arg+1,?___xxtofl+1
  5168  002C3E  C08C  F082         	movff	___xxtofl@arg+2,?___xxtofl+2
  5169  002C42  C08D  F083         	movff	___xxtofl@arg+3,?___xxtofl+3
  5170  002C46                     l1017:
  5171                           
  5172                           ; BSR set to: 0
  5173  002C46  0012               	return		;funcret
  5174  002C48                     __end_of___xxtofl:
  5175                           	callstack 0
  5176                           
  5177 ;; *************** function ___fltol *****************
  5178 ;; Defined at:
  5179 ;;		line 43 in file "/opt/microchip/xc8/v2.32/pic/sources/c99/common/fltol.c"
  5180 ;; Parameters:    Size  Location     Type
  5181 ;;  f1              4    0[BANK0 ] unsigned char 
  5182 ;; Auto vars:     Size  Location     Type
  5183 ;;  exp1            1    9[BANK0 ] unsigned char 
  5184 ;;  sign1           1    8[BANK0 ] unsigned char 
  5185 ;; Return value:  Size  Location     Type
  5186 ;;                  4    0[BANK0 ] long 
  5187 ;; Registers used:
  5188 ;;		wreg, status,2, status,0
  5189 ;; Tracked objects:
  5190 ;;		On entry : 0/0
  5191 ;;		On exit  : 0/0
  5192 ;;		Unchanged: 0/0
  5193 ;; Data sizes:     COMRAM   BANK0   BANK1   BANK2   BANK3   BANK4   BANK5
  5194 ;;      Params:         0       4       0       0       0       0       0
  5195 ;;      Locals:         0       2       0       0       0       0       0
  5196 ;;      Temps:          0       4       0       0       0       0       0
  5197 ;;      Totals:         0      10       0       0       0       0       0
  5198 ;;Total ram usage:       10 bytes
  5199 ;; Hardware stack levels used: 1
  5200 ;; Hardware stack levels required when called: 9
  5201 ;; This function calls:
  5202 ;;		Nothing
  5203 ;; This function is called by:
  5204 ;;		_USART_Init
  5205 ;; This function uses a non-reentrant model
  5206 ;;
  5207                           
  5208                           	psect	text3
  5209  002DD8                     __ptext3:
  5210                           	callstack 0
  5211  002DD8                     ___fltol:
  5212                           	callstack 20
  5213  002DD8  0100               	movlb	0	; () banked
  5214  002DDA  3582               	rlcf	(___fltol@f1+2)& (0+255),w,b
  5215  002DDC  3583               	rlcf	(___fltol@f1+3)& (0+255),w,b
  5216  002DDE  6F89               	movwf	___fltol@exp1& (0+255),b
  5217  002DE0  5189               	movf	___fltol@exp1& (0+255),w,b
  5218  002DE2  A4D8               	btfss	status,2,c
  5219  002DE4  EFF6  F016         	goto	u4701
  5220  002DE8  EFF8  F016         	goto	u4700
  5221  002DEC                     u4701:
  5222  002DEC  EF02  F017         	goto	l3722
  5223  002DF0                     u4700:
  5224  002DF0                     l3718:
  5225                           
  5226                           ; BSR set to: 0
  5227  002DF0  0E00               	movlw	0
  5228  002DF2  6F80               	movwf	?___fltol& (0+255),b
  5229  002DF4  0E00               	movlw	0
  5230  002DF6  6F81               	movwf	(?___fltol+1)& (0+255),b
  5231  002DF8  0E00               	movlw	0
  5232  002DFA  6F82               	movwf	(?___fltol+2)& (0+255),b
  5233  002DFC  0E00               	movlw	0
  5234  002DFE  6F83               	movwf	(?___fltol+3)& (0+255),b
  5235  002E00  EF6F  F017         	goto	l656
  5236  002E04                     l3722:
  5237                           
  5238                           ; BSR set to: 0
  5239  002E04  C080  F084         	movff	___fltol@f1,??___fltol
  5240  002E08  C081  F085         	movff	___fltol@f1+1,??___fltol+1
  5241  002E0C  C082  F086         	movff	___fltol@f1+2,??___fltol+2
  5242  002E10  C083  F087         	movff	___fltol@f1+3,??___fltol+3
  5243  002E14  0E20               	movlw	32
  5244  002E16  EF12  F017         	goto	u4710
  5245  002E1A                     u4715:
  5246  002E1A  90D8               	bcf	status,0,c
  5247  002E1C  3387               	rrcf	(??___fltol+3)& (0+255),f,b
  5248  002E1E  3386               	rrcf	(??___fltol+2)& (0+255),f,b
  5249  002E20  3385               	rrcf	(??___fltol+1)& (0+255),f,b
  5250  002E22  3384               	rrcf	??___fltol& (0+255),f,b
  5251  002E24                     u4710:
  5252  002E24  2EE8               	decfsz	wreg,f,c
  5253  002E26  EF0D  F017         	goto	u4715
  5254  002E2A  5184               	movf	??___fltol& (0+255),w,b
  5255  002E2C  6F88               	movwf	___fltol@sign1& (0+255),b
  5256  002E2E                     
  5257                           ; BSR set to: 0
  5258  002E2E  8F82               	bsf	(___fltol@f1+2)& (0+255),7,b
  5259  002E30                     
  5260                           ; BSR set to: 0
  5261  002E30  0EFF               	movlw	255
  5262  002E32  1780               	andwf	___fltol@f1& (0+255),f,b
  5263  002E34  0EFF               	movlw	255
  5264  002E36  1781               	andwf	(___fltol@f1+1)& (0+255),f,b
  5265  002E38  0EFF               	movlw	255
  5266  002E3A  1782               	andwf	(___fltol@f1+2)& (0+255),f,b
  5267  002E3C  0E00               	movlw	0
  5268  002E3E  1783               	andwf	(___fltol@f1+3)& (0+255),f,b
  5269  002E40                     
  5270                           ; BSR set to: 0
  5271  002E40  0E96               	movlw	150
  5272  002E42  5F89               	subwf	___fltol@exp1& (0+255),f,b
  5273  002E44                     
  5274                           ; BSR set to: 0
  5275  002E44  BF89               	btfsc	___fltol@exp1& (0+255),7,b
  5276  002E46  EF29  F017         	goto	u4720
  5277  002E4A  EF27  F017         	goto	u4721
  5278  002E4E                     u4721:
  5279  002E4E  EF3F  F017         	goto	l3742
  5280  002E52                     u4720:
  5281  002E52                     
  5282                           ; BSR set to: 0
  5283  002E52  5189               	movf	___fltol@exp1& (0+255),w,b
  5284  002E54  0A80               	xorlw	128
  5285  002E56  0F97               	addlw	151
  5286  002E58  B0D8               	btfsc	status,0,c
  5287  002E5A  EF31  F017         	goto	u4731
  5288  002E5E  EF33  F017         	goto	u4730
  5289  002E62                     u4731:
  5290  002E62  EF35  F017         	goto	l3738
  5291  002E66                     u4730:
  5292  002E66  EFF8  F016         	goto	l3718
  5293  002E6A                     l3738:
  5294                           
  5295                           ; BSR set to: 0
  5296  002E6A  90D8               	bcf	status,0,c
  5297  002E6C  3383               	rrcf	(___fltol@f1+3)& (0+255),f,b
  5298  002E6E  3382               	rrcf	(___fltol@f1+2)& (0+255),f,b
  5299  002E70  3381               	rrcf	(___fltol@f1+1)& (0+255),f,b
  5300  002E72  3380               	rrcf	___fltol@f1& (0+255),f,b
  5301  002E74                     
  5302                           ; BSR set to: 0
  5303  002E74  3F89               	incfsz	___fltol@exp1& (0+255),f,b
  5304  002E76  EF35  F017         	goto	l3738
  5305  002E7A  EF57  F017         	goto	l3752
  5306  002E7E                     l3742:
  5307                           
  5308                           ; BSR set to: 0
  5309  002E7E  0E1F               	movlw	31
  5310  002E80  6589               	cpfsgt	___fltol@exp1& (0+255),b
  5311  002E82  EF45  F017         	goto	u4741
  5312  002E86  EF47  F017         	goto	u4740
  5313  002E8A                     u4741:
  5314  002E8A  EF4F  F017         	goto	l3750
  5315  002E8E                     u4740:
  5316  002E8E  EFF8  F016         	goto	l3718
  5317  002E92                     l3748:
  5318                           
  5319                           ; BSR set to: 0
  5320  002E92  90D8               	bcf	status,0,c
  5321  002E94  3780               	rlcf	___fltol@f1& (0+255),f,b
  5322  002E96  3781               	rlcf	(___fltol@f1+1)& (0+255),f,b
  5323  002E98  3782               	rlcf	(___fltol@f1+2)& (0+255),f,b
  5324  002E9A  3783               	rlcf	(___fltol@f1+3)& (0+255),f,b
  5325  002E9C  0789               	decf	___fltol@exp1& (0+255),f,b
  5326  002E9E                     l3750:
  5327                           
  5328                           ; BSR set to: 0
  5329  002E9E  5189               	movf	___fltol@exp1& (0+255),w,b
  5330  002EA0  A4D8               	btfss	status,2,c
  5331  002EA2  EF55  F017         	goto	u4751
  5332  002EA6  EF57  F017         	goto	u4750
  5333  002EAA                     u4751:
  5334  002EAA  EF49  F017         	goto	l3748
  5335  002EAE                     u4750:
  5336  002EAE                     l3752:
  5337                           
  5338                           ; BSR set to: 0
  5339  002EAE  5188               	movf	___fltol@sign1& (0+255),w,b
  5340  002EB0  B4D8               	btfsc	status,2,c
  5341  002EB2  EF5D  F017         	goto	u4761
  5342  002EB6  EF5F  F017         	goto	u4760
  5343  002EBA                     u4761:
  5344  002EBA  EF67  F017         	goto	l3756
  5345  002EBE                     u4760:
  5346  002EBE                     
  5347                           ; BSR set to: 0
  5348  002EBE  1F83               	comf	(___fltol@f1+3)& (0+255),f,b
  5349  002EC0  1F82               	comf	(___fltol@f1+2)& (0+255),f,b
  5350  002EC2  1F81               	comf	(___fltol@f1+1)& (0+255),f,b
  5351  002EC4  6D80               	negf	___fltol@f1& (0+255),b
  5352  002EC6  0E00               	movlw	0
  5353  002EC8  2381               	addwfc	(___fltol@f1+1)& (0+255),f,b
  5354  002ECA  2382               	addwfc	(___fltol@f1+2)& (0+255),f,b
  5355  002ECC  2383               	addwfc	(___fltol@f1+3)& (0+255),f,b
  5356  002ECE                     l3756:
  5357                           
  5358                           ; BSR set to: 0
  5359  002ECE  C080  F080         	movff	___fltol@f1,?___fltol
  5360  002ED2  C081  F081         	movff	___fltol@f1+1,?___fltol+1
  5361  002ED6  C082  F082         	movff	___fltol@f1+2,?___fltol+2
  5362  002EDA  C083  F083         	movff	___fltol@f1+3,?___fltol+3
  5363  002EDE                     l656:
  5364                           
  5365                           ; BSR set to: 0
  5366  002EDE  0012               	return		;funcret
  5367  002EE0                     __end_of___fltol:
  5368                           	callstack 0
  5369                           
  5370 ;; *************** function ___fldiv *****************
  5371 ;; Defined at:
  5372 ;;		line 11 in file "/opt/microchip/xc8/v2.32/pic/sources/c99/common/sprcdiv.c"
  5373 ;; Parameters:    Size  Location     Type
  5374 ;;  b               4   14[BANK0 ] long 
  5375 ;;  a               4   18[BANK0 ] long 
  5376 ;; Auto vars:     Size  Location     Type
  5377 ;;  grs             4   33[BANK0 ] unsigned long 
  5378 ;;  rem             4   26[BANK0 ] unsigned long 
  5379 ;;  new_exp         2   31[BANK0 ] short 
  5380 ;;  aexp            1   38[BANK0 ] unsigned char 
  5381 ;;  bexp            1   37[BANK0 ] unsigned char 
  5382 ;;  sign            1   30[BANK0 ] unsigned char 
  5383 ;; Return value:  Size  Location     Type
  5384 ;;                  4   14[BANK0 ] unsigned char 
  5385 ;; Registers used:
  5386 ;;		wreg, status,2, status,0
  5387 ;; Tracked objects:
  5388 ;;		On entry : 0/0
  5389 ;;		On exit  : 0/0
  5390 ;;		Unchanged: 0/0
  5391 ;; Data sizes:     COMRAM   BANK0   BANK1   BANK2   BANK3   BANK4   BANK5
  5392 ;;      Params:         0       8       0       0       0       0       0
  5393 ;;      Locals:         0      13       0       0       0       0       0
  5394 ;;      Temps:          0       4       0       0       0       0       0
  5395 ;;      Totals:         0      25       0       0       0       0       0
  5396 ;;Total ram usage:       25 bytes
  5397 ;; Hardware stack levels used: 1
  5398 ;; Hardware stack levels required when called: 9
  5399 ;; This function calls:
  5400 ;;		Nothing
  5401 ;; This function is called by:
  5402 ;;		_USART_Init
  5403 ;; This function uses a non-reentrant model
  5404 ;;
  5405                           
  5406                           	psect	text4
  5407  002216                     __ptext4:
  5408                           	callstack 0
  5409  002216                     ___fldiv:
  5410                           	callstack 20
  5411  002216  0100               	movlb	0	; () banked
  5412  002218  5191               	movf	(___fldiv@b+3)& (0+255),w,b
  5413  00221A  0B80               	andlw	128
  5414  00221C  6F9E               	movwf	___fldiv@sign& (0+255),b
  5415  00221E  5191               	movf	(___fldiv@b+3)& (0+255),w,b
  5416  002220  2591               	addwf	(___fldiv@b+3)& (0+255),w,b
  5417  002222  6FA5               	movwf	___fldiv@bexp& (0+255),b
  5418  002224                     
  5419                           ; BSR set to: 0
  5420  002224  AF90               	btfss	(___fldiv@b+2)& (0+255),7,b
  5421  002226  EF17  F011         	goto	u4471
  5422  00222A  EF19  F011         	goto	u4470
  5423  00222E                     u4471:
  5424  00222E  EF1A  F011         	goto	l3584
  5425  002232                     u4470:
  5426  002232                     
  5427                           ; BSR set to: 0
  5428  002232  81A5               	bsf	___fldiv@bexp& (0+255),0,b
  5429  002234                     l3584:
  5430                           
  5431                           ; BSR set to: 0
  5432  002234  51A5               	movf	___fldiv@bexp& (0+255),w,b
  5433  002236  B4D8               	btfsc	status,2,c
  5434  002238  EF20  F011         	goto	u4481
  5435  00223C  EF22  F011         	goto	u4480
  5436  002240                     u4481:
  5437  002240  EF37  F011         	goto	l3594
  5438  002244                     u4480:
  5439  002244                     
  5440                           ; BSR set to: 0
  5441  002244  29A5               	incf	___fldiv@bexp& (0+255),w,b
  5442  002246  A4D8               	btfss	status,2,c
  5443  002248  EF28  F011         	goto	u4491
  5444  00224C  EF2A  F011         	goto	u4490
  5445  002250                     u4491:
  5446  002250  EF32  F011         	goto	l3590
  5447  002254                     u4490:
  5448  002254                     
  5449                           ; BSR set to: 0
  5450  002254  0E00               	movlw	0
  5451  002256  6F8E               	movwf	___fldiv@b& (0+255),b
  5452  002258  0E00               	movlw	0
  5453  00225A  6F8F               	movwf	(___fldiv@b+1)& (0+255),b
  5454  00225C  0E00               	movlw	0
  5455  00225E  6F90               	movwf	(___fldiv@b+2)& (0+255),b
  5456  002260  0E00               	movlw	0
  5457  002262  6F91               	movwf	(___fldiv@b+3)& (0+255),b
  5458  002264                     l3590:
  5459                           
  5460                           ; BSR set to: 0
  5461  002264  8F90               	bsf	(___fldiv@b+2)& (0+255),7,b
  5462  002266                     
  5463                           ; BSR set to: 0
  5464  002266  0E00               	movlw	0
  5465  002268  6F91               	movwf	(___fldiv@b+3)& (0+255),b
  5466  00226A  EF3F  F011         	goto	l3596
  5467  00226E                     l3594:
  5468                           
  5469                           ; BSR set to: 0
  5470  00226E  0E00               	movlw	0
  5471  002270  6F8E               	movwf	___fldiv@b& (0+255),b
  5472  002272  0E00               	movlw	0
  5473  002274  6F8F               	movwf	(___fldiv@b+1)& (0+255),b
  5474  002276  0E00               	movlw	0
  5475  002278  6F90               	movwf	(___fldiv@b+2)& (0+255),b
  5476  00227A  0E00               	movlw	0
  5477  00227C  6F91               	movwf	(___fldiv@b+3)& (0+255),b
  5478  00227E                     l3596:
  5479                           
  5480                           ; BSR set to: 0
  5481  00227E  5195               	movf	(___fldiv@a+3)& (0+255),w,b
  5482  002280  0B80               	andlw	128
  5483  002282  1B9E               	xorwf	___fldiv@sign& (0+255),f,b
  5484  002284                     
  5485                           ; BSR set to: 0
  5486  002284  5195               	movf	(___fldiv@a+3)& (0+255),w,b
  5487  002286  2595               	addwf	(___fldiv@a+3)& (0+255),w,b
  5488  002288  6FA6               	movwf	___fldiv@aexp& (0+255),b
  5489  00228A                     
  5490                           ; BSR set to: 0
  5491  00228A  AF94               	btfss	(___fldiv@a+2)& (0+255),7,b
  5492  00228C  EF4A  F011         	goto	u4501
  5493  002290  EF4C  F011         	goto	u4500
  5494  002294                     u4501:
  5495  002294  EF4D  F011         	goto	l3604
  5496  002298                     u4500:
  5497  002298                     
  5498                           ; BSR set to: 0
  5499  002298  81A6               	bsf	___fldiv@aexp& (0+255),0,b
  5500  00229A                     l3604:
  5501                           
  5502                           ; BSR set to: 0
  5503  00229A  51A6               	movf	___fldiv@aexp& (0+255),w,b
  5504  00229C  B4D8               	btfsc	status,2,c
  5505  00229E  EF53  F011         	goto	u4511
  5506  0022A2  EF55  F011         	goto	u4510
  5507  0022A6                     u4511:
  5508  0022A6  EF6A  F011         	goto	l3614
  5509  0022AA                     u4510:
  5510  0022AA                     
  5511                           ; BSR set to: 0
  5512  0022AA  29A6               	incf	___fldiv@aexp& (0+255),w,b
  5513  0022AC  A4D8               	btfss	status,2,c
  5514  0022AE  EF5B  F011         	goto	u4521
  5515  0022B2  EF5D  F011         	goto	u4520
  5516  0022B6                     u4521:
  5517  0022B6  EF65  F011         	goto	l3610
  5518  0022BA                     u4520:
  5519  0022BA                     
  5520                           ; BSR set to: 0
  5521  0022BA  0E00               	movlw	0
  5522  0022BC  6F92               	movwf	___fldiv@a& (0+255),b
  5523  0022BE  0E00               	movlw	0
  5524  0022C0  6F93               	movwf	(___fldiv@a+1)& (0+255),b
  5525  0022C2  0E00               	movlw	0
  5526  0022C4  6F94               	movwf	(___fldiv@a+2)& (0+255),b
  5527  0022C6  0E00               	movlw	0
  5528  0022C8  6F95               	movwf	(___fldiv@a+3)& (0+255),b
  5529  0022CA                     l3610:
  5530                           
  5531                           ; BSR set to: 0
  5532  0022CA  8F94               	bsf	(___fldiv@a+2)& (0+255),7,b
  5533  0022CC                     
  5534                           ; BSR set to: 0
  5535  0022CC  0E00               	movlw	0
  5536  0022CE  6F95               	movwf	(___fldiv@a+3)& (0+255),b
  5537  0022D0  EF72  F011         	goto	l3616
  5538  0022D4                     l3614:
  5539                           
  5540                           ; BSR set to: 0
  5541  0022D4  0E00               	movlw	0
  5542  0022D6  6F92               	movwf	___fldiv@a& (0+255),b
  5543  0022D8  0E00               	movlw	0
  5544  0022DA  6F93               	movwf	(___fldiv@a+1)& (0+255),b
  5545  0022DC  0E00               	movlw	0
  5546  0022DE  6F94               	movwf	(___fldiv@a+2)& (0+255),b
  5547  0022E0  0E00               	movlw	0
  5548  0022E2  6F95               	movwf	(___fldiv@a+3)& (0+255),b
  5549  0022E4                     l3616:
  5550                           
  5551                           ; BSR set to: 0
  5552  0022E4  5192               	movf	___fldiv@a& (0+255),w,b
  5553  0022E6  1193               	iorwf	(___fldiv@a+1)& (0+255),w,b
  5554  0022E8  1194               	iorwf	(___fldiv@a+2)& (0+255),w,b
  5555  0022EA  1195               	iorwf	(___fldiv@a+3)& (0+255),w,b
  5556  0022EC  A4D8               	btfss	status,2,c
  5557  0022EE  EF7B  F011         	goto	u4531
  5558  0022F2  EF7D  F011         	goto	u4530
  5559  0022F6                     u4531:
  5560  0022F6  EF95  F011         	goto	l3628
  5561  0022FA                     u4530:
  5562  0022FA                     
  5563                           ; BSR set to: 0
  5564  0022FA  0E00               	movlw	0
  5565  0022FC  6F8E               	movwf	___fldiv@b& (0+255),b
  5566  0022FE  0E00               	movlw	0
  5567  002300  6F8F               	movwf	(___fldiv@b+1)& (0+255),b
  5568  002302  0E00               	movlw	0
  5569  002304  6F90               	movwf	(___fldiv@b+2)& (0+255),b
  5570  002306  0E00               	movlw	0
  5571  002308  6F91               	movwf	(___fldiv@b+3)& (0+255),b
  5572  00230A                     
  5573                           ; BSR set to: 0
  5574  00230A  0E80               	movlw	128
  5575  00230C  1390               	iorwf	(___fldiv@b+2)& (0+255),f,b
  5576  00230E  0E7F               	movlw	127
  5577  002310  1391               	iorwf	(___fldiv@b+3)& (0+255),f,b
  5578  002312                     l3622:
  5579                           
  5580                           ; BSR set to: 0
  5581  002312  519E               	movf	___fldiv@sign& (0+255),w,b
  5582  002314  1391               	iorwf	(___fldiv@b+3)& (0+255),f,b
  5583  002316                     
  5584                           ; BSR set to: 0
  5585  002316  C08E  F08E         	movff	___fldiv@b,?___fldiv
  5586  00231A  C08F  F08F         	movff	___fldiv@b+1,?___fldiv+1
  5587  00231E  C090  F090         	movff	___fldiv@b+2,?___fldiv+2
  5588  002322  C091  F091         	movff	___fldiv@b+3,?___fldiv+3
  5589  002326  EFD8  F012         	goto	l941
  5590  00232A                     l3628:
  5591                           
  5592                           ; BSR set to: 0
  5593  00232A  51A5               	movf	___fldiv@bexp& (0+255),w,b
  5594  00232C  A4D8               	btfss	status,2,c
  5595  00232E  EF9B  F011         	goto	u4541
  5596  002332  EF9D  F011         	goto	u4540
  5597  002336                     u4541:
  5598  002336  EFA7  F011         	goto	l3636
  5599  00233A                     u4540:
  5600  00233A                     
  5601                           ; BSR set to: 0
  5602  00233A  0E00               	movlw	0
  5603  00233C  6F8E               	movwf	?___fldiv& (0+255),b
  5604  00233E  0E00               	movlw	0
  5605  002340  6F8F               	movwf	(?___fldiv+1)& (0+255),b
  5606  002342  0E00               	movlw	0
  5607  002344  6F90               	movwf	(?___fldiv+2)& (0+255),b
  5608  002346  0E00               	movlw	0
  5609  002348  6F91               	movwf	(?___fldiv+3)& (0+255),b
  5610  00234A  EFD8  F012         	goto	l941
  5611  00234E                     l3636:
  5612                           
  5613                           ; BSR set to: 0
  5614  00234E  51A6               	movf	___fldiv@aexp& (0+255),w,b
  5615  002350  C0A5  F096         	movff	___fldiv@bexp,??___fldiv
  5616  002354  6B97               	clrf	(??___fldiv+1)& (0+255),b
  5617  002356  5F96               	subwf	??___fldiv& (0+255),f,b
  5618  002358  0E00               	movlw	0
  5619  00235A  5B97               	subwfb	(??___fldiv+1)& (0+255),f,b
  5620  00235C  0E7F               	movlw	127
  5621  00235E  2596               	addwf	??___fldiv& (0+255),w,b
  5622  002360  6F9F               	movwf	___fldiv@new_exp& (0+255),b
  5623  002362  0E00               	movlw	0
  5624  002364  2197               	addwfc	(??___fldiv+1)& (0+255),w,b
  5625  002366  6FA0               	movwf	(___fldiv@new_exp+1)& (0+255),b
  5626  002368                     
  5627                           ; BSR set to: 0
  5628  002368  C08E  F09A         	movff	___fldiv@b,___fldiv@rem
  5629  00236C  C08F  F09B         	movff	___fldiv@b+1,___fldiv@rem+1
  5630  002370  C090  F09C         	movff	___fldiv@b+2,___fldiv@rem+2
  5631  002374  C091  F09D         	movff	___fldiv@b+3,___fldiv@rem+3
  5632  002378                     
  5633                           ; BSR set to: 0
  5634  002378  0E00               	movlw	0
  5635  00237A  6F8E               	movwf	___fldiv@b& (0+255),b
  5636  00237C  0E00               	movlw	0
  5637  00237E  6F8F               	movwf	(___fldiv@b+1)& (0+255),b
  5638  002380  0E00               	movlw	0
  5639  002382  6F90               	movwf	(___fldiv@b+2)& (0+255),b
  5640  002384  0E00               	movlw	0
  5641  002386  6F91               	movwf	(___fldiv@b+3)& (0+255),b
  5642  002388                     
  5643                           ; BSR set to: 0
  5644  002388  0E00               	movlw	0
  5645  00238A  6FA1               	movwf	___fldiv@grs& (0+255),b
  5646  00238C  0E00               	movlw	0
  5647  00238E  6FA2               	movwf	(___fldiv@grs+1)& (0+255),b
  5648  002390  0E00               	movlw	0
  5649  002392  6FA3               	movwf	(___fldiv@grs+2)& (0+255),b
  5650  002394  0E00               	movlw	0
  5651  002396  6FA4               	movwf	(___fldiv@grs+3)& (0+255),b
  5652  002398                     
  5653                           ; BSR set to: 0
  5654  002398  0E00               	movlw	0
  5655  00239A  6FA6               	movwf	___fldiv@aexp& (0+255),b
  5656  00239C  EF08  F012         	goto	l943
  5657  0023A0                     l3646:
  5658                           
  5659                           ; BSR set to: 0
  5660  0023A0  51A6               	movf	___fldiv@aexp& (0+255),w,b
  5661  0023A2  B4D8               	btfsc	status,2,c
  5662  0023A4  EFD6  F011         	goto	u4551
  5663  0023A8  EFD8  F011         	goto	u4550
  5664  0023AC                     u4551:
  5665  0023AC  EFEF  F011         	goto	l3654
  5666  0023B0                     u4550:
  5667  0023B0                     
  5668                           ; BSR set to: 0
  5669  0023B0  90D8               	bcf	status,0,c
  5670  0023B2  379A               	rlcf	___fldiv@rem& (0+255),f,b
  5671  0023B4  379B               	rlcf	(___fldiv@rem+1)& (0+255),f,b
  5672  0023B6  379C               	rlcf	(___fldiv@rem+2)& (0+255),f,b
  5673  0023B8  379D               	rlcf	(___fldiv@rem+3)& (0+255),f,b
  5674  0023BA  90D8               	bcf	status,0,c
  5675  0023BC  378E               	rlcf	___fldiv@b& (0+255),f,b
  5676  0023BE  378F               	rlcf	(___fldiv@b+1)& (0+255),f,b
  5677  0023C0  3790               	rlcf	(___fldiv@b+2)& (0+255),f,b
  5678  0023C2  3791               	rlcf	(___fldiv@b+3)& (0+255),f,b
  5679  0023C4                     
  5680                           ; BSR set to: 0
  5681  0023C4  AFA4               	btfss	(___fldiv@grs+3)& (0+255),7,b
  5682  0023C6  EFE7  F011         	goto	u4561
  5683  0023CA  EFE9  F011         	goto	u4560
  5684  0023CE                     u4561:
  5685  0023CE  EFEA  F011         	goto	l946
  5686  0023D2                     u4560:
  5687  0023D2                     
  5688                           ; BSR set to: 0
  5689  0023D2  818E               	bsf	___fldiv@b& (0+255),0,b
  5690  0023D4                     l946:
  5691                           
  5692                           ; BSR set to: 0
  5693  0023D4  90D8               	bcf	status,0,c
  5694  0023D6  37A1               	rlcf	___fldiv@grs& (0+255),f,b
  5695  0023D8  37A2               	rlcf	(___fldiv@grs+1)& (0+255),f,b
  5696  0023DA  37A3               	rlcf	(___fldiv@grs+2)& (0+255),f,b
  5697  0023DC  37A4               	rlcf	(___fldiv@grs+3)& (0+255),f,b
  5698  0023DE                     l3654:
  5699                           
  5700                           ; BSR set to: 0
  5701  0023DE  5192               	movf	___fldiv@a& (0+255),w,b
  5702  0023E0  5D9A               	subwf	___fldiv@rem& (0+255),w,b
  5703  0023E2  5193               	movf	(___fldiv@a+1)& (0+255),w,b
  5704  0023E4  599B               	subwfb	(___fldiv@rem+1)& (0+255),w,b
  5705  0023E6  5194               	movf	(___fldiv@a+2)& (0+255),w,b
  5706  0023E8  599C               	subwfb	(___fldiv@rem+2)& (0+255),w,b
  5707  0023EA  5195               	movf	(___fldiv@a+3)& (0+255),w,b
  5708  0023EC  599D               	subwfb	(___fldiv@rem+3)& (0+255),w,b
  5709  0023EE  A0D8               	btfss	status,0,c
  5710  0023F0  EFFC  F011         	goto	u4571
  5711  0023F4  EFFE  F011         	goto	u4570
  5712  0023F8                     u4571:
  5713  0023F8  EF07  F012         	goto	l3660
  5714  0023FC                     u4570:
  5715  0023FC                     
  5716                           ; BSR set to: 0
  5717  0023FC  8DA4               	bsf	(___fldiv@grs+3)& (0+255),6,b
  5718  0023FE                     
  5719                           ; BSR set to: 0
  5720  0023FE  5192               	movf	___fldiv@a& (0+255),w,b
  5721  002400  5F9A               	subwf	___fldiv@rem& (0+255),f,b
  5722  002402  5193               	movf	(___fldiv@a+1)& (0+255),w,b
  5723  002404  5B9B               	subwfb	(___fldiv@rem+1)& (0+255),f,b
  5724  002406  5194               	movf	(___fldiv@a+2)& (0+255),w,b
  5725  002408  5B9C               	subwfb	(___fldiv@rem+2)& (0+255),f,b
  5726  00240A  5195               	movf	(___fldiv@a+3)& (0+255),w,b
  5727  00240C  5B9D               	subwfb	(___fldiv@rem+3)& (0+255),f,b
  5728  00240E                     l3660:
  5729                           
  5730                           ; BSR set to: 0
  5731  00240E  2BA6               	incf	___fldiv@aexp& (0+255),f,b
  5732  002410                     l943:
  5733                           
  5734                           ; BSR set to: 0
  5735  002410  0E19               	movlw	25
  5736  002412  65A6               	cpfsgt	___fldiv@aexp& (0+255),b
  5737  002414  EF0E  F012         	goto	u4581
  5738  002418  EF10  F012         	goto	u4580
  5739  00241C                     u4581:
  5740  00241C  EFD0  F011         	goto	l3646
  5741  002420                     u4580:
  5742  002420                     
  5743                           ; BSR set to: 0
  5744  002420  519A               	movf	___fldiv@rem& (0+255),w,b
  5745  002422  119B               	iorwf	(___fldiv@rem+1)& (0+255),w,b
  5746  002424  119C               	iorwf	(___fldiv@rem+2)& (0+255),w,b
  5747  002426  119D               	iorwf	(___fldiv@rem+3)& (0+255),w,b
  5748  002428  B4D8               	btfsc	status,2,c
  5749  00242A  EF19  F012         	goto	u4591
  5750  00242E  EF1B  F012         	goto	u4590
  5751  002432                     u4591:
  5752  002432  EF33  F012         	goto	l3672
  5753  002436                     u4590:
  5754  002436                     
  5755                           ; BSR set to: 0
  5756  002436  81A1               	bsf	___fldiv@grs& (0+255),0,b
  5757  002438  EF33  F012         	goto	l3672
  5758  00243C                     l3666:
  5759                           
  5760                           ; BSR set to: 0
  5761  00243C  90D8               	bcf	status,0,c
  5762  00243E  378E               	rlcf	___fldiv@b& (0+255),f,b
  5763  002440  378F               	rlcf	(___fldiv@b+1)& (0+255),f,b
  5764  002442  3790               	rlcf	(___fldiv@b+2)& (0+255),f,b
  5765  002444  3791               	rlcf	(___fldiv@b+3)& (0+255),f,b
  5766  002446                     
  5767                           ; BSR set to: 0
  5768  002446  AFA4               	btfss	(___fldiv@grs+3)& (0+255),7,b
  5769  002448  EF28  F012         	goto	u4601
  5770  00244C  EF2A  F012         	goto	u4600
  5771  002450                     u4601:
  5772  002450  EF2B  F012         	goto	l952
  5773  002454                     u4600:
  5774  002454                     
  5775                           ; BSR set to: 0
  5776  002454  818E               	bsf	___fldiv@b& (0+255),0,b
  5777  002456                     l952:
  5778                           
  5779                           ; BSR set to: 0
  5780  002456  90D8               	bcf	status,0,c
  5781  002458  37A1               	rlcf	___fldiv@grs& (0+255),f,b
  5782  00245A  37A2               	rlcf	(___fldiv@grs+1)& (0+255),f,b
  5783  00245C  37A3               	rlcf	(___fldiv@grs+2)& (0+255),f,b
  5784  00245E  37A4               	rlcf	(___fldiv@grs+3)& (0+255),f,b
  5785  002460  079F               	decf	___fldiv@new_exp& (0+255),f,b
  5786  002462  A0D8               	btfss	status,0,c
  5787  002464  07A0               	decf	(___fldiv@new_exp+1)& (0+255),f,b
  5788  002466                     l3672:
  5789                           
  5790                           ; BSR set to: 0
  5791  002466  AF90               	btfss	(___fldiv@b+2)& (0+255),7,b
  5792  002468  EF38  F012         	goto	u4611
  5793  00246C  EF3A  F012         	goto	u4610
  5794  002470                     u4611:
  5795  002470  EF1E  F012         	goto	l3666
  5796  002474                     u4610:
  5797  002474                     
  5798                           ; BSR set to: 0
  5799  002474  0E00               	movlw	0
  5800  002476  6FA6               	movwf	___fldiv@aexp& (0+255),b
  5801  002478                     
  5802                           ; BSR set to: 0
  5803  002478  AFA4               	btfss	(___fldiv@grs+3)& (0+255),7,b
  5804  00247A  EF41  F012         	goto	u4621
  5805  00247E  EF43  F012         	goto	u4620
  5806  002482                     u4621:
  5807  002482  EF67  F012         	goto	l954
  5808  002486                     u4620:
  5809  002486                     
  5810                           ; BSR set to: 0
  5811  002486  0EFF               	movlw	255
  5812  002488  15A1               	andwf	___fldiv@grs& (0+255),w,b
  5813  00248A  6F96               	movwf	??___fldiv& (0+255),b
  5814  00248C  0EFF               	movlw	255
  5815  00248E  15A2               	andwf	(___fldiv@grs+1)& (0+255),w,b
  5816  002490  6F97               	movwf	(??___fldiv+1)& (0+255),b
  5817  002492  0EFF               	movlw	255
  5818  002494  15A3               	andwf	(___fldiv@grs+2)& (0+255),w,b
  5819  002496  6F98               	movwf	(??___fldiv+2)& (0+255),b
  5820  002498  0E7F               	movlw	127
  5821  00249A  15A4               	andwf	(___fldiv@grs+3)& (0+255),w,b
  5822  00249C  6F99               	movwf	(??___fldiv+3)& (0+255),b
  5823  00249E  5196               	movf	??___fldiv& (0+255),w,b
  5824  0024A0  1197               	iorwf	(??___fldiv+1)& (0+255),w,b
  5825  0024A2  1198               	iorwf	(??___fldiv+2)& (0+255),w,b
  5826  0024A4  1199               	iorwf	(??___fldiv+3)& (0+255),w,b
  5827  0024A6  B4D8               	btfsc	status,2,c
  5828  0024A8  EF58  F012         	goto	u4631
  5829  0024AC  EF5A  F012         	goto	u4630
  5830  0024B0                     u4631:
  5831  0024B0  EF5E  F012         	goto	l955
  5832  0024B4                     u4630:
  5833  0024B4                     l3680:
  5834                           
  5835                           ; BSR set to: 0
  5836  0024B4  0E01               	movlw	1
  5837  0024B6  6FA6               	movwf	___fldiv@aexp& (0+255),b
  5838  0024B8  EF67  F012         	goto	l954
  5839  0024BC                     l955:
  5840                           
  5841                           ; BSR set to: 0
  5842  0024BC  A18E               	btfss	___fldiv@b& (0+255),0,b
  5843  0024BE  EF63  F012         	goto	u4641
  5844  0024C2  EF65  F012         	goto	u4640
  5845  0024C6                     u4641:
  5846  0024C6  EF67  F012         	goto	l954
  5847  0024CA                     u4640:
  5848  0024CA  EF5A  F012         	goto	l3680
  5849  0024CE                     l954:
  5850                           
  5851                           ; BSR set to: 0
  5852  0024CE  51A6               	movf	___fldiv@aexp& (0+255),w,b
  5853  0024D0  B4D8               	btfsc	status,2,c
  5854  0024D2  EF6D  F012         	goto	u4651
  5855  0024D6  EF6F  F012         	goto	u4650
  5856  0024DA                     u4651:
  5857  0024DA  EF93  F012         	goto	l3692
  5858  0024DE                     u4650:
  5859  0024DE                     
  5860                           ; BSR set to: 0
  5861  0024DE  0E01               	movlw	1
  5862  0024E0  278E               	addwf	___fldiv@b& (0+255),f,b
  5863  0024E2  0E00               	movlw	0
  5864  0024E4  238F               	addwfc	(___fldiv@b+1)& (0+255),f,b
  5865  0024E6  2390               	addwfc	(___fldiv@b+2)& (0+255),f,b
  5866  0024E8  2391               	addwfc	(___fldiv@b+3)& (0+255),f,b
  5867  0024EA                     
  5868                           ; BSR set to: 0
  5869  0024EA  A191               	btfss	(___fldiv@b+3)& (0+255),0,b
  5870  0024EC  EF7A  F012         	goto	u4661
  5871  0024F0  EF7C  F012         	goto	u4660
  5872  0024F4                     u4661:
  5873  0024F4  EF93  F012         	goto	l3692
  5874  0024F8                     u4660:
  5875  0024F8                     
  5876                           ; BSR set to: 0
  5877  0024F8  C08E  F096         	movff	___fldiv@b,??___fldiv
  5878  0024FC  C08F  F097         	movff	___fldiv@b+1,??___fldiv+1
  5879  002500  C090  F098         	movff	___fldiv@b+2,??___fldiv+2
  5880  002504  C091  F099         	movff	___fldiv@b+3,??___fldiv+3
  5881  002508  3599               	rlcf	(??___fldiv+3)& (0+255),w,b
  5882  00250A  3399               	rrcf	(??___fldiv+3)& (0+255),f,b
  5883  00250C  3398               	rrcf	(??___fldiv+2)& (0+255),f,b
  5884  00250E  3397               	rrcf	(??___fldiv+1)& (0+255),f,b
  5885  002510  3396               	rrcf	??___fldiv& (0+255),f,b
  5886  002512  C096  F08E         	movff	??___fldiv,___fldiv@b
  5887  002516  C097  F08F         	movff	??___fldiv+1,___fldiv@b+1
  5888  00251A  C098  F090         	movff	??___fldiv+2,___fldiv@b+2
  5889  00251E  C099  F091         	movff	??___fldiv+3,___fldiv@b+3
  5890  002522                     
  5891                           ; BSR set to: 0
  5892  002522  4B9F               	infsnz	___fldiv@new_exp& (0+255),f,b
  5893  002524  2BA0               	incf	(___fldiv@new_exp+1)& (0+255),f,b
  5894  002526                     l3692:
  5895                           
  5896                           ; BSR set to: 0
  5897  002526  BFA0               	btfsc	(___fldiv@new_exp+1)& (0+255),7,b
  5898  002528  EF9E  F012         	goto	u4671
  5899  00252C  51A0               	movf	(___fldiv@new_exp+1)& (0+255),w,b
  5900  00252E  E108               	bnz	u4670
  5901  002530  299F               	incf	___fldiv@new_exp& (0+255),w,b
  5902  002532  A0D8               	btfss	status,0,c
  5903  002534  EF9E  F012         	goto	u4671
  5904  002538  EFA0  F012         	goto	u4670
  5905  00253C                     u4671:
  5906  00253C  EFAB  F012         	goto	l3696
  5907  002540                     u4670:
  5908  002540                     
  5909                           ; BSR set to: 0
  5910  002540  0E00               	movlw	0
  5911  002542  6FA0               	movwf	(___fldiv@new_exp+1)& (0+255),b
  5912  002544  699F               	setf	___fldiv@new_exp& (0+255),b
  5913  002546  0E00               	movlw	0
  5914  002548  6F8E               	movwf	___fldiv@b& (0+255),b
  5915  00254A  0E00               	movlw	0
  5916  00254C  6F8F               	movwf	(___fldiv@b+1)& (0+255),b
  5917  00254E  0E00               	movlw	0
  5918  002550  6F90               	movwf	(___fldiv@b+2)& (0+255),b
  5919  002552  0E00               	movlw	0
  5920  002554  6F91               	movwf	(___fldiv@b+3)& (0+255),b
  5921  002556                     l3696:
  5922                           
  5923                           ; BSR set to: 0
  5924  002556  BFA0               	btfsc	(___fldiv@new_exp+1)& (0+255),7,b
  5925  002558  EFB8  F012         	goto	u4680
  5926  00255C  51A0               	movf	(___fldiv@new_exp+1)& (0+255),w,b
  5927  00255E  E106               	bnz	u4681
  5928  002560  059F               	decf	___fldiv@new_exp& (0+255),w,b
  5929  002562  B0D8               	btfsc	status,0,c
  5930  002564  EFB6  F012         	goto	u4681
  5931  002568  EFB8  F012         	goto	u4680
  5932  00256C                     u4681:
  5933  00256C  EFC6  F012         	goto	l3700
  5934  002570                     u4680:
  5935  002570                     
  5936                           ; BSR set to: 0
  5937  002570  0E00               	movlw	0
  5938  002572  6FA0               	movwf	(___fldiv@new_exp+1)& (0+255),b
  5939  002574  0E00               	movlw	0
  5940  002576  6F9F               	movwf	___fldiv@new_exp& (0+255),b
  5941  002578  0E00               	movlw	0
  5942  00257A  6F8E               	movwf	___fldiv@b& (0+255),b
  5943  00257C  0E00               	movlw	0
  5944  00257E  6F8F               	movwf	(___fldiv@b+1)& (0+255),b
  5945  002580  0E00               	movlw	0
  5946  002582  6F90               	movwf	(___fldiv@b+2)& (0+255),b
  5947  002584  0E00               	movlw	0
  5948  002586  6F91               	movwf	(___fldiv@b+3)& (0+255),b
  5949  002588  0E00               	movlw	0
  5950  00258A  6F9E               	movwf	___fldiv@sign& (0+255),b
  5951  00258C                     l3700:
  5952                           
  5953                           ; BSR set to: 0
  5954  00258C  C09F  F0A5         	movff	___fldiv@new_exp,___fldiv@bexp
  5955  002590                     
  5956                           ; BSR set to: 0
  5957  002590  A1A5               	btfss	___fldiv@bexp& (0+255),0,b
  5958  002592  EFCD  F012         	goto	u4691
  5959  002596  EFCF  F012         	goto	u4690
  5960  00259A                     u4691:
  5961  00259A  EFD2  F012         	goto	l3706
  5962  00259E                     u4690:
  5963  00259E                     
  5964                           ; BSR set to: 0
  5965  00259E  8F90               	bsf	(___fldiv@b+2)& (0+255),7,b
  5966  0025A0  EFD3  F012         	goto	l3708
  5967  0025A4                     l3706:
  5968                           
  5969                           ; BSR set to: 0
  5970  0025A4  9F90               	bcf	(___fldiv@b+2)& (0+255),7,b
  5971  0025A6                     l3708:
  5972                           
  5973                           ; BSR set to: 0
  5974  0025A6  90D8               	bcf	status,0,c
  5975  0025A8  31A5               	rrcf	___fldiv@bexp& (0+255),w,b
  5976  0025AA  6F91               	movwf	(___fldiv@b+3)& (0+255),b
  5977  0025AC  EF89  F011         	goto	l3622
  5978  0025B0                     l941:
  5979                           
  5980                           ; BSR set to: 0
  5981  0025B0  0012               	return		;funcret
  5982  0025B2                     __end_of___fldiv:
  5983                           	callstack 0
  5984                           
  5985 ;; *************** function ___fladd *****************
  5986 ;; Defined at:
  5987 ;;		line 10 in file "/opt/microchip/xc8/v2.32/pic/sources/c99/common/sprcadd.c"
  5988 ;; Parameters:    Size  Location     Type
  5989 ;;  b               4   39[BANK0 ] unsigned char 
  5990 ;;  a               4   43[BANK0 ] unsigned char 
  5991 ;; Auto vars:     Size  Location     Type
  5992 ;;  grs             1   54[BANK0 ] unsigned char 
  5993 ;;  bexp            1   53[BANK0 ] unsigned char 
  5994 ;;  aexp            1   52[BANK0 ] unsigned char 
  5995 ;;  signs           1   51[BANK0 ] unsigned char 
  5996 ;; Return value:  Size  Location     Type
  5997 ;;                  4   39[BANK0 ] unsigned char 
  5998 ;; Registers used:
  5999 ;;		wreg, status,2, status,0
  6000 ;; Tracked objects:
  6001 ;;		On entry : 0/0
  6002 ;;		On exit  : 0/0
  6003 ;;		Unchanged: 0/0
  6004 ;; Data sizes:     COMRAM   BANK0   BANK1   BANK2   BANK3   BANK4   BANK5
  6005 ;;      Params:         0       8       0       0       0       0       0
  6006 ;;      Locals:         0       4       0       0       0       0       0
  6007 ;;      Temps:          0       4       0       0       0       0       0
  6008 ;;      Totals:         0      16       0       0       0       0       0
  6009 ;;Total ram usage:       16 bytes
  6010 ;; Hardware stack levels used: 1
  6011 ;; Hardware stack levels required when called: 9
  6012 ;; This function calls:
  6013 ;;		Nothing
  6014 ;; This function is called by:
  6015 ;;		_USART_Init
  6016 ;; This function uses a non-reentrant model
  6017 ;;
  6018                           
  6019                           	psect	text5
  6020  00191C                     __ptext5:
  6021                           	callstack 0
  6022  00191C                     ___fladd:
  6023                           	callstack 20
  6024  00191C  0100               	movlb	0	; () banked
  6025  00191E  51AA               	movf	(___fladd@b+3)& (0+255),w,b
  6026  001920  0B80               	andlw	128
  6027  001922  6FB3               	movwf	___fladd@signs& (0+255),b
  6028  001924  51AA               	movf	(___fladd@b+3)& (0+255),w,b
  6029  001926  25AA               	addwf	(___fladd@b+3)& (0+255),w,b
  6030  001928  6FB5               	movwf	___fladd@bexp& (0+255),b
  6031  00192A                     
  6032                           ; BSR set to: 0
  6033  00192A  AFA9               	btfss	(___fladd@b+2)& (0+255),7,b
  6034  00192C  EF9A  F00C         	goto	u4081
  6035  001930  EF9C  F00C         	goto	u4080
  6036  001934                     u4081:
  6037  001934  EF9D  F00C         	goto	l3382
  6038  001938                     u4080:
  6039  001938                     
  6040                           ; BSR set to: 0
  6041  001938  81B5               	bsf	___fladd@bexp& (0+255),0,b
  6042  00193A                     l3382:
  6043                           
  6044                           ; BSR set to: 0
  6045  00193A  51B5               	movf	___fladd@bexp& (0+255),w,b
  6046  00193C  B4D8               	btfsc	status,2,c
  6047  00193E  EFA3  F00C         	goto	u4091
  6048  001942  EFA5  F00C         	goto	u4090
  6049  001946                     u4091:
  6050  001946  EFBA  F00C         	goto	l3392
  6051  00194A                     u4090:
  6052  00194A                     
  6053                           ; BSR set to: 0
  6054  00194A  29B5               	incf	___fladd@bexp& (0+255),w,b
  6055  00194C  A4D8               	btfss	status,2,c
  6056  00194E  EFAB  F00C         	goto	u4101
  6057  001952  EFAD  F00C         	goto	u4100
  6058  001956                     u4101:
  6059  001956  EFB5  F00C         	goto	l3388
  6060  00195A                     u4100:
  6061  00195A                     
  6062                           ; BSR set to: 0
  6063  00195A  0E00               	movlw	0
  6064  00195C  6FA7               	movwf	___fladd@b& (0+255),b
  6065  00195E  0E00               	movlw	0
  6066  001960  6FA8               	movwf	(___fladd@b+1)& (0+255),b
  6067  001962  0E00               	movlw	0
  6068  001964  6FA9               	movwf	(___fladd@b+2)& (0+255),b
  6069  001966  0E00               	movlw	0
  6070  001968  6FAA               	movwf	(___fladd@b+3)& (0+255),b
  6071  00196A                     l3388:
  6072                           
  6073                           ; BSR set to: 0
  6074  00196A  8FA9               	bsf	(___fladd@b+2)& (0+255),7,b
  6075  00196C                     
  6076                           ; BSR set to: 0
  6077  00196C  0E00               	movlw	0
  6078  00196E  6FAA               	movwf	(___fladd@b+3)& (0+255),b
  6079  001970  EFC2  F00C         	goto	l3394
  6080  001974                     l3392:
  6081                           
  6082                           ; BSR set to: 0
  6083  001974  0E00               	movlw	0
  6084  001976  6FA7               	movwf	___fladd@b& (0+255),b
  6085  001978  0E00               	movlw	0
  6086  00197A  6FA8               	movwf	(___fladd@b+1)& (0+255),b
  6087  00197C  0E00               	movlw	0
  6088  00197E  6FA9               	movwf	(___fladd@b+2)& (0+255),b
  6089  001980  0E00               	movlw	0
  6090  001982  6FAA               	movwf	(___fladd@b+3)& (0+255),b
  6091  001984                     l3394:
  6092                           
  6093                           ; BSR set to: 0
  6094  001984  51AE               	movf	(___fladd@a+3)& (0+255),w,b
  6095  001986  0B80               	andlw	128
  6096  001988  6FB4               	movwf	___fladd@aexp& (0+255),b
  6097  00198A                     
  6098                           ; BSR set to: 0
  6099  00198A  51B3               	movf	___fladd@signs& (0+255),w,b
  6100  00198C  19B4               	xorwf	___fladd@aexp& (0+255),w,b
  6101  00198E  B4D8               	btfsc	status,2,c
  6102  001990  EFCC  F00C         	goto	u4111
  6103  001994  EFCE  F00C         	goto	u4110
  6104  001998                     u4111:
  6105  001998  EFCF  F00C         	goto	l3400
  6106  00199C                     u4110:
  6107  00199C                     
  6108                           ; BSR set to: 0
  6109  00199C  8DB3               	bsf	___fladd@signs& (0+255),6,b
  6110  00199E                     l3400:
  6111                           
  6112                           ; BSR set to: 0
  6113  00199E  51AE               	movf	(___fladd@a+3)& (0+255),w,b
  6114  0019A0  25AE               	addwf	(___fladd@a+3)& (0+255),w,b
  6115  0019A2  6FB4               	movwf	___fladd@aexp& (0+255),b
  6116  0019A4                     
  6117                           ; BSR set to: 0
  6118  0019A4  AFAD               	btfss	(___fladd@a+2)& (0+255),7,b
  6119  0019A6  EFD7  F00C         	goto	u4121
  6120  0019AA  EFD9  F00C         	goto	u4120
  6121  0019AE                     u4121:
  6122  0019AE  EFDA  F00C         	goto	l3406
  6123  0019B2                     u4120:
  6124  0019B2                     
  6125                           ; BSR set to: 0
  6126  0019B2  81B4               	bsf	___fladd@aexp& (0+255),0,b
  6127  0019B4                     l3406:
  6128                           
  6129                           ; BSR set to: 0
  6130  0019B4  51B4               	movf	___fladd@aexp& (0+255),w,b
  6131  0019B6  B4D8               	btfsc	status,2,c
  6132  0019B8  EFE0  F00C         	goto	u4131
  6133  0019BC  EFE2  F00C         	goto	u4130
  6134  0019C0                     u4131:
  6135  0019C0  EFF7  F00C         	goto	l3416
  6136  0019C4                     u4130:
  6137  0019C4                     
  6138                           ; BSR set to: 0
  6139  0019C4  29B4               	incf	___fladd@aexp& (0+255),w,b
  6140  0019C6  A4D8               	btfss	status,2,c
  6141  0019C8  EFE8  F00C         	goto	u4141
  6142  0019CC  EFEA  F00C         	goto	u4140
  6143  0019D0                     u4141:
  6144  0019D0  EFF2  F00C         	goto	l3412
  6145  0019D4                     u4140:
  6146  0019D4                     
  6147                           ; BSR set to: 0
  6148  0019D4  0E00               	movlw	0
  6149  0019D6  6FAB               	movwf	___fladd@a& (0+255),b
  6150  0019D8  0E00               	movlw	0
  6151  0019DA  6FAC               	movwf	(___fladd@a+1)& (0+255),b
  6152  0019DC  0E00               	movlw	0
  6153  0019DE  6FAD               	movwf	(___fladd@a+2)& (0+255),b
  6154  0019E0  0E00               	movlw	0
  6155  0019E2  6FAE               	movwf	(___fladd@a+3)& (0+255),b
  6156  0019E4                     l3412:
  6157                           
  6158                           ; BSR set to: 0
  6159  0019E4  8FAD               	bsf	(___fladd@a+2)& (0+255),7,b
  6160  0019E6                     
  6161                           ; BSR set to: 0
  6162  0019E6  0E00               	movlw	0
  6163  0019E8  6FAE               	movwf	(___fladd@a+3)& (0+255),b
  6164  0019EA  EFFF  F00C         	goto	l3418
  6165  0019EE                     l3416:
  6166                           
  6167                           ; BSR set to: 0
  6168  0019EE  0E00               	movlw	0
  6169  0019F0  6FAB               	movwf	___fladd@a& (0+255),b
  6170  0019F2  0E00               	movlw	0
  6171  0019F4  6FAC               	movwf	(___fladd@a+1)& (0+255),b
  6172  0019F6  0E00               	movlw	0
  6173  0019F8  6FAD               	movwf	(___fladd@a+2)& (0+255),b
  6174  0019FA  0E00               	movlw	0
  6175  0019FC  6FAE               	movwf	(___fladd@a+3)& (0+255),b
  6176  0019FE                     l3418:
  6177                           
  6178                           ; BSR set to: 0
  6179  0019FE  51B5               	movf	___fladd@bexp& (0+255),w,b
  6180  001A00  5DB4               	subwf	___fladd@aexp& (0+255),w,b
  6181  001A02  B0D8               	btfsc	status,0,c
  6182  001A04  EF06  F00D         	goto	u4151
  6183  001A08  EF08  F00D         	goto	u4150
  6184  001A0C                     u4151:
  6185  001A0C  EF2F  F00D         	goto	l3454
  6186  001A10                     u4150:
  6187  001A10                     
  6188                           ; BSR set to: 0
  6189  001A10  ADB3               	btfss	___fladd@signs& (0+255),6,b
  6190  001A12  EF0D  F00D         	goto	u4161
  6191  001A16  EF0F  F00D         	goto	u4160
  6192  001A1A                     u4161:
  6193  001A1A  EF11  F00D         	goto	l3424
  6194  001A1E                     u4160:
  6195  001A1E                     
  6196                           ; BSR set to: 0
  6197  001A1E  0E80               	movlw	128
  6198  001A20  1BB3               	xorwf	___fladd@signs& (0+255),f,b
  6199  001A22                     l3424:
  6200                           
  6201                           ; BSR set to: 0
  6202  001A22  C0B5  F0B6         	movff	___fladd@bexp,___fladd@grs
  6203  001A26                     
  6204                           ; BSR set to: 0
  6205  001A26  C0B4  F0B5         	movff	___fladd@aexp,___fladd@bexp
  6206  001A2A                     
  6207                           ; BSR set to: 0
  6208  001A2A  C0B6  F0B4         	movff	___fladd@grs,___fladd@aexp
  6209  001A2E                     
  6210                           ; BSR set to: 0
  6211  001A2E  C0A7  F0B6         	movff	___fladd@b,___fladd@grs
  6212  001A32                     
  6213                           ; BSR set to: 0
  6214  001A32  C0AB  F0A7         	movff	___fladd@a,___fladd@b
  6215  001A36                     
  6216                           ; BSR set to: 0
  6217  001A36  C0B6  F0AB         	movff	___fladd@grs,___fladd@a
  6218  001A3A                     
  6219                           ; BSR set to: 0
  6220  001A3A  C0A8  F0B6         	movff	___fladd@b+1,___fladd@grs
  6221  001A3E                     
  6222                           ; BSR set to: 0
  6223  001A3E  C0AC  F0A8         	movff	___fladd@a+1,___fladd@b+1
  6224  001A42                     
  6225                           ; BSR set to: 0
  6226  001A42  C0B6  F0AC         	movff	___fladd@grs,___fladd@a+1
  6227  001A46                     
  6228                           ; BSR set to: 0
  6229  001A46  C0A9  F0B6         	movff	___fladd@b+2,___fladd@grs
  6230  001A4A                     
  6231                           ; BSR set to: 0
  6232  001A4A  C0AD  F0A9         	movff	___fladd@a+2,___fladd@b+2
  6233  001A4E                     
  6234                           ; BSR set to: 0
  6235  001A4E  C0B6  F0AD         	movff	___fladd@grs,___fladd@a+2
  6236  001A52                     
  6237                           ; BSR set to: 0
  6238  001A52  C0AA  F0B6         	movff	___fladd@b+3,___fladd@grs
  6239  001A56                     
  6240                           ; BSR set to: 0
  6241  001A56  C0AE  F0AA         	movff	___fladd@a+3,___fladd@b+3
  6242  001A5A                     
  6243                           ; BSR set to: 0
  6244  001A5A  C0B6  F0AE         	movff	___fladd@grs,___fladd@a+3
  6245  001A5E                     l3454:
  6246                           
  6247                           ; BSR set to: 0
  6248  001A5E  0E00               	movlw	0
  6249  001A60  6FB6               	movwf	___fladd@grs& (0+255),b
  6250  001A62                     
  6251                           ; BSR set to: 0
  6252  001A62  51B5               	movf	___fladd@bexp& (0+255),w,b
  6253  001A64  C0B4  F0AF         	movff	___fladd@aexp,??___fladd
  6254  001A68  6BB0               	clrf	(??___fladd+1)& (0+255),b
  6255  001A6A  5FAF               	subwf	??___fladd& (0+255),f,b
  6256  001A6C  0E00               	movlw	0
  6257  001A6E  5BB0               	subwfb	(??___fladd+1)& (0+255),f,b
  6258  001A70  BFB0               	btfsc	(??___fladd+1)& (0+255),7,b
  6259  001A72  EF44  F00D         	goto	u4171
  6260  001A76  51B0               	movf	(??___fladd+1)& (0+255),w,b
  6261  001A78  E109               	bnz	u4170
  6262  001A7A  0E1A               	movlw	26
  6263  001A7C  5DAF               	subwf	??___fladd& (0+255),w,b
  6264  001A7E  A0D8               	btfss	status,0,c
  6265  001A80  EF44  F00D         	goto	u4171
  6266  001A84  EF46  F00D         	goto	u4170
  6267  001A88                     u4171:
  6268  001A88  EF7D  F00D         	goto	l888
  6269  001A8C                     u4170:
  6270  001A8C                     
  6271                           ; BSR set to: 0
  6272  001A8C  51A7               	movf	___fladd@b& (0+255),w,b
  6273  001A8E  11A8               	iorwf	(___fladd@b+1)& (0+255),w,b
  6274  001A90  11A9               	iorwf	(___fladd@b+2)& (0+255),w,b
  6275  001A92  11AA               	iorwf	(___fladd@b+3)& (0+255),w,b
  6276  001A94  A4D8               	btfss	status,2,c
  6277  001A96  EF4F  F00D         	goto	u4181
  6278  001A9A  EF52  F00D         	goto	u4180
  6279  001A9E                     u4181:
  6280  001A9E  0E01               	movlw	1
  6281  001AA0  EF53  F00D         	goto	u4190
  6282  001AA4                     u4180:
  6283  001AA4  0E00               	movlw	0
  6284  001AA6                     u4190:
  6285  001AA6  6FB6               	movwf	___fladd@grs& (0+255),b
  6286  001AA8                     
  6287                           ; BSR set to: 0
  6288  001AA8  0E00               	movlw	0
  6289  001AAA  6FA7               	movwf	___fladd@b& (0+255),b
  6290  001AAC  0E00               	movlw	0
  6291  001AAE  6FA8               	movwf	(___fladd@b+1)& (0+255),b
  6292  001AB0  0E00               	movlw	0
  6293  001AB2  6FA9               	movwf	(___fladd@b+2)& (0+255),b
  6294  001AB4  0E00               	movlw	0
  6295  001AB6  6FAA               	movwf	(___fladd@b+3)& (0+255),b
  6296  001AB8                     
  6297                           ; BSR set to: 0
  6298  001AB8  C0B4  F0B5         	movff	___fladd@aexp,___fladd@bexp
  6299  001ABC  EF86  F00D         	goto	l887
  6300  001AC0                     l889:
  6301                           
  6302                           ; BSR set to: 0
  6303  001AC0  A1B6               	btfss	___fladd@grs& (0+255),0,b
  6304  001AC2  EF65  F00D         	goto	u4201
  6305  001AC6  EF67  F00D         	goto	u4200
  6306  001ACA                     u4201:
  6307  001ACA  EF6D  F00D         	goto	l3466
  6308  001ACE                     u4200:
  6309  001ACE                     
  6310                           ; BSR set to: 0
  6311  001ACE  90D8               	bcf	status,0,c
  6312  001AD0  31B6               	rrcf	___fladd@grs& (0+255),w,b
  6313  001AD2  0901               	iorlw	1
  6314  001AD4  6FB6               	movwf	___fladd@grs& (0+255),b
  6315  001AD6  EF6F  F00D         	goto	l3468
  6316  001ADA                     l3466:
  6317                           
  6318                           ; BSR set to: 0
  6319  001ADA  90D8               	bcf	status,0,c
  6320  001ADC  33B6               	rrcf	___fladd@grs& (0+255),f,b
  6321  001ADE                     l3468:
  6322                           
  6323                           ; BSR set to: 0
  6324  001ADE  A1A7               	btfss	___fladd@b& (0+255),0,b
  6325  001AE0  EF74  F00D         	goto	u4211
  6326  001AE4  EF76  F00D         	goto	u4210
  6327  001AE8                     u4211:
  6328  001AE8  EF77  F00D         	goto	l3472
  6329  001AEC                     u4210:
  6330  001AEC                     
  6331                           ; BSR set to: 0
  6332  001AEC  8FB6               	bsf	___fladd@grs& (0+255),7,b
  6333  001AEE                     l3472:
  6334                           
  6335                           ; BSR set to: 0
  6336  001AEE  35AA               	rlcf	(___fladd@b+3)& (0+255),w,b
  6337  001AF0  33AA               	rrcf	(___fladd@b+3)& (0+255),f,b
  6338  001AF2  33A9               	rrcf	(___fladd@b+2)& (0+255),f,b
  6339  001AF4  33A8               	rrcf	(___fladd@b+1)& (0+255),f,b
  6340  001AF6  33A7               	rrcf	___fladd@b& (0+255),f,b
  6341  001AF8                     
  6342                           ; BSR set to: 0
  6343  001AF8  2BB5               	incf	___fladd@bexp& (0+255),f,b
  6344  001AFA                     l888:
  6345                           
  6346                           ; BSR set to: 0
  6347  001AFA  51B4               	movf	___fladd@aexp& (0+255),w,b
  6348  001AFC  5DB5               	subwf	___fladd@bexp& (0+255),w,b
  6349  001AFE  A0D8               	btfss	status,0,c
  6350  001B00  EF84  F00D         	goto	u4221
  6351  001B04  EF86  F00D         	goto	u4220
  6352  001B08                     u4221:
  6353  001B08  EF60  F00D         	goto	l889
  6354  001B0C                     u4220:
  6355  001B0C                     l887:
  6356                           
  6357                           ; BSR set to: 0
  6358  001B0C  BDB3               	btfsc	___fladd@signs& (0+255),6,b
  6359  001B0E  EF8B  F00D         	goto	u4231
  6360  001B12  EF8D  F00D         	goto	u4230
  6361  001B16                     u4231:
  6362  001B16  EFCD  F00D         	goto	l3500
  6363  001B1A                     u4230:
  6364  001B1A                     
  6365                           ; BSR set to: 0
  6366  001B1A  51B5               	movf	___fladd@bexp& (0+255),w,b
  6367  001B1C  A4D8               	btfss	status,2,c
  6368  001B1E  EF93  F00D         	goto	u4241
  6369  001B22  EF95  F00D         	goto	u4240
  6370  001B26                     u4241:
  6371  001B26  EF9F  F00D         	goto	l3482
  6372  001B2A                     u4240:
  6373  001B2A                     
  6374                           ; BSR set to: 0
  6375  001B2A  0E00               	movlw	0
  6376  001B2C  6FA7               	movwf	?___fladd& (0+255),b
  6377  001B2E  0E00               	movlw	0
  6378  001B30  6FA8               	movwf	(?___fladd+1)& (0+255),b
  6379  001B32  0E00               	movlw	0
  6380  001B34  6FA9               	movwf	(?___fladd+2)& (0+255),b
  6381  001B36  0E00               	movlw	0
  6382  001B38  6FAA               	movwf	(?___fladd+3)& (0+255),b
  6383  001B3A  EFEE  F00E         	goto	l896
  6384  001B3E                     l3482:
  6385                           
  6386                           ; BSR set to: 0
  6387  001B3E  51AB               	movf	___fladd@a& (0+255),w,b
  6388  001B40  27A7               	addwf	___fladd@b& (0+255),f,b
  6389  001B42  51AC               	movf	(___fladd@a+1)& (0+255),w,b
  6390  001B44  23A8               	addwfc	(___fladd@b+1)& (0+255),f,b
  6391  001B46  51AD               	movf	(___fladd@a+2)& (0+255),w,b
  6392  001B48  23A9               	addwfc	(___fladd@b+2)& (0+255),f,b
  6393  001B4A  51AE               	movf	(___fladd@a+3)& (0+255),w,b
  6394  001B4C  23AA               	addwfc	(___fladd@b+3)& (0+255),f,b
  6395  001B4E                     
  6396                           ; BSR set to: 0
  6397  001B4E  A1AA               	btfss	(___fladd@b+3)& (0+255),0,b
  6398  001B50  EFAC  F00D         	goto	u4251
  6399  001B54  EFAE  F00D         	goto	u4250
  6400  001B58                     u4251:
  6401  001B58  EF5A  F00E         	goto	l3536
  6402  001B5C                     u4250:
  6403  001B5C                     
  6404                           ; BSR set to: 0
  6405  001B5C  A1B6               	btfss	___fladd@grs& (0+255),0,b
  6406  001B5E  EFB3  F00D         	goto	u4261
  6407  001B62  EFB5  F00D         	goto	u4260
  6408  001B66                     u4261:
  6409  001B66  EFBB  F00D         	goto	l3490
  6410  001B6A                     u4260:
  6411  001B6A                     
  6412                           ; BSR set to: 0
  6413  001B6A  90D8               	bcf	status,0,c
  6414  001B6C  31B6               	rrcf	___fladd@grs& (0+255),w,b
  6415  001B6E  0901               	iorlw	1
  6416  001B70  6FB6               	movwf	___fladd@grs& (0+255),b
  6417  001B72  EFBD  F00D         	goto	l3492
  6418  001B76                     l3490:
  6419                           
  6420                           ; BSR set to: 0
  6421  001B76  90D8               	bcf	status,0,c
  6422  001B78  33B6               	rrcf	___fladd@grs& (0+255),f,b
  6423  001B7A                     l3492:
  6424                           
  6425                           ; BSR set to: 0
  6426  001B7A  A1A7               	btfss	___fladd@b& (0+255),0,b
  6427  001B7C  EFC2  F00D         	goto	u4271
  6428  001B80  EFC4  F00D         	goto	u4270
  6429  001B84                     u4271:
  6430  001B84  EFC5  F00D         	goto	l3496
  6431  001B88                     u4270:
  6432  001B88                     
  6433                           ; BSR set to: 0
  6434  001B88  8FB6               	bsf	___fladd@grs& (0+255),7,b
  6435  001B8A                     l3496:
  6436                           
  6437                           ; BSR set to: 0
  6438  001B8A  35AA               	rlcf	(___fladd@b+3)& (0+255),w,b
  6439  001B8C  33AA               	rrcf	(___fladd@b+3)& (0+255),f,b
  6440  001B8E  33A9               	rrcf	(___fladd@b+2)& (0+255),f,b
  6441  001B90  33A8               	rrcf	(___fladd@b+1)& (0+255),f,b
  6442  001B92  33A7               	rrcf	___fladd@b& (0+255),f,b
  6443  001B94                     
  6444                           ; BSR set to: 0
  6445  001B94  2BB5               	incf	___fladd@bexp& (0+255),f,b
  6446  001B96  EF5A  F00E         	goto	l3536
  6447  001B9A                     l3500:
  6448                           
  6449                           ; BSR set to: 0
  6450  001B9A  51AB               	movf	___fladd@a& (0+255),w,b
  6451  001B9C  5DA7               	subwf	___fladd@b& (0+255),w,b
  6452  001B9E  51AC               	movf	(___fladd@a+1)& (0+255),w,b
  6453  001BA0  59A8               	subwfb	(___fladd@b+1)& (0+255),w,b
  6454  001BA2  51AD               	movf	(___fladd@a+2)& (0+255),w,b
  6455  001BA4  59A9               	subwfb	(___fladd@b+2)& (0+255),w,b
  6456  001BA6  51AA               	movf	(___fladd@b+3)& (0+255),w,b
  6457  001BA8  0A80               	xorlw	128
  6458  001BAA  6FAF               	movwf	??___fladd& (0+255),b
  6459  001BAC  51AE               	movf	(___fladd@a+3)& (0+255),w,b
  6460  001BAE  0A80               	xorlw	128
  6461  001BB0  59AF               	subwfb	??___fladd& (0+255),w,b
  6462  001BB2  B0D8               	btfsc	status,0,c
  6463  001BB4  EFDE  F00D         	goto	u4281
  6464  001BB8  EFE0  F00D         	goto	u4280
  6465  001BBC                     u4281:
  6466  001BBC  EF0B  F00E         	goto	l3510
  6467  001BC0                     u4280:
  6468  001BC0                     
  6469                           ; BSR set to: 0
  6470  001BC0  51A7               	movf	___fladd@b& (0+255),w,b
  6471  001BC2  5DAB               	subwf	___fladd@a& (0+255),w,b
  6472  001BC4  6FAF               	movwf	??___fladd& (0+255),b
  6473  001BC6  51A8               	movf	(___fladd@b+1)& (0+255),w,b
  6474  001BC8  59AC               	subwfb	(___fladd@a+1)& (0+255),w,b
  6475  001BCA  6FB0               	movwf	(??___fladd+1)& (0+255),b
  6476  001BCC  51A9               	movf	(___fladd@b+2)& (0+255),w,b
  6477  001BCE  59AD               	subwfb	(___fladd@a+2)& (0+255),w,b
  6478  001BD0  6FB1               	movwf	(??___fladd+2)& (0+255),b
  6479  001BD2  51AA               	movf	(___fladd@b+3)& (0+255),w,b
  6480  001BD4  59AE               	subwfb	(___fladd@a+3)& (0+255),w,b
  6481  001BD6  6FB2               	movwf	(??___fladd+3)& (0+255),b
  6482  001BD8  0EFF               	movlw	255
  6483  001BDA  25AF               	addwf	??___fladd& (0+255),w,b
  6484  001BDC  6FA7               	movwf	___fladd@b& (0+255),b
  6485  001BDE  0EFF               	movlw	255
  6486  001BE0  21B0               	addwfc	(??___fladd+1)& (0+255),w,b
  6487  001BE2  6FA8               	movwf	(___fladd@b+1)& (0+255),b
  6488  001BE4  0EFF               	movlw	255
  6489  001BE6  21B1               	addwfc	(??___fladd+2)& (0+255),w,b
  6490  001BE8  6FA9               	movwf	(___fladd@b+2)& (0+255),b
  6491  001BEA  0EFF               	movlw	255
  6492  001BEC  21B2               	addwfc	(??___fladd+3)& (0+255),w,b
  6493  001BEE  6FAA               	movwf	(___fladd@b+3)& (0+255),b
  6494  001BF0  0E80               	movlw	128
  6495  001BF2  1BB3               	xorwf	___fladd@signs& (0+255),f,b
  6496  001BF4                     
  6497                           ; BSR set to: 0
  6498  001BF4  6DB6               	negf	___fladd@grs& (0+255),b
  6499  001BF6                     
  6500                           ; BSR set to: 0
  6501  001BF6  51B6               	movf	___fladd@grs& (0+255),w,b
  6502  001BF8  A4D8               	btfss	status,2,c
  6503  001BFA  EF01  F00E         	goto	u4291
  6504  001BFE  EF03  F00E         	goto	u4290
  6505  001C02                     u4291:
  6506  001C02  EF13  F00E         	goto	l904
  6507  001C06                     u4290:
  6508  001C06                     
  6509                           ; BSR set to: 0
  6510  001C06  0E01               	movlw	1
  6511  001C08  27A7               	addwf	___fladd@b& (0+255),f,b
  6512  001C0A  0E00               	movlw	0
  6513  001C0C  23A8               	addwfc	(___fladd@b+1)& (0+255),f,b
  6514  001C0E  23A9               	addwfc	(___fladd@b+2)& (0+255),f,b
  6515  001C10  23AA               	addwfc	(___fladd@b+3)& (0+255),f,b
  6516  001C12  EF13  F00E         	goto	l904
  6517  001C16                     l3510:
  6518                           
  6519                           ; BSR set to: 0
  6520  001C16  51AB               	movf	___fladd@a& (0+255),w,b
  6521  001C18  5FA7               	subwf	___fladd@b& (0+255),f,b
  6522  001C1A  51AC               	movf	(___fladd@a+1)& (0+255),w,b
  6523  001C1C  5BA8               	subwfb	(___fladd@b+1)& (0+255),f,b
  6524  001C1E  51AD               	movf	(___fladd@a+2)& (0+255),w,b
  6525  001C20  5BA9               	subwfb	(___fladd@b+2)& (0+255),f,b
  6526  001C22  51AE               	movf	(___fladd@a+3)& (0+255),w,b
  6527  001C24  5BAA               	subwfb	(___fladd@b+3)& (0+255),f,b
  6528  001C26                     l904:
  6529                           
  6530                           ; BSR set to: 0
  6531  001C26  51A7               	movf	___fladd@b& (0+255),w,b
  6532  001C28  11A8               	iorwf	(___fladd@b+1)& (0+255),w,b
  6533  001C2A  11A9               	iorwf	(___fladd@b+2)& (0+255),w,b
  6534  001C2C  11AA               	iorwf	(___fladd@b+3)& (0+255),w,b
  6535  001C2E  A4D8               	btfss	status,2,c
  6536  001C30  EF1C  F00E         	goto	u4301
  6537  001C34  EF1E  F00E         	goto	u4300
  6538  001C38                     u4301:
  6539  001C38  EF53  F00E         	goto	l3534
  6540  001C3C                     u4300:
  6541  001C3C                     
  6542                           ; BSR set to: 0
  6543  001C3C  51B6               	movf	___fladd@grs& (0+255),w,b
  6544  001C3E  A4D8               	btfss	status,2,c
  6545  001C40  EF24  F00E         	goto	u4311
  6546  001C44  EF26  F00E         	goto	u4310
  6547  001C48                     u4311:
  6548  001C48  EF53  F00E         	goto	l3534
  6549  001C4C                     u4310:
  6550  001C4C                     
  6551                           ; BSR set to: 0
  6552  001C4C  0E00               	movlw	0
  6553  001C4E  6FA7               	movwf	?___fladd& (0+255),b
  6554  001C50  0E00               	movlw	0
  6555  001C52  6FA8               	movwf	(?___fladd+1)& (0+255),b
  6556  001C54  0E00               	movlw	0
  6557  001C56  6FA9               	movwf	(?___fladd+2)& (0+255),b
  6558  001C58  0E00               	movlw	0
  6559  001C5A  6FAA               	movwf	(?___fladd+3)& (0+255),b
  6560  001C5C  EFEE  F00E         	goto	l896
  6561  001C60                     l3518:
  6562                           
  6563                           ; BSR set to: 0
  6564  001C60  90D8               	bcf	status,0,c
  6565  001C62  37A7               	rlcf	___fladd@b& (0+255),f,b
  6566  001C64  37A8               	rlcf	(___fladd@b+1)& (0+255),f,b
  6567  001C66  37A9               	rlcf	(___fladd@b+2)& (0+255),f,b
  6568  001C68  37AA               	rlcf	(___fladd@b+3)& (0+255),f,b
  6569  001C6A                     
  6570                           ; BSR set to: 0
  6571  001C6A  AFB6               	btfss	___fladd@grs& (0+255),7,b
  6572  001C6C  EF3A  F00E         	goto	u4321
  6573  001C70  EF3C  F00E         	goto	u4320
  6574  001C74                     u4321:
  6575  001C74  EF3D  F00E         	goto	l3524
  6576  001C78                     u4320:
  6577  001C78                     
  6578                           ; BSR set to: 0
  6579  001C78  81A7               	bsf	___fladd@b& (0+255),0,b
  6580  001C7A                     l3524:
  6581                           
  6582                           ; BSR set to: 0
  6583  001C7A  A1B6               	btfss	___fladd@grs& (0+255),0,b
  6584  001C7C  EF42  F00E         	goto	u4331
  6585  001C80  EF44  F00E         	goto	u4330
  6586  001C84                     u4331:
  6587  001C84  EF48  F00E         	goto	l3528
  6588  001C88                     u4330:
  6589  001C88                     
  6590                           ; BSR set to: 0
  6591  001C88  80D8               	bsf	status,0,c
  6592  001C8A  37B6               	rlcf	___fladd@grs& (0+255),f,b
  6593  001C8C  EF4A  F00E         	goto	l3530
  6594  001C90                     l3528:
  6595                           
  6596                           ; BSR set to: 0
  6597  001C90  90D8               	bcf	status,0,c
  6598  001C92  37B6               	rlcf	___fladd@grs& (0+255),f,b
  6599  001C94                     l3530:
  6600                           
  6601                           ; BSR set to: 0
  6602  001C94  51B5               	movf	___fladd@bexp& (0+255),w,b
  6603  001C96  B4D8               	btfsc	status,2,c
  6604  001C98  EF50  F00E         	goto	u4341
  6605  001C9C  EF52  F00E         	goto	u4340
  6606  001CA0                     u4341:
  6607  001CA0  EF53  F00E         	goto	l3534
  6608  001CA4                     u4340:
  6609  001CA4                     
  6610                           ; BSR set to: 0
  6611  001CA4  07B5               	decf	___fladd@bexp& (0+255),f,b
  6612  001CA6                     l3534:
  6613                           
  6614                           ; BSR set to: 0
  6615  001CA6  AFA9               	btfss	(___fladd@b+2)& (0+255),7,b
  6616  001CA8  EF58  F00E         	goto	u4351
  6617  001CAC  EF5A  F00E         	goto	u4350
  6618  001CB0                     u4351:
  6619  001CB0  EF30  F00E         	goto	l3518
  6620  001CB4                     u4350:
  6621  001CB4                     l3536:
  6622                           
  6623                           ; BSR set to: 0
  6624  001CB4  0E00               	movlw	0
  6625  001CB6  6FB4               	movwf	___fladd@aexp& (0+255),b
  6626  001CB8                     
  6627                           ; BSR set to: 0
  6628  001CB8  AFB6               	btfss	___fladd@grs& (0+255),7,b
  6629  001CBA  EF61  F00E         	goto	u4361
  6630  001CBE  EF63  F00E         	goto	u4360
  6631  001CC2                     u4361:
  6632  001CC2  EF7B  F00E         	goto	l913
  6633  001CC6                     u4360:
  6634  001CC6                     
  6635                           ; BSR set to: 0
  6636  001CC6  C0B6  F0AF         	movff	___fladd@grs,??___fladd
  6637  001CCA  0E7F               	movlw	127
  6638  001CCC  17AF               	andwf	??___fladd& (0+255),f,b
  6639  001CCE  B4D8               	btfsc	status,2,c
  6640  001CD0  EF6C  F00E         	goto	u4371
  6641  001CD4  EF6E  F00E         	goto	u4370
  6642  001CD8                     u4371:
  6643  001CD8  EF72  F00E         	goto	l914
  6644  001CDC                     u4370:
  6645  001CDC                     l3542:
  6646                           
  6647                           ; BSR set to: 0
  6648  001CDC  0E01               	movlw	1
  6649  001CDE  6FB4               	movwf	___fladd@aexp& (0+255),b
  6650  001CE0  EF7B  F00E         	goto	l913
  6651  001CE4                     l914:
  6652                           
  6653                           ; BSR set to: 0
  6654  001CE4  A1A7               	btfss	___fladd@b& (0+255),0,b
  6655  001CE6  EF77  F00E         	goto	u4381
  6656  001CEA  EF79  F00E         	goto	u4380
  6657  001CEE                     u4381:
  6658  001CEE  EF7B  F00E         	goto	l913
  6659  001CF2                     u4380:
  6660  001CF2  EF6E  F00E         	goto	l3542
  6661  001CF6                     l913:
  6662                           
  6663                           ; BSR set to: 0
  6664  001CF6  51B4               	movf	___fladd@aexp& (0+255),w,b
  6665  001CF8  B4D8               	btfsc	status,2,c
  6666  001CFA  EF81  F00E         	goto	u4391
  6667  001CFE  EF83  F00E         	goto	u4390
  6668  001D02                     u4391:
  6669  001D02  EFAE  F00E         	goto	l3554
  6670  001D06                     u4390:
  6671  001D06                     
  6672                           ; BSR set to: 0
  6673  001D06  0E01               	movlw	1
  6674  001D08  27A7               	addwf	___fladd@b& (0+255),f,b
  6675  001D0A  0E00               	movlw	0
  6676  001D0C  23A8               	addwfc	(___fladd@b+1)& (0+255),f,b
  6677  001D0E  23A9               	addwfc	(___fladd@b+2)& (0+255),f,b
  6678  001D10  23AA               	addwfc	(___fladd@b+3)& (0+255),f,b
  6679  001D12                     
  6680                           ; BSR set to: 0
  6681  001D12  A1AA               	btfss	(___fladd@b+3)& (0+255),0,b
  6682  001D14  EF8E  F00E         	goto	u4401
  6683  001D18  EF90  F00E         	goto	u4400
  6684  001D1C                     u4401:
  6685  001D1C  EFAE  F00E         	goto	l3554
  6686  001D20                     u4400:
  6687  001D20                     
  6688                           ; BSR set to: 0
  6689  001D20  C0A7  F0AF         	movff	___fladd@b,??___fladd
  6690  001D24  C0A8  F0B0         	movff	___fladd@b+1,??___fladd+1
  6691  001D28  C0A9  F0B1         	movff	___fladd@b+2,??___fladd+2
  6692  001D2C  C0AA  F0B2         	movff	___fladd@b+3,??___fladd+3
  6693  001D30  35B2               	rlcf	(??___fladd+3)& (0+255),w,b
  6694  001D32  33B2               	rrcf	(??___fladd+3)& (0+255),f,b
  6695  001D34  33B1               	rrcf	(??___fladd+2)& (0+255),f,b
  6696  001D36  33B0               	rrcf	(??___fladd+1)& (0+255),f,b
  6697  001D38  33AF               	rrcf	??___fladd& (0+255),f,b
  6698  001D3A  C0AF  F0A7         	movff	??___fladd,___fladd@b
  6699  001D3E  C0B0  F0A8         	movff	??___fladd+1,___fladd@b+1
  6700  001D42  C0B1  F0A9         	movff	??___fladd+2,___fladd@b+2
  6701  001D46  C0B2  F0AA         	movff	??___fladd+3,___fladd@b+3
  6702  001D4A  29B5               	incf	___fladd@bexp& (0+255),w,b
  6703  001D4C  B4D8               	btfsc	status,2,c
  6704  001D4E  EFAB  F00E         	goto	u4411
  6705  001D52  EFAD  F00E         	goto	u4410
  6706  001D56                     u4411:
  6707  001D56  EFAE  F00E         	goto	l3554
  6708  001D5A                     u4410:
  6709  001D5A                     
  6710                           ; BSR set to: 0
  6711  001D5A  2BB5               	incf	___fladd@bexp& (0+255),f,b
  6712  001D5C                     l3554:
  6713                           
  6714                           ; BSR set to: 0
  6715  001D5C  29B5               	incf	___fladd@bexp& (0+255),w,b
  6716  001D5E  B4D8               	btfsc	status,2,c
  6717  001D60  EFB4  F00E         	goto	u4421
  6718  001D64  EFB6  F00E         	goto	u4420
  6719  001D68                     u4421:
  6720  001D68  EFBE  F00E         	goto	l3558
  6721  001D6C                     u4420:
  6722  001D6C                     
  6723                           ; BSR set to: 0
  6724  001D6C  51B5               	movf	___fladd@bexp& (0+255),w,b
  6725  001D6E  A4D8               	btfss	status,2,c
  6726  001D70  EFBC  F00E         	goto	u4431
  6727  001D74  EFBE  F00E         	goto	u4430
  6728  001D78                     u4431:
  6729  001D78  EFD0  F00E         	goto	l3562
  6730  001D7C                     u4430:
  6731  001D7C                     l3558:
  6732                           
  6733                           ; BSR set to: 0
  6734  001D7C  0E00               	movlw	0
  6735  001D7E  6FA7               	movwf	___fladd@b& (0+255),b
  6736  001D80  0E00               	movlw	0
  6737  001D82  6FA8               	movwf	(___fladd@b+1)& (0+255),b
  6738  001D84  0E00               	movlw	0
  6739  001D86  6FA9               	movwf	(___fladd@b+2)& (0+255),b
  6740  001D88  0E00               	movlw	0
  6741  001D8A  6FAA               	movwf	(___fladd@b+3)& (0+255),b
  6742  001D8C  51B5               	movf	___fladd@bexp& (0+255),w,b
  6743  001D8E  A4D8               	btfss	status,2,c
  6744  001D90  EFCC  F00E         	goto	u4441
  6745  001D94  EFCE  F00E         	goto	u4440
  6746  001D98                     u4441:
  6747  001D98  EFD0  F00E         	goto	l3562
  6748  001D9C                     u4440:
  6749  001D9C                     
  6750                           ; BSR set to: 0
  6751  001D9C  0E00               	movlw	0
  6752  001D9E  6FB3               	movwf	___fladd@signs& (0+255),b
  6753  001DA0                     l3562:
  6754                           
  6755                           ; BSR set to: 0
  6756  001DA0  A1B5               	btfss	___fladd@bexp& (0+255),0,b
  6757  001DA2  EFD5  F00E         	goto	u4451
  6758  001DA6  EFD7  F00E         	goto	u4450
  6759  001DAA                     u4451:
  6760  001DAA  EFDA  F00E         	goto	l3566
  6761  001DAE                     u4450:
  6762  001DAE                     
  6763                           ; BSR set to: 0
  6764  001DAE  8FA9               	bsf	(___fladd@b+2)& (0+255),7,b
  6765  001DB0  EFDB  F00E         	goto	l3568
  6766  001DB4                     l3566:
  6767                           
  6768                           ; BSR set to: 0
  6769  001DB4  9FA9               	bcf	(___fladd@b+2)& (0+255),7,b
  6770  001DB6                     l3568:
  6771                           
  6772                           ; BSR set to: 0
  6773  001DB6  90D8               	bcf	status,0,c
  6774  001DB8  31B5               	rrcf	___fladd@bexp& (0+255),w,b
  6775  001DBA  6FAA               	movwf	(___fladd@b+3)& (0+255),b
  6776  001DBC                     
  6777                           ; BSR set to: 0
  6778  001DBC  AFB3               	btfss	___fladd@signs& (0+255),7,b
  6779  001DBE  EFE3  F00E         	goto	u4461
  6780  001DC2  EFE5  F00E         	goto	u4460
  6781  001DC6                     u4461:
  6782  001DC6  EFE6  F00E         	goto	l3574
  6783  001DCA                     u4460:
  6784  001DCA                     
  6785                           ; BSR set to: 0
  6786  001DCA  8FAA               	bsf	(___fladd@b+3)& (0+255),7,b
  6787  001DCC                     l3574:
  6788                           
  6789                           ; BSR set to: 0
  6790  001DCC  C0A7  F0A7         	movff	___fladd@b,?___fladd
  6791  001DD0  C0A8  F0A8         	movff	___fladd@b+1,?___fladd+1
  6792  001DD4  C0A9  F0A9         	movff	___fladd@b+2,?___fladd+2
  6793  001DD8  C0AA  F0AA         	movff	___fladd@b+3,?___fladd+3
  6794  001DDC                     l896:
  6795                           
  6796                           ; BSR set to: 0
  6797  001DDC  0012               	return		;funcret
  6798  001DDE                     __end_of___fladd:
  6799                           	callstack 0
  6800                           
  6801 ;; *************** function _USART_EnviaMsg *****************
  6802 ;; Defined at:
  6803 ;;		line 819 in file "glory.c"
  6804 ;; Parameters:    Size  Location     Type
  6805 ;;  msgout          2    0[BANK0 ] PTR unsigned char 
  6806 ;;		 -> STR_48(5), STR_47(7), STR_46(43), MsgAyuda(107), 
  6807 ;;		 -> STR_44(15), STR_42(16), STR_40(7), STR_38(7), 
  6808 ;;		 -> STR_36(7), STR_34(14), STR_33(3), STR_31(7), 
  6809 ;;		 -> STR_29(7), STR_27(10), STR_25(14), txt(5), 
  6810 ;;		 -> STR_23(13), MsgPersonalidad2(29), MsgPersonalidad1(26), MsgVersion(20), 
  6811 ;;		 -> STR_22(44), STR_21(20), STR_20(24), STR_19(29), 
  6812 ;;		 -> STR_18(11), STR_17(30), STR_16(12), STR_15(12), 
  6813 ;;		 -> STR_14(43), STR_13(43), STR_12(29), STR_11(12), 
  6814 ;;		 -> STR_10(12), STR_9(22), STR_8(22), STR_7(22), 
  6815 ;;		 -> STR_6(20), STR_5(15), STR_4(24), STR_3(30), 
  6816 ;;		 -> CRLF(3), STR_2(12), STR_1(2), 
  6817 ;; Auto vars:     Size  Location     Type
  6818 ;;  letraout        1    2[BANK0 ] unsigned char 
  6819 ;; Return value:  Size  Location     Type
  6820 ;;                  1    wreg      void 
  6821 ;; Registers used:
  6822 ;;		wreg, fsr1l, fsr1h, status,2, status,0, tblptrl, tblptrh, tblptru
  6823 ;; Tracked objects:
  6824 ;;		On entry : 0/0
  6825 ;;		On exit  : 0/0
  6826 ;;		Unchanged: 0/0
  6827 ;; Data sizes:     COMRAM   BANK0   BANK1   BANK2   BANK3   BANK4   BANK5
  6828 ;;      Params:         0       2       0       0       0       0       0
  6829 ;;      Locals:         0       1       0       0       0       0       0
  6830 ;;      Temps:          0       0       0       0       0       0       0
  6831 ;;      Totals:         0       3       0       0       0       0       0
  6832 ;;Total ram usage:        3 bytes
  6833 ;; Hardware stack levels used: 1
  6834 ;; Hardware stack levels required when called: 9
  6835 ;; This function calls:
  6836 ;;		Nothing
  6837 ;; This function is called by:
  6838 ;;		_main
  6839 ;; This function uses a non-reentrant model
  6840 ;;
  6841                           
  6842                           	psect	text6
  6843  00341C                     __ptext6:
  6844                           	callstack 0
  6845  00341C                     _USART_EnviaMsg:
  6846                           	callstack 21
  6847  00341C                     
  6848                           ;glory.c: 819: void USART_EnviaMsg (char *msgout);glory.c: 820: {;glory.c: 821:     char
      +                           letraout;;glory.c: 822:     while(*msgout != 0x00)
  6849  00341C  EF2D  F01A         	goto	l3826
  6850  003420                     l3822:
  6851                           
  6852                           ;glory.c: 823:     {;glory.c: 824:         letraout=*msgout;
  6853  003420  C080  FFF6         	movff	USART_EnviaMsg@msgout,tblptrl
  6854  003424  C081  FFF7         	movff	USART_EnviaMsg@msgout+1,tblptrh
  6855  003428  6AF8               	clrf	tblptru,c
  6856  00342A  0E05               	movlw	(high __ramtop+-1)
  6857  00342C  64F7               	cpfsgt	tblptrh,c
  6858  00342E  D003               	bra	u4887
  6859  003430  0008               	tblrd		*
  6860  003432  50F5               	movf	tablat,w,c
  6861  003434  D005               	bra	u4880
  6862  003436                     u4887:
  6863  003436  CFF6 FFE1          	movff	tblptrl,fsr1l
  6864  00343A  CFF7 FFE2          	movff	tblptrh,fsr1h
  6865  00343E  50E7               	movf	indf1,w,c
  6866  003440                     u4880:
  6867  003440  0100               	movlb	0	; () banked
  6868  003442  6F82               	movwf	USART_EnviaMsg@letraout& (0+255),b
  6869  003444                     
  6870                           ; BSR set to: 0
  6871                           ;glory.c: 825:         msgout++;
  6872  003444  4B80               	infsnz	USART_EnviaMsg@msgout& (0+255),f,b
  6873  003446  2B81               	incf	(USART_EnviaMsg@msgout+1)& (0+255),f,b
  6874  003448                     l352:
  6875  003448  A89E               	btfss	3998,4,c	;volatile
  6876  00344A  EF29  F01A         	goto	u4891
  6877  00344E  EF2B  F01A         	goto	u4890
  6878  003452                     u4891:
  6879  003452  EF24  F01A         	goto	l352
  6880  003456                     u4890:
  6881  003456                     
  6882                           ;glory.c: 827:         TXREG=letraout;
  6883  003456  C082  FFAD         	movff	USART_EnviaMsg@letraout,4013	;volatile
  6884  00345A                     l3826:
  6885                           
  6886                           ;glory.c: 822:     while(*msgout != 0x00)
  6887  00345A  C080  FFF6         	movff	USART_EnviaMsg@msgout,tblptrl
  6888  00345E  C081  FFF7         	movff	USART_EnviaMsg@msgout+1,tblptrh
  6889  003462  6AF8               	clrf	tblptru,c
  6890  003464  0E05               	movlw	(high __ramtop+-1)
  6891  003466  64F7               	cpfsgt	tblptrh,c
  6892  003468  D003               	bra	u4907
  6893  00346A  0008               	tblrd		*
  6894  00346C  50F5               	movf	tablat,w,c
  6895  00346E  D005               	bra	u4900
  6896  003470                     u4907:
  6897  003470  CFF6 FFE1          	movff	tblptrl,fsr1l
  6898  003474  CFF7 FFE2          	movff	tblptrh,fsr1h
  6899  003478  50E7               	movf	indf1,w,c
  6900  00347A                     u4900:
  6901  00347A  0900               	iorlw	0
  6902  00347C  A4D8               	btfss	status,2,c
  6903  00347E  EF43  F01A         	goto	u4911
  6904  003482  EF45  F01A         	goto	u4910
  6905  003486                     u4911:
  6906  003486  EF10  F01A         	goto	l3822
  6907  00348A                     u4910:
  6908  00348A  0012               	return		;funcret
  6909  00348C                     __end_of_USART_EnviaMsg:
  6910                           	callstack 0
  6911                           
  6912 ;; *************** function _isr *****************
  6913 ;; Defined at:
  6914 ;;		line 562 in file "glory.c"
  6915 ;; Parameters:    Size  Location     Type
  6916 ;;		None
  6917 ;; Auto vars:     Size  Location     Type
  6918 ;;  n               2    0        int 
  6919 ;;  letrain         1  125[COMRAM] unsigned char 
  6920 ;; Return value:  Size  Location     Type
  6921 ;;                  1    wreg      void 
  6922 ;; Registers used:
  6923 ;;		wreg, fsr1l, fsr1h, fsr2l, fsr2h, status,2, status,0, tblptrl, tblptrh, tblptru, prodl, prodh, cstack
  6924 ;; Tracked objects:
  6925 ;;		On entry : 0/0
  6926 ;;		On exit  : 0/0
  6927 ;;		Unchanged: 0/0
  6928 ;; Data sizes:     COMRAM   BANK0   BANK1   BANK2   BANK3   BANK4   BANK5
  6929 ;;      Params:         0       0       0       0       0       0       0
  6930 ;;      Locals:         1       0       0       0       0       0       0
  6931 ;;      Temps:         12       0       0       0       0       0       0
  6932 ;;      Totals:        13       0       0       0       0       0       0
  6933 ;;Total ram usage:       13 bytes
  6934 ;; Hardware stack levels used: 1
  6935 ;; Hardware stack levels required when called: 8
  6936 ;; This function calls:
  6937 ;;		_sprintf
  6938 ;;		i2_USART_EnviaMsg
  6939 ;; This function is called by:
  6940 ;;		Interrupt level 2
  6941 ;; This function uses a non-reentrant model
  6942 ;;
  6943                           
  6944                           	psect	intcode
  6945  000008                     __pintcode:
  6946                           	callstack 0
  6947  000008                     _isr:
  6948                           	callstack 20
  6949                           
  6950                           ;incstack = 0
  6951  000008  827F               	bsf	int$flags,1,c	;set compiler interrupt flag (level 2)
  6952  00000A  ED9B  F008         	call	int_func,f	;refresh shadow registers
  6953                           
  6954                           	psect	intcode_body
  6955  001136                     __pintcode_body:
  6956                           	callstack 20
  6957  001136                     int_func:
  6958                           	callstack 20
  6959  001136  0006               	pop		; remove dummy address from shadow register refresh
  6960  001138  CFE1 F074          	movff	fsr1l,??_isr+2
  6961  00113C  CFE2 F075          	movff	fsr1h,??_isr+3
  6962  001140  CFD9 F076          	movff	fsr2l,??_isr+4
  6963  001144  CFDA F077          	movff	fsr2h,??_isr+5
  6964  001148  CFF3 F078          	movff	prodl,??_isr+6
  6965  00114C  CFF4 F079          	movff	prodh,??_isr+7
  6966  001150  CFF6 F07A          	movff	tblptrl,??_isr+8
  6967  001154  CFF7 F07B          	movff	tblptrh,??_isr+9
  6968  001158  CFF8 F07C          	movff	tblptru,??_isr+10
  6969  00115C  CFF5 F07D          	movff	tablat,??_isr+11
  6970  001160                     
  6971                           ;glory.c: 564:     char letrain;;glory.c: 565:     int n;;glory.c: 569:     if((PIR1bits
      +                          .RCIF == 1) && (PIE1bits.RCIE == 1))
  6972  001160  AA9E               	btfss	158,5,c	;volatile
  6973  001162  EFB5  F008         	goto	i2u646_41
  6974  001166  EFB7  F008         	goto	i2u646_40
  6975  00116A                     i2u646_41:
  6976  00116A  EF2C  F00B         	goto	i2l302
  6977  00116E                     i2u646_40:
  6978  00116E  AA9D               	btfss	157,5,c	;volatile
  6979  001170  EFBC  F008         	goto	i2u647_41
  6980  001174  EFBE  F008         	goto	i2u647_40
  6981  001178                     i2u647_41:
  6982  001178  EF2C  F00B         	goto	i2l302
  6983  00117C                     i2u647_40:
  6984  00117C                     
  6985                           ;glory.c: 570:     {;glory.c: 571:         RCIF = 0;
  6986  00117C  9A9E               	bcf	3998,5,c	;volatile
  6987                           
  6988                           ;glory.c: 572:         letrain=RCREG;
  6989  00117E  CFAE F07E          	movff	4014,isr@letrain	;volatile
  6990                           
  6991                           ;glory.c: 575:         switch(letrain)
  6992  001182  EFDF  F00A         	goto	i2l4550
  6993  001186                     i2l4398:
  6994                           
  6995                           ;glory.c: 578:                 if (ValorStateShutter==8)
  6996  001186  0E08               	movlw	8
  6997  001188  0100               	movlb	0	; () banked
  6998  00118A  19E7               	xorwf	_ValorStateShutter& (0+255),w,b
  6999  00118C  11E8               	iorwf	(_ValorStateShutter+1)& (0+255),w,b
  7000  00118E  A4D8               	btfss	status,2,c
  7001  001190  EFCC  F008         	goto	i2u648_41
  7002  001194  EFCE  F008         	goto	i2u648_40
  7003  001198                     i2u648_41:
  7004  001198  EF2C  F00B         	goto	i2l302
  7005  00119C                     i2u648_40:
  7006  00119C                     
  7007                           ; BSR set to: 0
  7008                           ;glory.c: 579:                 {;glory.c: 580:                     ValorStateShutter=3;
  7009  00119C  0E00               	movlw	0
  7010  00119E  6FE8               	movwf	(_ValorStateShutter+1)& (0+255),b
  7011  0011A0  0E03               	movlw	3
  7012  0011A2  6FE7               	movwf	_ValorStateShutter& (0+255),b
  7013  0011A4                     
  7014                           ; BSR set to: 0
  7015                           ;glory.c: 581:                     LATE0=1;
  7016  0011A4  808D               	bsf	3981,0,c	;volatile
  7017  0011A6                     
  7018                           ; BSR set to: 0
  7019                           ;glory.c: 582:                     LATA5=0;
  7020  0011A6  9A89               	bcf	3977,5,c	;volatile
  7021  0011A8                     
  7022                           ; BSR set to: 0
  7023                           ;glory.c: 583:                     LATC1=1;
  7024  0011A8  828B               	bsf	3979,1,c	;volatile
  7025                           
  7026                           ;glory.c: 584:                     Tiempo1=0;
  7027  0011AA  0E00               	movlw	0
  7028  0011AC  6FD0               	movwf	(_Tiempo1+1)& (0+255),b
  7029  0011AE  0E00               	movlw	0
  7030  0011B0  6FCF               	movwf	_Tiempo1& (0+255),b
  7031                           
  7032                           ;glory.c: 585:                     TMR1H=0xB1;
  7033  0011B2  0EB1               	movlw	177
  7034  0011B4  6ECF               	movwf	207,c	;volatile
  7035                           
  7036                           ;glory.c: 586:                     TMR1L=0xE0;
  7037  0011B6  0EE0               	movlw	224
  7038  0011B8  6ECE               	movwf	206,c	;volatile
  7039  0011BA                     
  7040                           ; BSR set to: 0
  7041                           ;glory.c: 587:                     TMR1IF=0;
  7042  0011BA  909E               	bcf	3998,0,c	;volatile
  7043  0011BC                     
  7044                           ; BSR set to: 0
  7045                           ;glory.c: 588:                     TMR1IE=1;
  7046  0011BC  809D               	bsf	3997,0,c	;volatile
  7047  0011BE                     
  7048                           ; BSR set to: 0
  7049                           ;glory.c: 589:                     USART_EnviaMsg("START CLOSE");
  7050  0011BE  0EA7               	movlw	low STR_2
  7051  0011C0  6E01               	movwf	i2USART_EnviaMsg@msgout^0,c
  7052  0011C2  0E7F               	movlw	high STR_2
  7053  0011C4  6E02               	movwf	(i2USART_EnviaMsg@msgout+1)^0,c
  7054  0011C6  EC46  F01A         	call	i2_USART_EnviaMsg	;wreg free
  7055  0011CA                     
  7056                           ;glory.c: 590:                     USART_EnviaMsg(CRLF);
  7057  0011CA  0EFC               	movlw	low _CRLF
  7058  0011CC  6E01               	movwf	i2USART_EnviaMsg@msgout^0,c
  7059  0011CE  0E00               	movlw	high _CRLF
  7060  0011D0  6E02               	movwf	(i2USART_EnviaMsg@msgout+1)^0,c
  7061  0011D2  EC46  F01A         	call	i2_USART_EnviaMsg	;wreg free
  7062  0011D6                     
  7063                           ;glory.c: 591:                     USART_EnviaMsg("WARNING CLOSE SENSOR DISABLED");
  7064  0011D6  0E5C               	movlw	low STR_3
  7065  0011D8  6E01               	movwf	i2USART_EnviaMsg@msgout^0,c
  7066  0011DA  0E7E               	movlw	high STR_3
  7067  0011DC  6E02               	movwf	(i2USART_EnviaMsg@msgout+1)^0,c
  7068  0011DE  EC46  F01A         	call	i2_USART_EnviaMsg	;wreg free
  7069  0011E2                     i2l4418:
  7070                           
  7071                           ;glory.c: 592:                     USART_EnviaMsg(CRLF);
  7072  0011E2  0EFC               	movlw	low _CRLF
  7073  0011E4  6E01               	movwf	i2USART_EnviaMsg@msgout^0,c
  7074  0011E6  0E00               	movlw	high _CRLF
  7075  0011E8  6E02               	movwf	(i2USART_EnviaMsg@msgout+1)^0,c
  7076  0011EA  EC46  F01A         	call	i2_USART_EnviaMsg	;wreg free
  7077  0011EE  EF2C  F00B         	goto	i2l302
  7078  0011F2                     i2l4420:
  7079                           
  7080                           ;glory.c: 596:                 if (ValorStateShutter==9)
  7081  0011F2  0E09               	movlw	9
  7082  0011F4  0100               	movlb	0	; () banked
  7083  0011F6  19E7               	xorwf	_ValorStateShutter& (0+255),w,b
  7084  0011F8  11E8               	iorwf	(_ValorStateShutter+1)& (0+255),w,b
  7085  0011FA  A4D8               	btfss	status,2,c
  7086  0011FC  EF02  F009         	goto	i2u649_41
  7087  001200  EF04  F009         	goto	i2u649_40
  7088  001204                     i2u649_41:
  7089  001204  EF2C  F00B         	goto	i2l302
  7090  001208                     i2u649_40:
  7091  001208                     
  7092                           ; BSR set to: 0
  7093                           ;glory.c: 597:                 {;glory.c: 598:                     ValorStateShutter=2;
  7094  001208  0E00               	movlw	0
  7095  00120A  6FE8               	movwf	(_ValorStateShutter+1)& (0+255),b
  7096  00120C  0E02               	movlw	2
  7097  00120E  6FE7               	movwf	_ValorStateShutter& (0+255),b
  7098  001210                     
  7099                           ; BSR set to: 0
  7100                           ;glory.c: 599:                     LATE0=0;
  7101  001210  908D               	bcf	3981,0,c	;volatile
  7102  001212                     
  7103                           ; BSR set to: 0
  7104                           ;glory.c: 600:                     LATA5=1;
  7105  001212  8A89               	bsf	3977,5,c	;volatile
  7106  001214                     
  7107                           ; BSR set to: 0
  7108                           ;glory.c: 601:                     LATC1=1;
  7109  001214  828B               	bsf	3979,1,c	;volatile
  7110                           
  7111                           ;glory.c: 602:                     Tiempo1=0;
  7112  001216  0E00               	movlw	0
  7113  001218  6FD0               	movwf	(_Tiempo1+1)& (0+255),b
  7114  00121A  0E00               	movlw	0
  7115  00121C  6FCF               	movwf	_Tiempo1& (0+255),b
  7116                           
  7117                           ;glory.c: 603:                     TMR1H=0xB1;
  7118  00121E  0EB1               	movlw	177
  7119  001220  6ECF               	movwf	207,c	;volatile
  7120                           
  7121                           ;glory.c: 604:                     TMR1L=0xE0;
  7122  001222  0EE0               	movlw	224
  7123  001224  6ECE               	movwf	206,c	;volatile
  7124  001226                     
  7125                           ; BSR set to: 0
  7126                           ;glory.c: 605:                     TMR1IF=0;
  7127  001226  909E               	bcf	3998,0,c	;volatile
  7128  001228                     
  7129                           ; BSR set to: 0
  7130                           ;glory.c: 606:                     TMR1IE=1;
  7131  001228  809D               	bsf	3997,0,c	;volatile
  7132  00122A                     
  7133                           ; BSR set to: 0
  7134                           ;glory.c: 607:                     USART_EnviaMsg("START OPEN");
  7135  00122A  0EB3               	movlw	low STR_18
  7136  00122C  6E01               	movwf	i2USART_EnviaMsg@msgout^0,c
  7137  00122E  0E7F               	movlw	high STR_18
  7138  001230  6E02               	movwf	(i2USART_EnviaMsg@msgout+1)^0,c
  7139  001232  EC46  F01A         	call	i2_USART_EnviaMsg	;wreg free
  7140  001236                     
  7141                           ;glory.c: 608:                     USART_EnviaMsg(CRLF);
  7142  001236  0EFC               	movlw	low _CRLF
  7143  001238  6E01               	movwf	i2USART_EnviaMsg@msgout^0,c
  7144  00123A  0E00               	movlw	high _CRLF
  7145  00123C  6E02               	movwf	(i2USART_EnviaMsg@msgout+1)^0,c
  7146  00123E  EC46  F01A         	call	i2_USART_EnviaMsg	;wreg free
  7147  001242                     
  7148                           ;glory.c: 609:                     USART_EnviaMsg("WARNING OPEN SENSOR DISABLED");
  7149  001242  0E7A               	movlw	low STR_19
  7150  001244  6E01               	movwf	i2USART_EnviaMsg@msgout^0,c
  7151  001246  0E7E               	movlw	high STR_19
  7152  001248  6E02               	movwf	(i2USART_EnviaMsg@msgout+1)^0,c
  7153  00124A  EC46  F01A         	call	i2_USART_EnviaMsg	;wreg free
  7154  00124E  EFF1  F008         	goto	i2l4418
  7155  001252                     i2l4442:
  7156                           
  7157                           ;glory.c: 614:                 if (ValorStateLock==0)
  7158  001252  0100               	movlb	0	; () banked
  7159  001254  51E5               	movf	_ValorStateLock& (0+255),w,b
  7160  001256  11E6               	iorwf	(_ValorStateLock+1)& (0+255),w,b
  7161  001258  A4D8               	btfss	status,2,c
  7162  00125A  EF31  F009         	goto	i2u650_41
  7163  00125E  EF33  F009         	goto	i2u650_40
  7164  001262                     i2u650_41:
  7165  001262  EF2C  F00B         	goto	i2l302
  7166  001266                     i2u650_40:
  7167  001266                     
  7168                           ; BSR set to: 0
  7169                           ;glory.c: 615:                 {;glory.c: 616:                     ValorStateLock=1;
  7170  001266  0E00               	movlw	0
  7171  001268  6FE6               	movwf	(_ValorStateLock+1)& (0+255),b
  7172  00126A  0E01               	movlw	1
  7173  00126C  6FE5               	movwf	_ValorStateLock& (0+255),b
  7174  00126E                     
  7175                           ; BSR set to: 0
  7176                           ;glory.c: 618:                     LATA4=1;
  7177  00126E  8889               	bsf	3977,4,c	;volatile
  7178  001270                     
  7179                           ; BSR set to: 0
  7180                           ;glory.c: 619:                     LATA3=0;
  7181  001270  9689               	bcf	3977,3,c	;volatile
  7182  001272                     
  7183                           ; BSR set to: 0
  7184                           ;glory.c: 620:                     LATA1=1;
  7185  001272  8289               	bsf	3977,1,c	;volatile
  7186  001274                     
  7187                           ; BSR set to: 0
  7188                           ;glory.c: 621:                     LATA0=0;
  7189  001274  9089               	bcf	3977,0,c	;volatile
  7190  001276                     
  7191                           ; BSR set to: 0
  7192                           ;glory.c: 622:                     LATA2=1;
  7193  001276  8489               	bsf	3977,2,c	;volatile
  7194                           
  7195                           ;glory.c: 623:                     PulsoArriba=1;
  7196  001278  0E00               	movlw	0
  7197  00127A  6FDC               	movwf	(_PulsoArriba+1)& (0+255),b
  7198  00127C  0E01               	movlw	1
  7199  00127E  6FDB               	movwf	_PulsoArriba& (0+255),b
  7200                           
  7201                           ;glory.c: 624:                     TiempoPulso=0;
  7202  001280  0E00               	movlw	0
  7203  001282  6FDA               	movwf	(_TiempoPulso+1)& (0+255),b
  7204  001284  0E00               	movlw	0
  7205  001286  6FD9               	movwf	_TiempoPulso& (0+255),b
  7206                           
  7207                           ;glory.c: 626:                     Tiempo0=0;
  7208  001288  0E00               	movlw	0
  7209  00128A  6FD2               	movwf	(_Tiempo0+1)& (0+255),b
  7210  00128C  0E00               	movlw	0
  7211  00128E  6FD1               	movwf	_Tiempo0& (0+255),b
  7212  001290                     
  7213                           ; BSR set to: 0
  7214                           ;glory.c: 627:                     TMR0IE=1;
  7215  001290  8AF2               	bsf	4082,5,c	;volatile
  7216  001292                     
  7217                           ; BSR set to: 0
  7218                           ;glory.c: 628:                     USART_EnviaMsg("CRITICAL: door unlocked");
  7219  001292  0EB4               	movlw	low STR_20
  7220  001294  6E01               	movwf	i2USART_EnviaMsg@msgout^0,c
  7221  001296  0E7E               	movlw	high STR_20
  7222  001298  6E02               	movwf	(i2USART_EnviaMsg@msgout+1)^0,c
  7223  00129A  EC46  F01A         	call	i2_USART_EnviaMsg	;wreg free
  7224  00129E  EFF1  F008         	goto	i2l4418
  7225  0012A2                     i2l4462:
  7226                           
  7227                           ;glory.c: 633:                 if(ModoTrabajo = 0){
  7228  0012A2  0E00               	movlw	0
  7229  0012A4  0100               	movlb	0	; () banked
  7230  0012A6  6FD4               	movwf	(_ModoTrabajo+1)& (0+255),b
  7231  0012A8  0E00               	movlw	0
  7232  0012AA  6FD3               	movwf	_ModoTrabajo& (0+255),b
  7233  0012AC  EF2C  F00B         	goto	i2l302
  7234  0012B0                     i2l4476:
  7235                           
  7236                           ;glory.c: 647:                 if (ValorBag==2)
  7237  0012B0  0E02               	movlw	2
  7238  0012B2  0100               	movlb	0	; () banked
  7239  0012B4  19FA               	xorwf	_ValorBag& (0+255),w,b
  7240  0012B6  11FB               	iorwf	(_ValorBag+1)& (0+255),w,b
  7241  0012B8  A4D8               	btfss	status,2,c
  7242  0012BA  EF61  F009         	goto	i2u651_41
  7243  0012BE  EF63  F009         	goto	i2u651_40
  7244  0012C2                     i2u651_41:
  7245  0012C2  EF69  F009         	goto	i2l4480
  7246  0012C6                     i2u651_40:
  7247  0012C6                     
  7248                           ; BSR set to: 0
  7249                           ;glory.c: 648:                 {;glory.c: 649:                     EstadoAprobacionBolsa
      +                          =1;
  7250  0012C6  0E00               	movlw	0
  7251  0012C8  6FDE               	movwf	(_EstadoAprobacionBolsa+1)& (0+255),b
  7252  0012CA  0E01               	movlw	1
  7253  0012CC  6FDD               	movwf	_EstadoAprobacionBolsa& (0+255),b
  7254                           
  7255                           ;glory.c: 650:                 }else{
  7256  0012CE  EF2C  F00B         	goto	i2l302
  7257  0012D2                     i2l4480:
  7258                           
  7259                           ; BSR set to: 0
  7260                           ;glory.c: 651:                     ValorBag=0;
  7261  0012D2  0E00               	movlw	0
  7262  0012D4  6FFB               	movwf	(_ValorBag+1)& (0+255),b
  7263  0012D6  0E00               	movlw	0
  7264  0012D8  6FFA               	movwf	_ValorBag& (0+255),b
  7265  0012DA                     
  7266                           ; BSR set to: 0
  7267                           ;glory.c: 652:                     USART_EnviaMsg("CRITICAL : BAG IS NOT IN PLACE CAN'T 
      +                          APROVE");
  7268  0012DA  0EAF               	movlw	low STR_22
  7269  0012DC  6E01               	movwf	i2USART_EnviaMsg@msgout^0,c
  7270  0012DE  0E7D               	movlw	high STR_22
  7271  0012E0  6E02               	movwf	(i2USART_EnviaMsg@msgout+1)^0,c
  7272  0012E2  EC46  F01A         	call	i2_USART_EnviaMsg	;wreg free
  7273  0012E6  EFF1  F008         	goto	i2l4418
  7274  0012EA                     i2l4486:
  7275                           
  7276                           ;glory.c: 657:                 USART_EnviaMsg(MsgVersion);
  7277  0012EA  0EBD               	movlw	low _MsgVersion
  7278  0012EC  6E01               	movwf	i2USART_EnviaMsg@msgout^0,c
  7279  0012EE  0E01               	movlw	high _MsgVersion
  7280  0012F0  6E02               	movwf	(i2USART_EnviaMsg@msgout+1)^0,c
  7281  0012F2  EC46  F01A         	call	i2_USART_EnviaMsg	;wreg free
  7282                           
  7283                           ;glory.c: 658:                 USART_EnviaMsg(CRLF);
  7284  0012F6  0EFC               	movlw	low _CRLF
  7285  0012F8  6E01               	movwf	i2USART_EnviaMsg@msgout^0,c
  7286  0012FA  0E00               	movlw	high _CRLF
  7287  0012FC  6E02               	movwf	(i2USART_EnviaMsg@msgout+1)^0,c
  7288  0012FE  EC46  F01A         	call	i2_USART_EnviaMsg	;wreg free
  7289                           
  7290                           ;glory.c: 659:                 break;
  7291  001302  EF2C  F00B         	goto	i2l302
  7292  001306                     i2l4488:
  7293                           
  7294                           ;glory.c: 661:                 if(ModoTrabajo == 0){
  7295  001306  0100               	movlb	0	; () banked
  7296  001308  51D3               	movf	_ModoTrabajo& (0+255),w,b
  7297  00130A  11D4               	iorwf	(_ModoTrabajo+1)& (0+255),w,b
  7298  00130C  A4D8               	btfss	status,2,c
  7299  00130E  EF8B  F009         	goto	i2u652_41
  7300  001312  EF8D  F009         	goto	i2u652_40
  7301  001316                     i2u652_41:
  7302  001316  EF9B  F009         	goto	i2l4492
  7303  00131A                     i2u652_40:
  7304  00131A                     
  7305                           ; BSR set to: 0
  7306                           ;glory.c: 662:                     USART_EnviaMsg(MsgPersonalidad1);
  7307  00131A  0EA3               	movlw	low _MsgPersonalidad1
  7308  00131C  6E01               	movwf	i2USART_EnviaMsg@msgout^0,c
  7309  00131E  0E01               	movlw	high _MsgPersonalidad1
  7310  001320  6E02               	movwf	(i2USART_EnviaMsg@msgout+1)^0,c
  7311  001322  EC46  F01A         	call	i2_USART_EnviaMsg	;wreg free
  7312                           
  7313                           ;glory.c: 663:                     USART_EnviaMsg(CRLF);
  7314  001326  0EFC               	movlw	low _CRLF
  7315  001328  6E01               	movwf	i2USART_EnviaMsg@msgout^0,c
  7316  00132A  0E00               	movlw	high _CRLF
  7317  00132C  6E02               	movwf	(i2USART_EnviaMsg@msgout+1)^0,c
  7318  00132E  EC46  F01A         	call	i2_USART_EnviaMsg	;wreg free
  7319                           
  7320                           ;glory.c: 664:                 }else{
  7321  001332  EF2C  F00B         	goto	i2l302
  7322  001336                     i2l4492:
  7323                           
  7324                           ; BSR set to: 0
  7325                           ;glory.c: 665:                     USART_EnviaMsg(MsgPersonalidad2);
  7326  001336  0E86               	movlw	low _MsgPersonalidad2
  7327  001338  6E01               	movwf	i2USART_EnviaMsg@msgout^0,c
  7328  00133A  0E01               	movlw	high _MsgPersonalidad2
  7329  00133C  6E02               	movwf	(i2USART_EnviaMsg@msgout+1)^0,c
  7330  00133E  EC46  F01A         	call	i2_USART_EnviaMsg	;wreg free
  7331                           
  7332                           ;glory.c: 666:                     USART_EnviaMsg(CRLF);
  7333  001342  0EFC               	movlw	low _CRLF
  7334  001344  6E01               	movwf	i2USART_EnviaMsg@msgout^0,c
  7335  001346  0E00               	movlw	high _CRLF
  7336  001348  6E02               	movwf	(i2USART_EnviaMsg@msgout+1)^0,c
  7337  00134A  EC46  F01A         	call	i2_USART_EnviaMsg	;wreg free
  7338  00134E  EF2C  F00B         	goto	i2l302
  7339  001352                     i2l4494:
  7340                           
  7341                           ;glory.c: 670:                 USART_EnviaMsg("STATE : BAG ");
  7342  001352  0E82               	movlw	low STR_23
  7343  001354  6E01               	movwf	i2USART_EnviaMsg@msgout^0,c
  7344  001356  0E7F               	movlw	high STR_23
  7345  001358  6E02               	movwf	(i2USART_EnviaMsg@msgout+1)^0,c
  7346  00135A  EC46  F01A         	call	i2_USART_EnviaMsg	;wreg free
  7347  00135E  0EEB               	movlw	low _txt
  7348  001360  6E62               	movwf	sprintf@s^0,c
  7349  001362  0E00               	movlw	high _txt
  7350  001364  6E63               	movwf	(sprintf@s+1)^0,c
  7351  001366  0EF5               	movlw	low STR_24
  7352  001368  6E64               	movwf	sprintf@fmt^0,c
  7353  00136A  0E7F               	movlw	high STR_24
  7354  00136C  6E65               	movwf	(sprintf@fmt+1)^0,c
  7355  00136E  C0FA  F066         	movff	_ValorBag,?_sprintf+4
  7356  001372  C0FB  F067         	movff	_ValorBag+1,?_sprintf+5
  7357  001376  ECE4  F01A         	call	_sprintf	;wreg free
  7358  00137A                     
  7359                           ;glory.c: 672:                 USART_EnviaMsg(txt);
  7360  00137A  0EEB               	movlw	low _txt
  7361  00137C  6E01               	movwf	i2USART_EnviaMsg@msgout^0,c
  7362  00137E  0E00               	movlw	high _txt
  7363  001380  6E02               	movwf	(i2USART_EnviaMsg@msgout+1)^0,c
  7364  001382  EC46  F01A         	call	i2_USART_EnviaMsg	;wreg free
  7365  001386                     
  7366                           ;glory.c: 673:                 USART_EnviaMsg(" BAG_APROVED ");
  7367  001386  0E66               	movlw	low STR_25
  7368  001388  6E01               	movwf	i2USART_EnviaMsg@msgout^0,c
  7369  00138A  0E7F               	movlw	high STR_25
  7370  00138C  6E02               	movwf	(i2USART_EnviaMsg@msgout+1)^0,c
  7371  00138E  EC46  F01A         	call	i2_USART_EnviaMsg	;wreg free
  7372  001392  0EEB               	movlw	low _txt
  7373  001394  6E62               	movwf	sprintf@s^0,c
  7374  001396  0E00               	movlw	high _txt
  7375  001398  6E63               	movwf	(sprintf@s+1)^0,c
  7376  00139A  0EF0               	movlw	low STR_26
  7377  00139C  6E64               	movwf	sprintf@fmt^0,c
  7378  00139E  0E7F               	movlw	high STR_26
  7379  0013A0  6E65               	movwf	(sprintf@fmt+1)^0,c
  7380  0013A2  C0DD  F066         	movff	_EstadoAprobacionBolsa,?_sprintf+4
  7381  0013A6  C0DE  F067         	movff	_EstadoAprobacionBolsa+1,?_sprintf+5
  7382  0013AA  ECE4  F01A         	call	_sprintf	;wreg free
  7383                           
  7384                           ;glory.c: 675:                 USART_EnviaMsg(txt);
  7385  0013AE  0EEB               	movlw	low _txt
  7386  0013B0  6E01               	movwf	i2USART_EnviaMsg@msgout^0,c
  7387  0013B2  0E00               	movlw	high _txt
  7388  0013B4  6E02               	movwf	(i2USART_EnviaMsg@msgout+1)^0,c
  7389  0013B6  EC46  F01A         	call	i2_USART_EnviaMsg	;wreg free
  7390                           
  7391                           ;glory.c: 676:                 USART_EnviaMsg(" SHUTTER ");
  7392  0013BA  0EBE               	movlw	low STR_27
  7393  0013BC  6E01               	movwf	i2USART_EnviaMsg@msgout^0,c
  7394  0013BE  0E7F               	movlw	high STR_27
  7395  0013C0  6E02               	movwf	(i2USART_EnviaMsg@msgout+1)^0,c
  7396  0013C2  EC46  F01A         	call	i2_USART_EnviaMsg	;wreg free
  7397  0013C6  0EEB               	movlw	low _txt
  7398  0013C8  6E62               	movwf	sprintf@s^0,c
  7399  0013CA  0E00               	movlw	high _txt
  7400  0013CC  6E63               	movwf	(sprintf@s+1)^0,c
  7401  0013CE  0EEB               	movlw	low STR_28
  7402  0013D0  6E64               	movwf	sprintf@fmt^0,c
  7403  0013D2  0E7F               	movlw	high STR_28
  7404  0013D4  6E65               	movwf	(sprintf@fmt+1)^0,c
  7405  0013D6  C0E7  F066         	movff	_ValorStateShutter,?_sprintf+4
  7406  0013DA  C0E8  F067         	movff	_ValorStateShutter+1,?_sprintf+5
  7407  0013DE  ECE4  F01A         	call	_sprintf	;wreg free
  7408  0013E2                     
  7409                           ;glory.c: 678:                 USART_EnviaMsg(txt);
  7410  0013E2  0EEB               	movlw	low _txt
  7411  0013E4  6E01               	movwf	i2USART_EnviaMsg@msgout^0,c
  7412  0013E6  0E00               	movlw	high _txt
  7413  0013E8  6E02               	movwf	(i2USART_EnviaMsg@msgout+1)^0,c
  7414  0013EA  EC46  F01A         	call	i2_USART_EnviaMsg	;wreg free
  7415  0013EE                     
  7416                           ;glory.c: 679:                 USART_EnviaMsg(" LOCK ");
  7417  0013EE  0ECF               	movlw	low STR_29
  7418  0013F0  6E01               	movwf	i2USART_EnviaMsg@msgout^0,c
  7419  0013F2  0E7F               	movlw	high STR_29
  7420  0013F4  6E02               	movwf	(i2USART_EnviaMsg@msgout+1)^0,c
  7421  0013F6  EC46  F01A         	call	i2_USART_EnviaMsg	;wreg free
  7422  0013FA  0EEB               	movlw	low _txt
  7423  0013FC  6E62               	movwf	sprintf@s^0,c
  7424  0013FE  0E00               	movlw	high _txt
  7425  001400  6E63               	movwf	(sprintf@s+1)^0,c
  7426  001402  0EF0               	movlw	low STR_26
  7427  001404  6E64               	movwf	sprintf@fmt^0,c
  7428  001406  0E7F               	movlw	high STR_26
  7429  001408  6E65               	movwf	(sprintf@fmt+1)^0,c
  7430  00140A  C0E5  F066         	movff	_ValorStateLock,?_sprintf+4
  7431  00140E  C0E6  F067         	movff	_ValorStateLock+1,?_sprintf+5
  7432  001412  ECE4  F01A         	call	_sprintf	;wreg free
  7433                           
  7434                           ;glory.c: 681:                 USART_EnviaMsg(txt);
  7435  001416  0EEB               	movlw	low _txt
  7436  001418  6E01               	movwf	i2USART_EnviaMsg@msgout^0,c
  7437  00141A  0E00               	movlw	high _txt
  7438  00141C  6E02               	movwf	(i2USART_EnviaMsg@msgout+1)^0,c
  7439  00141E  EC46  F01A         	call	i2_USART_EnviaMsg	;wreg free
  7440                           
  7441                           ;glory.c: 682:                 USART_EnviaMsg(" GATE ");
  7442  001422  0EC8               	movlw	low STR_31
  7443  001424  6E01               	movwf	i2USART_EnviaMsg@msgout^0,c
  7444  001426  0E7F               	movlw	high STR_31
  7445  001428  6E02               	movwf	(i2USART_EnviaMsg@msgout+1)^0,c
  7446  00142A  EC46  F01A         	call	i2_USART_EnviaMsg	;wreg free
  7447  00142E  0EEB               	movlw	low _txt
  7448  001430  6E62               	movwf	sprintf@s^0,c
  7449  001432  0E00               	movlw	high _txt
  7450  001434  6E63               	movwf	(sprintf@s+1)^0,c
  7451  001436  0EF0               	movlw	low STR_26
  7452  001438  6E64               	movwf	sprintf@fmt^0,c
  7453  00143A  0E7F               	movlw	high STR_26
  7454  00143C  6E65               	movwf	(sprintf@fmt+1)^0,c
  7455  00143E  C0E9  F066         	movff	_ValorStateE,?_sprintf+4
  7456  001442  C0EA  F067         	movff	_ValorStateE+1,?_sprintf+5
  7457  001446  ECE4  F01A         	call	_sprintf	;wreg free
  7458  00144A                     
  7459                           ;glory.c: 684:                 USART_EnviaMsg(txt);
  7460  00144A  0EEB               	movlw	low _txt
  7461  00144C  6E01               	movwf	i2USART_EnviaMsg@msgout^0,c
  7462  00144E  0E00               	movlw	high _txt
  7463  001450  6E02               	movwf	(i2USART_EnviaMsg@msgout+1)^0,c
  7464  001452  EC46  F01A         	call	i2_USART_EnviaMsg	;wreg free
  7465  001456                     
  7466                           ;glory.c: 685:                 USART_EnviaMsg(" 0");
  7467  001456  0EFA               	movlw	low STR_33
  7468  001458  6E01               	movwf	i2USART_EnviaMsg@msgout^0,c
  7469  00145A  0E7F               	movlw	high STR_33
  7470  00145C  6E02               	movwf	(i2USART_EnviaMsg@msgout+1)^0,c
  7471  00145E  EC46  F01A         	call	i2_USART_EnviaMsg	;wreg free
  7472  001462                     
  7473                           ;glory.c: 686:                 USART_EnviaMsg(CRLF);
  7474  001462  0EFC               	movlw	low _CRLF
  7475  001464  6E01               	movwf	i2USART_EnviaMsg@msgout^0,c
  7476  001466  0E00               	movlw	high _CRLF
  7477  001468  6E02               	movwf	(i2USART_EnviaMsg@msgout+1)^0,c
  7478  00146A  EC46  F01A         	call	i2_USART_EnviaMsg	;wreg free
  7479  00146E                     
  7480                           ;glory.c: 687:                 USART_EnviaMsg("STATUS : A 0x");
  7481  00146E  0E74               	movlw	low STR_34
  7482  001470  6E01               	movwf	i2USART_EnviaMsg@msgout^0,c
  7483  001472  0E7F               	movlw	high STR_34
  7484  001474  6E02               	movwf	(i2USART_EnviaMsg@msgout+1)^0,c
  7485  001476  EC46  F01A         	call	i2_USART_EnviaMsg	;wreg free
  7486  00147A  0EEB               	movlw	low _txt
  7487  00147C  6E62               	movwf	sprintf@s^0,c
  7488  00147E  0E00               	movlw	high _txt
  7489  001480  6E63               	movwf	(sprintf@s+1)^0,c
  7490  001482  0EEB               	movlw	low STR_28
  7491  001484  6E64               	movwf	sprintf@fmt^0,c
  7492  001486  0E7F               	movlw	high STR_28
  7493  001488  6E65               	movwf	(sprintf@fmt+1)^0,c
  7494  00148A  CF80 F066          	movff	3968,?_sprintf+4	;volatile
  7495  00148E  6A67               	clrf	(?_sprintf+5)^0,c
  7496  001490  ECE4  F01A         	call	_sprintf	;wreg free
  7497                           
  7498                           ;glory.c: 689:                 USART_EnviaMsg(txt);
  7499  001494  0EEB               	movlw	low _txt
  7500  001496  6E01               	movwf	i2USART_EnviaMsg@msgout^0,c
  7501  001498  0E00               	movlw	high _txt
  7502  00149A  6E02               	movwf	(i2USART_EnviaMsg@msgout+1)^0,c
  7503  00149C  EC46  F01A         	call	i2_USART_EnviaMsg	;wreg free
  7504                           
  7505                           ;glory.c: 690:                 USART_EnviaMsg("  B 0x");
  7506  0014A0  0ED6               	movlw	low STR_36
  7507  0014A2  6E01               	movwf	i2USART_EnviaMsg@msgout^0,c
  7508  0014A4  0E7F               	movlw	high STR_36
  7509  0014A6  6E02               	movwf	(i2USART_EnviaMsg@msgout+1)^0,c
  7510  0014A8  EC46  F01A         	call	i2_USART_EnviaMsg	;wreg free
  7511  0014AC  0EEB               	movlw	low _txt
  7512  0014AE  6E62               	movwf	sprintf@s^0,c
  7513  0014B0  0E00               	movlw	high _txt
  7514  0014B2  6E63               	movwf	(sprintf@s+1)^0,c
  7515  0014B4  0EEB               	movlw	low STR_28
  7516  0014B6  6E64               	movwf	sprintf@fmt^0,c
  7517  0014B8  0E7F               	movlw	high STR_28
  7518  0014BA  6E65               	movwf	(sprintf@fmt+1)^0,c
  7519  0014BC  CF81 F066          	movff	3969,?_sprintf+4	;volatile
  7520  0014C0  6A67               	clrf	(?_sprintf+5)^0,c
  7521  0014C2  ECE4  F01A         	call	_sprintf	;wreg free
  7522  0014C6                     
  7523                           ;glory.c: 692:                 USART_EnviaMsg(txt);
  7524  0014C6  0EEB               	movlw	low _txt
  7525  0014C8  6E01               	movwf	i2USART_EnviaMsg@msgout^0,c
  7526  0014CA  0E00               	movlw	high _txt
  7527  0014CC  6E02               	movwf	(i2USART_EnviaMsg@msgout+1)^0,c
  7528  0014CE  EC46  F01A         	call	i2_USART_EnviaMsg	;wreg free
  7529  0014D2                     
  7530                           ;glory.c: 693:                 USART_EnviaMsg("  C 0x");
  7531  0014D2  0EDD               	movlw	low STR_38
  7532  0014D4  6E01               	movwf	i2USART_EnviaMsg@msgout^0,c
  7533  0014D6  0E7F               	movlw	high STR_38
  7534  0014D8  6E02               	movwf	(i2USART_EnviaMsg@msgout+1)^0,c
  7535  0014DA  EC46  F01A         	call	i2_USART_EnviaMsg	;wreg free
  7536  0014DE  0EEB               	movlw	low _txt
  7537  0014E0  6E62               	movwf	sprintf@s^0,c
  7538  0014E2  0E00               	movlw	high _txt
  7539  0014E4  6E63               	movwf	(sprintf@s+1)^0,c
  7540  0014E6  0EEB               	movlw	low STR_28
  7541  0014E8  6E64               	movwf	sprintf@fmt^0,c
  7542  0014EA  0E7F               	movlw	high STR_28
  7543  0014EC  6E65               	movwf	(sprintf@fmt+1)^0,c
  7544  0014EE  CF82 F066          	movff	3970,?_sprintf+4	;volatile
  7545  0014F2  6A67               	clrf	(?_sprintf+5)^0,c
  7546  0014F4  ECE4  F01A         	call	_sprintf	;wreg free
  7547                           
  7548                           ;glory.c: 695:                 USART_EnviaMsg(txt);
  7549  0014F8  0EEB               	movlw	low _txt
  7550  0014FA  6E01               	movwf	i2USART_EnviaMsg@msgout^0,c
  7551  0014FC  0E00               	movlw	high _txt
  7552  0014FE  6E02               	movwf	(i2USART_EnviaMsg@msgout+1)^0,c
  7553  001500  EC46  F01A         	call	i2_USART_EnviaMsg	;wreg free
  7554                           
  7555                           ;glory.c: 696:                 USART_EnviaMsg("  D 0x");
  7556  001504  0EE4               	movlw	low STR_40
  7557  001506  6E01               	movwf	i2USART_EnviaMsg@msgout^0,c
  7558  001508  0E7F               	movlw	high STR_40
  7559  00150A  6E02               	movwf	(i2USART_EnviaMsg@msgout+1)^0,c
  7560  00150C  EC46  F01A         	call	i2_USART_EnviaMsg	;wreg free
  7561  001510  0EEB               	movlw	low _txt
  7562  001512  6E62               	movwf	sprintf@s^0,c
  7563  001514  0E00               	movlw	high _txt
  7564  001516  6E63               	movwf	(sprintf@s+1)^0,c
  7565  001518  0EEB               	movlw	low STR_28
  7566  00151A  6E64               	movwf	sprintf@fmt^0,c
  7567  00151C  0E7F               	movlw	high STR_28
  7568  00151E  6E65               	movwf	(sprintf@fmt+1)^0,c
  7569  001520  CF83 F066          	movff	3971,?_sprintf+4	;volatile
  7570  001524  6A67               	clrf	(?_sprintf+5)^0,c
  7571  001526  ECE4  F01A         	call	_sprintf	;wreg free
  7572  00152A                     
  7573                           ;glory.c: 698:                 USART_EnviaMsg(txt);
  7574  00152A  0EEB               	movlw	low _txt
  7575  00152C  6E01               	movwf	i2USART_EnviaMsg@msgout^0,c
  7576  00152E  0E00               	movlw	high _txt
  7577  001530  6E02               	movwf	(i2USART_EnviaMsg@msgout+1)^0,c
  7578  001532  EC46  F01A         	call	i2_USART_EnviaMsg	;wreg free
  7579  001536                     
  7580                           ;glory.c: 699:                 USART_EnviaMsg("  BAG_SENSOR 0x");
  7581  001536  0E38               	movlw	low STR_42
  7582  001538  6E01               	movwf	i2USART_EnviaMsg@msgout^0,c
  7583  00153A  0E7F               	movlw	high STR_42
  7584  00153C  6E02               	movwf	(i2USART_EnviaMsg@msgout+1)^0,c
  7585  00153E  EC46  F01A         	call	i2_USART_EnviaMsg	;wreg free
  7586  001542  0EEB               	movlw	low _txt
  7587  001544  6E62               	movwf	sprintf@s^0,c
  7588  001546  0E00               	movlw	high _txt
  7589  001548  6E63               	movwf	(sprintf@s+1)^0,c
  7590  00154A  0EEB               	movlw	low STR_28
  7591  00154C  6E64               	movwf	sprintf@fmt^0,c
  7592  00154E  0E7F               	movlw	high STR_28
  7593  001550  6E65               	movwf	(sprintf@fmt+1)^0,c
  7594  001552  C0E3  F066         	movff	_ValorBagSensor,?_sprintf+4
  7595  001556  C0E4  F067         	movff	_ValorBagSensor+1,?_sprintf+5
  7596  00155A  ECE4  F01A         	call	_sprintf	;wreg free
  7597                           
  7598                           ;glory.c: 701:                 USART_EnviaMsg(txt);
  7599  00155E  0EEB               	movlw	low _txt
  7600  001560  6E01               	movwf	i2USART_EnviaMsg@msgout^0,c
  7601  001562  0E00               	movlw	high _txt
  7602  001564  6E02               	movwf	(i2USART_EnviaMsg@msgout+1)^0,c
  7603  001566  EC46  F01A         	call	i2_USART_EnviaMsg	;wreg free
  7604                           
  7605                           ;glory.c: 702:                 USART_EnviaMsg(" BAG_STATUS 0x");
  7606  00156A  0E57               	movlw	low STR_44
  7607  00156C  6E01               	movwf	i2USART_EnviaMsg@msgout^0,c
  7608  00156E  0E7F               	movlw	high STR_44
  7609  001570  6E02               	movwf	(i2USART_EnviaMsg@msgout+1)^0,c
  7610  001572  EC46  F01A         	call	i2_USART_EnviaMsg	;wreg free
  7611  001576  0EEB               	movlw	low _txt
  7612  001578  6E62               	movwf	sprintf@s^0,c
  7613  00157A  0E00               	movlw	high _txt
  7614  00157C  6E63               	movwf	(sprintf@s+1)^0,c
  7615  00157E  0EEB               	movlw	low STR_28
  7616  001580  6E64               	movwf	sprintf@fmt^0,c
  7617  001582  0E7F               	movlw	high STR_28
  7618  001584  6E65               	movwf	(sprintf@fmt+1)^0,c
  7619  001586  C0E1  F066         	movff	_ValorBagStatus,?_sprintf+4
  7620  00158A  C0E2  F067         	movff	_ValorBagStatus+1,?_sprintf+5
  7621  00158E  ECE4  F01A         	call	_sprintf	;wreg free
  7622  001592                     
  7623                           ;glory.c: 704:                 USART_EnviaMsg(txt);
  7624  001592  0EEB               	movlw	low _txt
  7625  001594  6E01               	movwf	i2USART_EnviaMsg@msgout^0,c
  7626  001596  0E00               	movlw	high _txt
  7627  001598  6E02               	movwf	(i2USART_EnviaMsg@msgout+1)^0,c
  7628  00159A  EC46  F01A         	call	i2_USART_EnviaMsg	;wreg free
  7629  00159E  EFF1  F008         	goto	i2l4418
  7630  0015A2                     i2l4546:
  7631                           
  7632                           ;glory.c: 708:                 USART_EnviaMsg(MsgAyuda);
  7633  0015A2  0E00               	movlw	low _MsgAyuda
  7634  0015A4  6E01               	movwf	i2USART_EnviaMsg@msgout^0,c
  7635  0015A6  0E02               	movlw	high _MsgAyuda
  7636  0015A8  6E02               	movwf	(i2USART_EnviaMsg@msgout+1)^0,c
  7637  0015AA  EC46  F01A         	call	i2_USART_EnviaMsg	;wreg free
  7638                           
  7639                           ;glory.c: 709:                 USART_EnviaMsg(CRLF);
  7640  0015AE  0EFC               	movlw	low _CRLF
  7641  0015B0  6E01               	movwf	i2USART_EnviaMsg@msgout^0,c
  7642  0015B2  0E00               	movlw	high _CRLF
  7643  0015B4  6E02               	movwf	(i2USART_EnviaMsg@msgout+1)^0,c
  7644  0015B6  EC46  F01A         	call	i2_USART_EnviaMsg	;wreg free
  7645                           
  7646                           ;glory.c: 710:                 break;
  7647  0015BA  EF2C  F00B         	goto	i2l302
  7648  0015BE                     i2l4550:
  7649  0015BE  507E               	movf	isr@letrain^0,w,c
  7650  0015C0  6E72               	movwf	??_isr^0,c
  7651  0015C2  6A73               	clrf	(??_isr+1)^0,c
  7652                           
  7653                           ; Switch on 2 bytes has been partitioned into a top level switch of size 1, and 1 sub-sw
      +                          itches
  7654                           ; Switch size 1, requested type "simple"
  7655                           ; Number of cases is 1, Range of values is 0 to 0
  7656                           ; switch strategies available:
  7657                           ; Name         Instructions Cycles
  7658                           ; simple_byte            4     3 (average)
  7659                           ;	Chosen strategy is simple_byte
  7660  0015C4  5073               	movf	(??_isr+1)^0,w,c
  7661  0015C6  0A00               	xorlw	0	; case 0
  7662  0015C8  B4D8               	btfsc	status,2,c
  7663  0015CA  EFE9  F00A         	goto	i2l4718
  7664  0015CE  EFD1  F00A         	goto	i2l4546
  7665  0015D2                     i2l4718:
  7666                           
  7667                           ; Switch size 1, requested type "simple"
  7668                           ; Number of cases is 16, Range of values is 65 to 118
  7669                           ; switch strategies available:
  7670                           ; Name         Instructions Cycles
  7671                           ; simple_byte           49    25 (average)
  7672                           ;	Chosen strategy is simple_byte
  7673  0015D2  5072               	movf	??_isr^0,w,c
  7674  0015D4  0A41               	xorlw	65	; case 65
  7675  0015D6  B4D8               	btfsc	status,2,c
  7676  0015D8  EF58  F009         	goto	i2l4476
  7677  0015DC  0A03               	xorlw	3	; case 66
  7678  0015DE  B4D8               	btfsc	status,2,c
  7679  0015E0  EF83  F009         	goto	i2l4488
  7680  0015E4  0A01               	xorlw	1	; case 67
  7681  0015E6  B4D8               	btfsc	status,2,c
  7682  0015E8  EFC3  F008         	goto	i2l4398
  7683  0015EC  0A06               	xorlw	6	; case 69
  7684  0015EE  B4D8               	btfsc	status,2,c
  7685  0015F0  EF51  F009         	goto	i2l4462
  7686  0015F4  0A0A               	xorlw	10	; case 79
  7687  0015F6  B4D8               	btfsc	status,2,c
  7688  0015F8  EFF9  F008         	goto	i2l4420
  7689  0015FC  0A1C               	xorlw	28	; case 83
  7690  0015FE  B4D8               	btfsc	status,2,c
  7691  001600  EFA9  F009         	goto	i2l4494
  7692  001604  0A06               	xorlw	6	; case 85
  7693  001606  B4D8               	btfsc	status,2,c
  7694  001608  EF29  F009         	goto	i2l4442
  7695  00160C  0A03               	xorlw	3	; case 86
  7696  00160E  B4D8               	btfsc	status,2,c
  7697  001610  EF75  F009         	goto	i2l4486
  7698  001614  0A37               	xorlw	55	; case 97
  7699  001616  B4D8               	btfsc	status,2,c
  7700  001618  EF58  F009         	goto	i2l4476
  7701  00161C  0A03               	xorlw	3	; case 98
  7702  00161E  B4D8               	btfsc	status,2,c
  7703  001620  EF83  F009         	goto	i2l4488
  7704  001624  0A01               	xorlw	1	; case 99
  7705  001626  B4D8               	btfsc	status,2,c
  7706  001628  EFC3  F008         	goto	i2l4398
  7707  00162C  0A06               	xorlw	6	; case 101
  7708  00162E  B4D8               	btfsc	status,2,c
  7709  001630  EF51  F009         	goto	i2l4462
  7710  001634  0A0A               	xorlw	10	; case 111
  7711  001636  B4D8               	btfsc	status,2,c
  7712  001638  EFF9  F008         	goto	i2l4420
  7713  00163C  0A1C               	xorlw	28	; case 115
  7714  00163E  B4D8               	btfsc	status,2,c
  7715  001640  EFA9  F009         	goto	i2l4494
  7716  001644  0A06               	xorlw	6	; case 117
  7717  001646  B4D8               	btfsc	status,2,c
  7718  001648  EF29  F009         	goto	i2l4442
  7719  00164C  0A03               	xorlw	3	; case 118
  7720  00164E  B4D8               	btfsc	status,2,c
  7721  001650  EF75  F009         	goto	i2l4486
  7722  001654  EFD1  F00A         	goto	i2l4546
  7723  001658                     i2l302:
  7724                           
  7725                           ;glory.c: 715:     if (TMR0IF && TMR0IE)
  7726  001658  A4F2               	btfss	4082,2,c	;volatile
  7727  00165A  EF31  F00B         	goto	i2u653_41
  7728  00165E  EF33  F00B         	goto	i2u653_40
  7729  001662                     i2u653_41:
  7730  001662  EFB5  F00B         	goto	i2l4592
  7731  001666                     i2u653_40:
  7732  001666  AAF2               	btfss	4082,5,c	;volatile
  7733  001668  EF38  F00B         	goto	i2u654_41
  7734  00166C  EF3A  F00B         	goto	i2u654_40
  7735  001670                     i2u654_41:
  7736  001670  EFB5  F00B         	goto	i2l4592
  7737  001674                     i2u654_40:
  7738  001674                     
  7739                           ;glory.c: 716:     {;glory.c: 717:         TMR0IF=0;
  7740  001674  94F2               	bcf	4082,2,c	;volatile
  7741  001676                     
  7742                           ;glory.c: 718:         TMR0H=0x3C;
  7743  001676  0E3C               	movlw	60
  7744  001678  6ED7               	movwf	215,c	;volatile
  7745                           
  7746                           ;glory.c: 719:         TMR0L=0xB0;
  7747  00167A  0EB0               	movlw	176
  7748  00167C  6ED6               	movwf	214,c	;volatile
  7749  00167E                     
  7750                           ;glory.c: 720:         Tiempo0=Tiempo0+100;
  7751  00167E  0E64               	movlw	100
  7752  001680  0100               	movlb	0	; () banked
  7753  001682  25D1               	addwf	_Tiempo0& (0+255),w,b
  7754  001684  6FD1               	movwf	_Tiempo0& (0+255),b
  7755  001686  0E00               	movlw	0
  7756  001688  21D2               	addwfc	(_Tiempo0+1)& (0+255),w,b
  7757  00168A  6FD2               	movwf	(_Tiempo0+1)& (0+255),b
  7758  00168C                     
  7759                           ; BSR set to: 0
  7760                           ;glory.c: 723:         if (PulsoArriba==1)
  7761  00168C  05DB               	decf	_PulsoArriba& (0+255),w,b
  7762  00168E  11DC               	iorwf	(_PulsoArriba+1)& (0+255),w,b
  7763  001690  A4D8               	btfss	status,2,c
  7764  001692  EF4D  F00B         	goto	i2u655_41
  7765  001696  EF4F  F00B         	goto	i2u655_40
  7766  00169A                     i2u655_41:
  7767  00169A  EF6F  F00B         	goto	i2l333
  7768  00169E                     i2u655_40:
  7769  00169E                     
  7770                           ; BSR set to: 0
  7771                           ;glory.c: 724:         {;glory.c: 725:             LATA4=1;
  7772  00169E  8889               	bsf	3977,4,c	;volatile
  7773                           
  7774                           ;glory.c: 726:             LATA3=0;
  7775  0016A0  9689               	bcf	3977,3,c	;volatile
  7776  0016A2                     
  7777                           ; BSR set to: 0
  7778                           ;glory.c: 727:             TiempoPulso=TiempoPulso+100;
  7779  0016A2  0E64               	movlw	100
  7780  0016A4  25D9               	addwf	_TiempoPulso& (0+255),w,b
  7781  0016A6  6FD9               	movwf	_TiempoPulso& (0+255),b
  7782  0016A8  0E00               	movlw	0
  7783  0016AA  21DA               	addwfc	(_TiempoPulso+1)& (0+255),w,b
  7784  0016AC  6FDA               	movwf	(_TiempoPulso+1)& (0+255),b
  7785                           
  7786                           ;glory.c: 728:             if (TiempoPulso>=1200)
  7787  0016AE  BFDA               	btfsc	(_TiempoPulso+1)& (0+255),7,b
  7788  0016B0  EF63  F00B         	goto	i2u656_41
  7789  0016B4  0EB0               	movlw	176
  7790  0016B6  5DD9               	subwf	_TiempoPulso& (0+255),w,b
  7791  0016B8  0E04               	movlw	4
  7792  0016BA  59DA               	subwfb	(_TiempoPulso+1)& (0+255),w,b
  7793  0016BC  A0D8               	btfss	status,0,c
  7794  0016BE  EF63  F00B         	goto	i2u656_41
  7795  0016C2  EF65  F00B         	goto	i2u656_40
  7796  0016C6                     i2u656_41:
  7797  0016C6  EF8D  F00B         	goto	i2l4572
  7798  0016CA                     i2u656_40:
  7799  0016CA                     
  7800                           ; BSR set to: 0
  7801                           ;glory.c: 729:             {;glory.c: 730:                 PulsoArriba=0;
  7802  0016CA  0E00               	movlw	0
  7803  0016CC  6FDC               	movwf	(_PulsoArriba+1)& (0+255),b
  7804  0016CE  0E00               	movlw	0
  7805  0016D0  6FDB               	movwf	_PulsoArriba& (0+255),b
  7806                           
  7807                           ;glory.c: 731:                 TiempoPulso=0;
  7808  0016D2  0E00               	movlw	0
  7809  0016D4  6FDA               	movwf	(_TiempoPulso+1)& (0+255),b
  7810  0016D6  0E00               	movlw	0
  7811  0016D8  6FD9               	movwf	_TiempoPulso& (0+255),b
  7812  0016DA  EF8D  F00B         	goto	i2l4572
  7813  0016DE                     i2l333:
  7814                           
  7815                           ; BSR set to: 0
  7816                           ;glory.c: 734:             LATA4=0;
  7817  0016DE  9889               	bcf	3977,4,c	;volatile
  7818                           
  7819                           ;glory.c: 735:             LATA3=0;
  7820  0016E0  9689               	bcf	3977,3,c	;volatile
  7821  0016E2                     
  7822                           ; BSR set to: 0
  7823                           ;glory.c: 736:             TiempoPulso=TiempoPulso+100;
  7824  0016E2  0E64               	movlw	100
  7825  0016E4  25D9               	addwf	_TiempoPulso& (0+255),w,b
  7826  0016E6  6FD9               	movwf	_TiempoPulso& (0+255),b
  7827  0016E8  0E00               	movlw	0
  7828  0016EA  21DA               	addwfc	(_TiempoPulso+1)& (0+255),w,b
  7829  0016EC  6FDA               	movwf	(_TiempoPulso+1)& (0+255),b
  7830                           
  7831                           ;glory.c: 737:             if (TiempoPulso>=400)
  7832  0016EE  BFDA               	btfsc	(_TiempoPulso+1)& (0+255),7,b
  7833  0016F0  EF83  F00B         	goto	i2u657_41
  7834  0016F4  0E90               	movlw	144
  7835  0016F6  5DD9               	subwf	_TiempoPulso& (0+255),w,b
  7836  0016F8  0E01               	movlw	1
  7837  0016FA  59DA               	subwfb	(_TiempoPulso+1)& (0+255),w,b
  7838  0016FC  A0D8               	btfss	status,0,c
  7839  0016FE  EF83  F00B         	goto	i2u657_41
  7840  001702  EF85  F00B         	goto	i2u657_40
  7841  001706                     i2u657_41:
  7842  001706  EF8D  F00B         	goto	i2l4572
  7843  00170A                     i2u657_40:
  7844  00170A                     
  7845                           ; BSR set to: 0
  7846                           ;glory.c: 738:             {;glory.c: 739:                 PulsoArriba=1;
  7847  00170A  0E00               	movlw	0
  7848  00170C  6FDC               	movwf	(_PulsoArriba+1)& (0+255),b
  7849  00170E  0E01               	movlw	1
  7850  001710  6FDB               	movwf	_PulsoArriba& (0+255),b
  7851                           
  7852                           ;glory.c: 740:                 TiempoPulso=0;
  7853  001712  0E00               	movlw	0
  7854  001714  6FDA               	movwf	(_TiempoPulso+1)& (0+255),b
  7855  001716  0E00               	movlw	0
  7856  001718  6FD9               	movwf	_TiempoPulso& (0+255),b
  7857  00171A                     i2l4572:
  7858                           
  7859                           ; BSR set to: 0
  7860                           ;glory.c: 743:         if (Tiempo0>=10500)
  7861  00171A  BFD2               	btfsc	(_Tiempo0+1)& (0+255),7,b
  7862  00171C  EF99  F00B         	goto	i2u658_41
  7863  001720  0E04               	movlw	4
  7864  001722  5DD1               	subwf	_Tiempo0& (0+255),w,b
  7865  001724  0E29               	movlw	41
  7866  001726  59D2               	subwfb	(_Tiempo0+1)& (0+255),w,b
  7867  001728  A0D8               	btfss	status,0,c
  7868  00172A  EF99  F00B         	goto	i2u658_41
  7869  00172E  EF9B  F00B         	goto	i2u658_40
  7870  001732                     i2u658_41:
  7871  001732  EFB5  F00B         	goto	i2l4592
  7872  001736                     i2u658_40:
  7873  001736                     
  7874                           ; BSR set to: 0
  7875                           ;glory.c: 744:         {;glory.c: 745:             ValorStateLock=0;
  7876  001736  0E00               	movlw	0
  7877  001738  6FE6               	movwf	(_ValorStateLock+1)& (0+255),b
  7878  00173A  0E00               	movlw	0
  7879  00173C  6FE5               	movwf	_ValorStateLock& (0+255),b
  7880                           
  7881                           ;glory.c: 746:             Tiempo0=0;
  7882  00173E  0E00               	movlw	0
  7883  001740  6FD2               	movwf	(_Tiempo0+1)& (0+255),b
  7884  001742  0E00               	movlw	0
  7885  001744  6FD1               	movwf	_Tiempo0& (0+255),b
  7886  001746                     
  7887                           ; BSR set to: 0
  7888                           ;glory.c: 747:             TMR0IE=0;
  7889  001746  9AF2               	bcf	4082,5,c	;volatile
  7890  001748                     
  7891                           ; BSR set to: 0
  7892                           ;glory.c: 748:             LATA2=0;
  7893  001748  9489               	bcf	3977,2,c	;volatile
  7894  00174A                     
  7895                           ; BSR set to: 0
  7896                           ;glory.c: 750:             LATA1=0;
  7897  00174A  9289               	bcf	3977,1,c	;volatile
  7898  00174C                     
  7899                           ; BSR set to: 0
  7900                           ;glory.c: 751:             LATA0=0;
  7901  00174C  9089               	bcf	3977,0,c	;volatile
  7902  00174E                     
  7903                           ; BSR set to: 0
  7904                           ;glory.c: 753:             LATA4=0;
  7905  00174E  9889               	bcf	3977,4,c	;volatile
  7906  001750                     
  7907                           ; BSR set to: 0
  7908                           ;glory.c: 754:             LATA3=0;
  7909  001750  9689               	bcf	3977,3,c	;volatile
  7910  001752                     
  7911                           ; BSR set to: 0
  7912                           ;glory.c: 755:             USART_EnviaMsg("CRITICAL: timeout waiting for door, locked");
  7913  001752  0E31               	movlw	low STR_46
  7914  001754  6E01               	movwf	i2USART_EnviaMsg@msgout^0,c
  7915  001756  0E7E               	movlw	high STR_46
  7916  001758  6E02               	movwf	(i2USART_EnviaMsg@msgout+1)^0,c
  7917  00175A  EC46  F01A         	call	i2_USART_EnviaMsg	;wreg free
  7918  00175E                     
  7919                           ;glory.c: 756:             USART_EnviaMsg(CRLF);
  7920  00175E  0EFC               	movlw	low _CRLF
  7921  001760  6E01               	movwf	i2USART_EnviaMsg@msgout^0,c
  7922  001762  0E00               	movlw	high _CRLF
  7923  001764  6E02               	movwf	(i2USART_EnviaMsg@msgout+1)^0,c
  7924  001766  EC46  F01A         	call	i2_USART_EnviaMsg	;wreg free
  7925  00176A                     i2l4592:
  7926                           
  7927                           ;glory.c: 760:     if (TMR1IF && TMR1IE)
  7928  00176A  A09E               	btfss	3998,0,c	;volatile
  7929  00176C  EFBA  F00B         	goto	i2u659_41
  7930  001770  EFBC  F00B         	goto	i2u659_40
  7931  001774                     i2u659_41:
  7932  001774  EF1B  F00C         	goto	i2l4626
  7933  001778                     i2u659_40:
  7934  001778  A09D               	btfss	3997,0,c	;volatile
  7935  00177A  EFC1  F00B         	goto	i2u660_41
  7936  00177E  EFC3  F00B         	goto	i2u660_40
  7937  001782                     i2u660_41:
  7938  001782  EF1B  F00C         	goto	i2l4626
  7939  001786                     i2u660_40:
  7940  001786                     
  7941                           ;glory.c: 761:     {;glory.c: 762:         TMR1IF=0;
  7942  001786  909E               	bcf	3998,0,c	;volatile
  7943  001788                     
  7944                           ;glory.c: 763:         TMR1H=0xB1;
  7945  001788  0EB1               	movlw	177
  7946  00178A  6ECF               	movwf	207,c	;volatile
  7947                           
  7948                           ;glory.c: 764:         TMR1L=0xE0;
  7949  00178C  0EE0               	movlw	224
  7950  00178E  6ECE               	movwf	206,c	;volatile
  7951  001790                     
  7952                           ;glory.c: 765:         Tiempo1=Tiempo1+10;
  7953  001790  0E0A               	movlw	10
  7954  001792  0100               	movlb	0	; () banked
  7955  001794  25CF               	addwf	_Tiempo1& (0+255),w,b
  7956  001796  6FCF               	movwf	_Tiempo1& (0+255),b
  7957  001798  0E00               	movlw	0
  7958  00179A  21D0               	addwfc	(_Tiempo1+1)& (0+255),w,b
  7959  00179C  6FD0               	movwf	(_Tiempo1+1)& (0+255),b
  7960  00179E                     
  7961                           ; BSR set to: 0
  7962                           ;glory.c: 768:         if (Tiempo1>=3500)
  7963  00179E  BFD0               	btfsc	(_Tiempo1+1)& (0+255),7,b
  7964  0017A0  EFDB  F00B         	goto	i2u661_41
  7965  0017A4  0EAC               	movlw	172
  7966  0017A6  5DCF               	subwf	_Tiempo1& (0+255),w,b
  7967  0017A8  0E0D               	movlw	13
  7968  0017AA  59D0               	subwfb	(_Tiempo1+1)& (0+255),w,b
  7969  0017AC  A0D8               	btfss	status,0,c
  7970  0017AE  EFDB  F00B         	goto	i2u661_41
  7971  0017B2  EFDD  F00B         	goto	i2u661_40
  7972  0017B6                     i2u661_41:
  7973  0017B6  EF1B  F00C         	goto	i2l4626
  7974  0017BA                     i2u661_40:
  7975  0017BA                     
  7976                           ; BSR set to: 0
  7977                           ;glory.c: 769:         {;glory.c: 770:             Tiempo1=0;
  7978  0017BA  0E00               	movlw	0
  7979  0017BC  6FD0               	movwf	(_Tiempo1+1)& (0+255),b
  7980  0017BE  0E00               	movlw	0
  7981  0017C0  6FCF               	movwf	_Tiempo1& (0+255),b
  7982  0017C2                     
  7983                           ; BSR set to: 0
  7984                           ;glory.c: 771:             TMR1IE=0;
  7985  0017C2  909D               	bcf	3997,0,c	;volatile
  7986  0017C4                     
  7987                           ; BSR set to: 0
  7988                           ;glory.c: 772:             LATC1=0;
  7989  0017C4  928B               	bcf	3979,1,c	;volatile
  7990  0017C6                     
  7991                           ; BSR set to: 0
  7992                           ;glory.c: 774:             LATE0=0;
  7993  0017C6  908D               	bcf	3981,0,c	;volatile
  7994  0017C8                     
  7995                           ; BSR set to: 0
  7996                           ;glory.c: 775:             LATA5=0;
  7997  0017C8  9A89               	bcf	3977,5,c	;volatile
  7998  0017CA                     
  7999                           ; BSR set to: 0
  8000                           ;glory.c: 776:             if (ValorStateShutter==3)
  8001  0017CA  0E03               	movlw	3
  8002  0017CC  19E7               	xorwf	_ValorStateShutter& (0+255),w,b
  8003  0017CE  11E8               	iorwf	(_ValorStateShutter+1)& (0+255),w,b
  8004  0017D0  A4D8               	btfss	status,2,c
  8005  0017D2  EFED  F00B         	goto	i2u662_41
  8006  0017D6  EFEF  F00B         	goto	i2u662_40
  8007  0017DA                     i2u662_41:
  8008  0017DA  EF00  F00C         	goto	i2l4620
  8009  0017DE                     i2u662_40:
  8010  0017DE                     
  8011                           ; BSR set to: 0
  8012                           ;glory.c: 777:             {;glory.c: 778:                 USART_EnviaMsg("CLOSED");
  8013  0017DE  0EAD               	movlw	low (STR_12+22)
  8014  0017E0  6E01               	movwf	i2USART_EnviaMsg@msgout^0,c
  8015  0017E2  0E7E               	movlw	high (STR_12+22)
  8016  0017E4  6E02               	movwf	(i2USART_EnviaMsg@msgout+1)^0,c
  8017  0017E6  EC46  F01A         	call	i2_USART_EnviaMsg	;wreg free
  8018                           
  8019                           ;glory.c: 779:                 USART_EnviaMsg(CRLF);
  8020  0017EA  0EFC               	movlw	low _CRLF
  8021  0017EC  6E01               	movwf	i2USART_EnviaMsg@msgout^0,c
  8022  0017EE  0E00               	movlw	high _CRLF
  8023  0017F0  6E02               	movwf	(i2USART_EnviaMsg@msgout+1)^0,c
  8024  0017F2  EC46  F01A         	call	i2_USART_EnviaMsg	;wreg free
  8025  0017F6                     
  8026                           ;glory.c: 780:                 ValorStateShutter=9;
  8027  0017F6  0E00               	movlw	0
  8028  0017F8  0100               	movlb	0	; () banked
  8029  0017FA  6FE8               	movwf	(_ValorStateShutter+1)& (0+255),b
  8030  0017FC  0E09               	movlw	9
  8031  0017FE  6FE7               	movwf	_ValorStateShutter& (0+255),b
  8032  001800                     i2l4620:
  8033                           
  8034                           ; BSR set to: 0
  8035                           ;glory.c: 782:             if (ValorStateShutter==2)
  8036  001800  0E02               	movlw	2
  8037  001802  19E7               	xorwf	_ValorStateShutter& (0+255),w,b
  8038  001804  11E8               	iorwf	(_ValorStateShutter+1)& (0+255),w,b
  8039  001806  A4D8               	btfss	status,2,c
  8040  001808  EF08  F00C         	goto	i2u663_41
  8041  00180C  EF0A  F00C         	goto	i2u663_40
  8042  001810                     i2u663_41:
  8043  001810  EF1B  F00C         	goto	i2l4626
  8044  001814                     i2u663_40:
  8045  001814                     
  8046                           ; BSR set to: 0
  8047                           ;glory.c: 783:             {;glory.c: 784:                 USART_EnviaMsg("OPEN");
  8048  001814  0EB9               	movlw	low (STR_18+6)
  8049  001816  6E01               	movwf	i2USART_EnviaMsg@msgout^0,c
  8050  001818  0E7F               	movlw	high (STR_18+6)
  8051  00181A  6E02               	movwf	(i2USART_EnviaMsg@msgout+1)^0,c
  8052  00181C  EC46  F01A         	call	i2_USART_EnviaMsg	;wreg free
  8053                           
  8054                           ;glory.c: 785:                 USART_EnviaMsg(CRLF);
  8055  001820  0EFC               	movlw	low _CRLF
  8056  001822  6E01               	movwf	i2USART_EnviaMsg@msgout^0,c
  8057  001824  0E00               	movlw	high _CRLF
  8058  001826  6E02               	movwf	(i2USART_EnviaMsg@msgout+1)^0,c
  8059  001828  EC46  F01A         	call	i2_USART_EnviaMsg	;wreg free
  8060  00182C                     
  8061                           ;glory.c: 786:                 ValorStateShutter=8;
  8062  00182C  0E00               	movlw	0
  8063  00182E  0100               	movlb	0	; () banked
  8064  001830  6FE8               	movwf	(_ValorStateShutter+1)& (0+255),b
  8065  001832  0E08               	movlw	8
  8066  001834  6FE7               	movwf	_ValorStateShutter& (0+255),b
  8067  001836                     i2l4626:
  8068                           
  8069                           ;glory.c: 792:     if (TMR2IF && TMR2IE)
  8070  001836  A29E               	btfss	3998,1,c	;volatile
  8071  001838  EF20  F00C         	goto	i2u664_41
  8072  00183C  EF22  F00C         	goto	i2u664_40
  8073  001840                     i2u664_41:
  8074  001840  EF78  F00C         	goto	i2l347
  8075  001844                     i2u664_40:
  8076  001844  A29D               	btfss	3997,1,c	;volatile
  8077  001846  EF27  F00C         	goto	i2u665_41
  8078  00184A  EF29  F00C         	goto	i2u665_40
  8079  00184E                     i2u665_41:
  8080  00184E  EF78  F00C         	goto	i2l347
  8081  001852                     i2u665_40:
  8082  001852                     
  8083                           ;glory.c: 793:     {;glory.c: 794:         TMR2IF=0;
  8084  001852  929E               	bcf	3998,1,c	;volatile
  8085  001854                     
  8086                           ;glory.c: 795:         Tiempo2=Tiempo2+10;
  8087  001854  0E0A               	movlw	10
  8088  001856  0100               	movlb	0	; () banked
  8089  001858  25CD               	addwf	_Tiempo2& (0+255),w,b
  8090  00185A  6FCD               	movwf	_Tiempo2& (0+255),b
  8091  00185C  0E00               	movlw	0
  8092  00185E  21CE               	addwfc	(_Tiempo2+1)& (0+255),w,b
  8093  001860  6FCE               	movwf	(_Tiempo2+1)& (0+255),b
  8094                           
  8095                           ;glory.c: 796:         if (PulsoArribaBuzzer==1)
  8096  001862  05D7               	decf	_PulsoArribaBuzzer& (0+255),w,b
  8097  001864  11D8               	iorwf	(_PulsoArribaBuzzer+1)& (0+255),w,b
  8098  001866  A4D8               	btfss	status,2,c
  8099  001868  EF38  F00C         	goto	i2u666_41
  8100  00186C  EF3A  F00C         	goto	i2u666_40
  8101  001870                     i2u666_41:
  8102  001870  EF5A  F00C         	goto	i2l343
  8103  001874                     i2u666_40:
  8104  001874                     
  8105                           ; BSR set to: 0
  8106                           ;glory.c: 797:         {;glory.c: 798:             LATE2=1;
  8107  001874  848D               	bsf	3981,2,c	;volatile
  8108                           
  8109                           ;glory.c: 799:             LATE1=0;
  8110  001876  928D               	bcf	3981,1,c	;volatile
  8111  001878                     
  8112                           ; BSR set to: 0
  8113                           ;glory.c: 800:             TiempoPulsoBuzzer=TiempoPulsoBuzzer+10;
  8114  001878  0E0A               	movlw	10
  8115  00187A  25D5               	addwf	_TiempoPulsoBuzzer& (0+255),w,b
  8116  00187C  6FD5               	movwf	_TiempoPulsoBuzzer& (0+255),b
  8117  00187E  0E00               	movlw	0
  8118  001880  21D6               	addwfc	(_TiempoPulsoBuzzer+1)& (0+255),w,b
  8119  001882  6FD6               	movwf	(_TiempoPulsoBuzzer+1)& (0+255),b
  8120                           
  8121                           ;glory.c: 801:             if (TiempoPulsoBuzzer>=140)
  8122  001884  BFD6               	btfsc	(_TiempoPulsoBuzzer+1)& (0+255),7,b
  8123  001886  EF4E  F00C         	goto	i2u667_41
  8124  00188A  51D6               	movf	(_TiempoPulsoBuzzer+1)& (0+255),w,b
  8125  00188C  E109               	bnz	i2u667_40
  8126  00188E  0E8C               	movlw	140
  8127  001890  5DD5               	subwf	_TiempoPulsoBuzzer& (0+255),w,b
  8128  001892  A0D8               	btfss	status,0,c
  8129  001894  EF4E  F00C         	goto	i2u667_41
  8130  001898  EF50  F00C         	goto	i2u667_40
  8131  00189C                     i2u667_41:
  8132  00189C  EF78  F00C         	goto	i2l347
  8133  0018A0                     i2u667_40:
  8134  0018A0                     
  8135                           ; BSR set to: 0
  8136                           ;glory.c: 802:             {;glory.c: 803:                 PulsoArribaBuzzer=0;
  8137  0018A0  0E00               	movlw	0
  8138  0018A2  6FD8               	movwf	(_PulsoArribaBuzzer+1)& (0+255),b
  8139  0018A4  0E00               	movlw	0
  8140  0018A6  6FD7               	movwf	_PulsoArribaBuzzer& (0+255),b
  8141                           
  8142                           ;glory.c: 804:                 TiempoPulsoBuzzer=0;
  8143  0018A8  0E00               	movlw	0
  8144  0018AA  6FD6               	movwf	(_TiempoPulsoBuzzer+1)& (0+255),b
  8145  0018AC  0E00               	movlw	0
  8146  0018AE  6FD5               	movwf	_TiempoPulsoBuzzer& (0+255),b
  8147  0018B0  EF78  F00C         	goto	i2l347
  8148  0018B4                     i2l343:
  8149                           
  8150                           ; BSR set to: 0
  8151                           ;glory.c: 807:             LATE2=0;
  8152  0018B4  948D               	bcf	3981,2,c	;volatile
  8153                           
  8154                           ;glory.c: 808:             LATE1=0;
  8155  0018B6  928D               	bcf	3981,1,c	;volatile
  8156  0018B8                     
  8157                           ; BSR set to: 0
  8158                           ;glory.c: 809:             TiempoPulsoBuzzer=TiempoPulsoBuzzer+10;
  8159  0018B8  0E0A               	movlw	10
  8160  0018BA  25D5               	addwf	_TiempoPulsoBuzzer& (0+255),w,b
  8161  0018BC  6FD5               	movwf	_TiempoPulsoBuzzer& (0+255),b
  8162  0018BE  0E00               	movlw	0
  8163  0018C0  21D6               	addwfc	(_TiempoPulsoBuzzer+1)& (0+255),w,b
  8164  0018C2  6FD6               	movwf	(_TiempoPulsoBuzzer+1)& (0+255),b
  8165                           
  8166                           ;glory.c: 810:             if (TiempoPulsoBuzzer>=1920)
  8167  0018C4  BFD6               	btfsc	(_TiempoPulsoBuzzer+1)& (0+255),7,b
  8168  0018C6  EF6E  F00C         	goto	i2u668_41
  8169  0018CA  0E80               	movlw	128
  8170  0018CC  5DD5               	subwf	_TiempoPulsoBuzzer& (0+255),w,b
  8171  0018CE  0E07               	movlw	7
  8172  0018D0  59D6               	subwfb	(_TiempoPulsoBuzzer+1)& (0+255),w,b
  8173  0018D2  A0D8               	btfss	status,0,c
  8174  0018D4  EF6E  F00C         	goto	i2u668_41
  8175  0018D8  EF70  F00C         	goto	i2u668_40
  8176  0018DC                     i2u668_41:
  8177  0018DC  EF78  F00C         	goto	i2l347
  8178  0018E0                     i2u668_40:
  8179  0018E0                     
  8180                           ; BSR set to: 0
  8181                           ;glory.c: 811:             {;glory.c: 812:                 PulsoArribaBuzzer=1;
  8182  0018E0  0E00               	movlw	0
  8183  0018E2  6FD8               	movwf	(_PulsoArribaBuzzer+1)& (0+255),b
  8184  0018E4  0E01               	movlw	1
  8185  0018E6  6FD7               	movwf	_PulsoArribaBuzzer& (0+255),b
  8186                           
  8187                           ;glory.c: 813:                 TiempoPulsoBuzzer=0;
  8188  0018E8  0E00               	movlw	0
  8189  0018EA  6FD6               	movwf	(_TiempoPulsoBuzzer+1)& (0+255),b
  8190  0018EC  0E00               	movlw	0
  8191  0018EE  6FD5               	movwf	_TiempoPulsoBuzzer& (0+255),b
  8192  0018F0                     i2l347:
  8193  0018F0  C07D  FFF5         	movff	??_isr+11,tablat
  8194  0018F4  C07C  FFF8         	movff	??_isr+10,tblptru
  8195  0018F8  C07B  FFF7         	movff	??_isr+9,tblptrh
  8196  0018FC  C07A  FFF6         	movff	??_isr+8,tblptrl
  8197  001900  C079  FFF4         	movff	??_isr+7,prodh
  8198  001904  C078  FFF3         	movff	??_isr+6,prodl
  8199  001908  C077  FFDA         	movff	??_isr+5,fsr2h
  8200  00190C  C076  FFD9         	movff	??_isr+4,fsr2l
  8201  001910  C075  FFE2         	movff	??_isr+3,fsr1h
  8202  001914  C074  FFE1         	movff	??_isr+2,fsr1l
  8203  001918  927F               	bcf	int$flags,1,c	;clear compiler interrupt flag (level 2)
  8204  00191A  0011               	retfie		f
  8205  00191C                     __end_of_isr:
  8206                           	callstack 0
  8207                           
  8208 ;; *************** function i2_USART_EnviaMsg *****************
  8209 ;; Defined at:
  8210 ;;		line 819 in file "glory.c"
  8211 ;; Parameters:    Size  Location     Type
  8212 ;;  msgout          2    0[COMRAM] PTR unsigned char 
  8213 ;;		 -> STR_48(5), STR_47(7), STR_46(43), MsgAyuda(107), 
  8214 ;;		 -> STR_44(15), STR_42(16), STR_40(7), STR_38(7), 
  8215 ;;		 -> STR_36(7), STR_34(14), STR_33(3), STR_31(7), 
  8216 ;;		 -> STR_29(7), STR_27(10), STR_25(14), txt(5), 
  8217 ;;		 -> STR_23(13), MsgPersonalidad2(29), MsgPersonalidad1(26), MsgVersion(20), 
  8218 ;;		 -> STR_22(44), STR_21(20), STR_20(24), STR_19(29), 
  8219 ;;		 -> STR_18(11), STR_17(30), STR_16(12), STR_15(12), 
  8220 ;;		 -> STR_14(43), STR_13(43), STR_12(29), STR_11(12), 
  8221 ;;		 -> STR_10(12), STR_9(22), STR_8(22), STR_7(22), 
  8222 ;;		 -> STR_6(20), STR_5(15), STR_4(24), STR_3(30), 
  8223 ;;		 -> CRLF(3), STR_2(12), STR_1(2), 
  8224 ;; Auto vars:     Size  Location     Type
  8225 ;;  letraout        1    2[COMRAM] unsigned char 
  8226 ;; Return value:  Size  Location     Type
  8227 ;;                  1    wreg      void 
  8228 ;; Registers used:
  8229 ;;		wreg, fsr1l, fsr1h, status,2, status,0, tblptrl, tblptrh, tblptru
  8230 ;; Tracked objects:
  8231 ;;		On entry : 0/0
  8232 ;;		On exit  : 0/0
  8233 ;;		Unchanged: 0/0
  8234 ;; Data sizes:     COMRAM   BANK0   BANK1   BANK2   BANK3   BANK4   BANK5
  8235 ;;      Params:         2       0       0       0       0       0       0
  8236 ;;      Locals:         1       0       0       0       0       0       0
  8237 ;;      Temps:          0       0       0       0       0       0       0
  8238 ;;      Totals:         3       0       0       0       0       0       0
  8239 ;;Total ram usage:        3 bytes
  8240 ;; Hardware stack levels used: 1
  8241 ;; This function calls:
  8242 ;;		Nothing
  8243 ;; This function is called by:
  8244 ;;		_isr
  8245 ;; This function uses a non-reentrant model
  8246 ;;
  8247                           
  8248                           	psect	text8
  8249  00348C                     __ptext8:
  8250                           	callstack 0
  8251  00348C                     i2_USART_EnviaMsg:
  8252                           	callstack 27
  8253  00348C                     
  8254                           ;glory.c: 819: void USART_EnviaMsg (char *msgout);glory.c: 820: {;glory.c: 821:     char
      +                           letraout;;glory.c: 822:     while(*msgout != 0x00)
  8255  00348C  EF64  F01A         	goto	i2l3848
  8256  003490                     i2l3844:
  8257                           
  8258                           ;glory.c: 823:     {;glory.c: 824:         letraout=*msgout;
  8259  003490  C001  FFF6         	movff	i2USART_EnviaMsg@msgout,tblptrl
  8260  003494  C002  FFF7         	movff	i2USART_EnviaMsg@msgout+1,tblptrh
  8261  003498  6AF8               	clrf	tblptru,c
  8262  00349A  0E05               	movlw	(high __ramtop+-1)
  8263  00349C  64F7               	cpfsgt	tblptrh,c
  8264  00349E  D003               	bra	i2u492_47
  8265  0034A0  0008               	tblrd		*
  8266  0034A2  50F5               	movf	tablat,w,c
  8267  0034A4  D005               	bra	i2u492_40
  8268  0034A6                     i2u492_47:
  8269  0034A6  CFF6 FFE1          	movff	tblptrl,fsr1l
  8270  0034AA  CFF7 FFE2          	movff	tblptrh,fsr1h
  8271  0034AE  50E7               	movf	indf1,w,c
  8272  0034B0                     i2u492_40:
  8273  0034B0  6E03               	movwf	i2USART_EnviaMsg@letraout^0,c
  8274  0034B2                     
  8275                           ;glory.c: 825:         msgout++;
  8276  0034B2  4A01               	infsnz	i2USART_EnviaMsg@msgout^0,f,c
  8277  0034B4  2A02               	incf	(i2USART_EnviaMsg@msgout+1)^0,f,c
  8278  0034B6                     i2l352:
  8279  0034B6  A89E               	btfss	3998,4,c	;volatile
  8280  0034B8  EF60  F01A         	goto	i2u493_41
  8281  0034BC  EF62  F01A         	goto	i2u493_40
  8282  0034C0                     i2u493_41:
  8283  0034C0  EF5B  F01A         	goto	i2l352
  8284  0034C4                     i2u493_40:
  8285  0034C4                     
  8286                           ;glory.c: 827:         TXREG=letraout;
  8287  0034C4  C003  FFAD         	movff	i2USART_EnviaMsg@letraout,4013	;volatile
  8288  0034C8                     i2l3848:
  8289                           
  8290                           ;glory.c: 822:     while(*msgout != 0x00)
  8291  0034C8  C001  FFF6         	movff	i2USART_EnviaMsg@msgout,tblptrl
  8292  0034CC  C002  FFF7         	movff	i2USART_EnviaMsg@msgout+1,tblptrh
  8293  0034D0  6AF8               	clrf	tblptru,c
  8294  0034D2  0E05               	movlw	(high __ramtop+-1)
  8295  0034D4  64F7               	cpfsgt	tblptrh,c
  8296  0034D6  D003               	bra	i2u494_47
  8297  0034D8  0008               	tblrd		*
  8298  0034DA  50F5               	movf	tablat,w,c
  8299  0034DC  D005               	bra	i2u494_40
  8300  0034DE                     i2u494_47:
  8301  0034DE  CFF6 FFE1          	movff	tblptrl,fsr1l
  8302  0034E2  CFF7 FFE2          	movff	tblptrh,fsr1h
  8303  0034E6  50E7               	movf	indf1,w,c
  8304  0034E8                     i2u494_40:
  8305  0034E8  0900               	iorlw	0
  8306  0034EA  A4D8               	btfss	status,2,c
  8307  0034EC  EF7A  F01A         	goto	i2u495_41
  8308  0034F0  EF7C  F01A         	goto	i2u495_40
  8309  0034F4                     i2u495_41:
  8310  0034F4  EF48  F01A         	goto	i2l3844
  8311  0034F8                     i2u495_40:
  8312  0034F8  0012               	return		;funcret
  8313  0034FA                     __end_ofi2_USART_EnviaMsg:
  8314                           	callstack 0
  8315                           
  8316 ;; *************** function _sprintf *****************
  8317 ;; Defined at:
  8318 ;;		line 9 in file "/opt/microchip/xc8/v2.32/pic/sources/c99/common/nf_sprintf.c"
  8319 ;; Parameters:    Size  Location     Type
  8320 ;;  s               2   97[COMRAM] PTR unsigned char 
  8321 ;;		 -> txt(5), 
  8322 ;;  fmt             2   99[COMRAM] PTR const unsigned char 
  8323 ;;		 -> STR_45(5), STR_43(5), STR_41(5), STR_39(5), 
  8324 ;;		 -> STR_37(5), STR_35(5), STR_32(5), STR_30(5), 
  8325 ;;		 -> STR_28(5), STR_26(5), STR_24(5), 
  8326 ;; Auto vars:     Size  Location     Type
  8327 ;;  f               6  107[COMRAM] struct _IO_FILE
  8328 ;;  ap              2  105[COMRAM] PTR void [1]
  8329 ;;		 -> ?_sprintf(2), 
  8330 ;;  ret             2  103[COMRAM] int 
  8331 ;; Return value:  Size  Location     Type
  8332 ;;                  2   97[COMRAM] int 
  8333 ;; Registers used:
  8334 ;;		wreg, fsr1l, fsr1h, fsr2l, fsr2h, status,2, status,0, tblptrl, tblptrh, tblptru, prodl, prodh, cstack
  8335 ;; Tracked objects:
  8336 ;;		On entry : 0/0
  8337 ;;		On exit  : 0/0
  8338 ;;		Unchanged: 0/0
  8339 ;; Data sizes:     COMRAM   BANK0   BANK1   BANK2   BANK3   BANK4   BANK5
  8340 ;;      Params:         6       0       0       0       0       0       0
  8341 ;;      Locals:        10       0       0       0       0       0       0
  8342 ;;      Temps:          0       0       0       0       0       0       0
  8343 ;;      Totals:        16       0       0       0       0       0       0
  8344 ;;Total ram usage:       16 bytes
  8345 ;; Hardware stack levels used: 1
  8346 ;; Hardware stack levels required when called: 7
  8347 ;; This function calls:
  8348 ;;		_vfprintf
  8349 ;; This function is called by:
  8350 ;;		_isr
  8351 ;; This function uses a non-reentrant model
  8352 ;;
  8353                           
  8354                           	psect	text9
  8355  0035C8                     __ptext9:
  8356                           	callstack 0
  8357  0035C8                     _sprintf:
  8358                           	callstack 20
  8359  0035C8  0E66               	movlw	low (?_sprintf+4)
  8360  0035CA  6E6A               	movwf	sprintf@ap^0,c
  8361  0035CC  0E00               	movlw	high (?_sprintf+4)
  8362  0035CE  6E6B               	movwf	(sprintf@ap+1)^0,c
  8363  0035D0  C062  F06C         	movff	sprintf@s,sprintf@f
  8364  0035D4  C063  F06D         	movff	sprintf@s+1,sprintf@f+1
  8365  0035D8  0E00               	movlw	0
  8366  0035DA  6E6F               	movwf	(sprintf@f+3)^0,c
  8367  0035DC  0E00               	movlw	0
  8368  0035DE  6E6E               	movwf	(sprintf@f+2)^0,c
  8369  0035E0  0E00               	movlw	0
  8370  0035E2  6E71               	movwf	(sprintf@f+5)^0,c
  8371  0035E4  0E00               	movlw	0
  8372  0035E6  6E70               	movwf	(sprintf@f+4)^0,c
  8373  0035E8  0E6C               	movlw	low sprintf@f
  8374  0035EA  6E5A               	movwf	vfprintf@fp^0,c
  8375  0035EC  0E00               	movlw	high sprintf@f
  8376  0035EE  6E5B               	movwf	(vfprintf@fp+1)^0,c
  8377  0035F0  C064  F05C         	movff	sprintf@fmt,vfprintf@fmt
  8378  0035F4  C065  F05D         	movff	sprintf@fmt+1,vfprintf@fmt+1
  8379  0035F8  0E6A               	movlw	low sprintf@ap
  8380  0035FA  6E5E               	movwf	vfprintf@ap^0,c
  8381  0035FC  0E00               	movlw	high sprintf@ap
  8382  0035FE  6E5F               	movwf	(vfprintf@ap+1)^0,c
  8383  003600  ECB3  F01A         	call	_vfprintf	;wreg free
  8384  003604  C05A  F068         	movff	?_vfprintf,sprintf@ret
  8385  003608  C05B  F069         	movff	?_vfprintf+1,sprintf@ret+1
  8386  00360C  506E               	movf	(sprintf@f+2)^0,w,c
  8387  00360E  2462               	addwf	sprintf@s^0,w,c
  8388  003610  6ED9               	movwf	fsr2l,c
  8389  003612  506F               	movf	(sprintf@f+3)^0,w,c
  8390  003614  2063               	addwfc	(sprintf@s+1)^0,w,c
  8391  003616  6EDA               	movwf	fsr2h,c
  8392  003618  0E00               	movlw	0
  8393  00361A  6EDF               	movwf	indf2,c
  8394  00361C  C068  F062         	movff	sprintf@ret,?_sprintf
  8395  003620  C069  F063         	movff	sprintf@ret+1,?_sprintf+1
  8396  003624  0012               	return		;funcret
  8397  003626                     __end_of_sprintf:
  8398                           	callstack 0
  8399                           
  8400 ;; *************** function _vfprintf *****************
  8401 ;; Defined at:
  8402 ;;		line 1390 in file "/opt/microchip/xc8/v2.32/pic/sources/c99/common/doprnt.c"
  8403 ;; Parameters:    Size  Location     Type
  8404 ;;  fp              2   89[COMRAM] PTR struct _IO_FILE
  8405 ;;		 -> sprintf@f(6), 
  8406 ;;  fmt             2   91[COMRAM] PTR const unsigned char 
  8407 ;;		 -> STR_45(5), STR_43(5), STR_41(5), STR_39(5), 
  8408 ;;		 -> STR_37(5), STR_35(5), STR_32(5), STR_30(5), 
  8409 ;;		 -> STR_28(5), STR_26(5), STR_24(5), 
  8410 ;;  ap              2   93[COMRAM] PTR PTR void 
  8411 ;;		 -> sprintf@ap(2), 
  8412 ;; Auto vars:     Size  Location     Type
  8413 ;;  cfmt            2   95[COMRAM] PTR unsigned char 
  8414 ;;		 -> STR_45(5), STR_43(5), STR_41(5), STR_39(5), 
  8415 ;;		 -> STR_37(5), STR_35(5), STR_32(5), STR_30(5), 
  8416 ;;		 -> STR_28(5), STR_26(5), STR_24(5), 
  8417 ;; Return value:  Size  Location     Type
  8418 ;;                  2   89[COMRAM] int 
  8419 ;; Registers used:
  8420 ;;		wreg, fsr1l, fsr1h, fsr2l, fsr2h, status,2, status,0, tblptrl, tblptrh, tblptru, prodl, prodh, cstack
  8421 ;; Tracked objects:
  8422 ;;		On entry : 0/0
  8423 ;;		On exit  : 0/0
  8424 ;;		Unchanged: 0/0
  8425 ;; Data sizes:     COMRAM   BANK0   BANK1   BANK2   BANK3   BANK4   BANK5
  8426 ;;      Params:         6       0       0       0       0       0       0
  8427 ;;      Locals:         2       0       0       0       0       0       0
  8428 ;;      Temps:          0       0       0       0       0       0       0
  8429 ;;      Totals:         8       0       0       0       0       0       0
  8430 ;;Total ram usage:        8 bytes
  8431 ;; Hardware stack levels used: 1
  8432 ;; Hardware stack levels required when called: 6
  8433 ;; This function calls:
  8434 ;;		_vfpfcnvrt
  8435 ;; This function is called by:
  8436 ;;		_sprintf
  8437 ;; This function uses a non-reentrant model
  8438 ;;
  8439                           
  8440                           	psect	text10
  8441  003566                     __ptext10:
  8442                           	callstack 0
  8443  003566                     _vfprintf:
  8444                           	callstack 20
  8445  003566                     
  8446                           ;/opt/microchip/xc8/v2.32/pic/sources/c99/common/doprnt.c: 1390: int vfprintf(FILE *fp, 
      +                          const char *fmt, va_list ap);/opt/microchip/xc8/v2.32/pic/sources/c99/common/doprnt.c: 1
      +                          391: {;/opt/microchip/xc8/v2.32/pic/sources/c99/common/doprnt.c: 1393:     char *cfmt;;/
      +                          opt/microchip/xc8/v2.32/pic/sources/c99/common/doprnt.c: 1395:     cfmt = (char *)fmt;
  8447  003566  C05C  F060         	movff	vfprintf@fmt,vfprintf@cfmt
  8448  00356A  C05D  F061         	movff	vfprintf@fmt+1,vfprintf@cfmt+1
  8449  00356E                     
  8450                           ;/opt/microchip/xc8/v2.32/pic/sources/c99/common/doprnt.c: 1396:     nout = 0;
  8451  00356E  0E00               	movlw	0
  8452  003570  0100               	movlb	0	; () banked
  8453  003572  6FC6               	movwf	(_nout+1)& (0+255),b
  8454  003574  0E00               	movlw	0
  8455  003576  6FC5               	movwf	_nout& (0+255),b
  8456                           
  8457                           ;/opt/microchip/xc8/v2.32/pic/sources/c99/common/doprnt.c: 1397:     while (*cfmt) {
  8458  003578  EFD1  F01A         	goto	i2l3812
  8459  00357C                     i2l3810:
  8460                           
  8461                           ; BSR set to: 0
  8462                           ;/opt/microchip/xc8/v2.32/pic/sources/c99/common/doprnt.c: 1398:         nout += vfpfcnv
      +                          rt(fp, &cfmt, ap);
  8463  00357C  C05A  F043         	movff	vfprintf@fp,vfpfcnvrt@fp
  8464  003580  C05B  F044         	movff	vfprintf@fp+1,vfpfcnvrt@fp+1
  8465  003584  0E60               	movlw	low vfprintf@cfmt
  8466  003586  6E45               	movwf	vfpfcnvrt@fmt^0,c
  8467  003588  0E00               	movlw	high vfprintf@cfmt
  8468  00358A  6E46               	movwf	(vfpfcnvrt@fmt+1)^0,c
  8469  00358C  C05E  F047         	movff	vfprintf@ap,vfpfcnvrt@ap
  8470  003590  C05F  F048         	movff	vfprintf@ap+1,vfpfcnvrt@ap+1
  8471  003594  ECEF  F00E         	call	_vfpfcnvrt	;wreg free
  8472  003598  5043               	movf	?_vfpfcnvrt^0,w,c
  8473  00359A  0100               	movlb	0	; () banked
  8474  00359C  27C5               	addwf	_nout& (0+255),f,b
  8475  00359E  5044               	movf	(?_vfpfcnvrt+1)^0,w,c
  8476  0035A0  23C6               	addwfc	(_nout+1)& (0+255),f,b
  8477  0035A2                     i2l3812:
  8478                           
  8479                           ; BSR set to: 0
  8480                           ;/opt/microchip/xc8/v2.32/pic/sources/c99/common/doprnt.c: 1397:     while (*cfmt) {
  8481  0035A2  C060  FFF6         	movff	vfprintf@cfmt,tblptrl
  8482  0035A6  C061  FFF7         	movff	vfprintf@cfmt+1,tblptrh
  8483  0035AA                     	if	0	;tblptru may be non-zero
  8484  0035AA                     	endif
  8485  0035AA                     	if	0	;tblptru may be non-zero
  8486  0035AA                     	endif
  8487  0035AA  0008               	tblrd		*
  8488  0035AC  50F5               	movf	tablat,w,c
  8489  0035AE  0900               	iorlw	0
  8490  0035B0  A4D8               	btfss	status,2,c
  8491  0035B2  EFDD  F01A         	goto	i2u487_41
  8492  0035B6  EFDF  F01A         	goto	i2u487_40
  8493  0035BA                     i2u487_41:
  8494  0035BA  EFBE  F01A         	goto	i2l3810
  8495  0035BE                     i2u487_40:
  8496  0035BE                     
  8497                           ; BSR set to: 0
  8498                           ;/opt/microchip/xc8/v2.32/pic/sources/c99/common/doprnt.c: 1400:     return nout;
  8499  0035BE  C0C5  F05A         	movff	_nout,?_vfprintf
  8500  0035C2  C0C6  F05B         	movff	_nout+1,?_vfprintf+1
  8501  0035C6                     
  8502                           ; BSR set to: 0
  8503  0035C6  0012               	return		;funcret
  8504  0035C8                     __end_of_vfprintf:
  8505                           	callstack 0
  8506                           
  8507 ;; *************** function _vfpfcnvrt *****************
  8508 ;; Defined at:
  8509 ;;		line 692 in file "/opt/microchip/xc8/v2.32/pic/sources/c99/common/doprnt.c"
  8510 ;; Parameters:    Size  Location     Type
  8511 ;;  fp              2   66[COMRAM] PTR struct _IO_FILE
  8512 ;;		 -> sprintf@f(6), 
  8513 ;;  fmt             2   68[COMRAM] PTR PTR unsigned char 
  8514 ;;		 -> vfprintf@cfmt(2), 
  8515 ;;  ap              2   70[COMRAM] PTR PTR void 
  8516 ;;		 -> sprintf@ap(2), 
  8517 ;; Auto vars:     Size  Location     Type
  8518 ;;  llu             8   81[COMRAM] unsigned long long 
  8519 ;;  ll              8    0        long long 
  8520 ;;  f               4    0        long long 
  8521 ;;  vp              3    0        PTR void 
  8522 ;;  ct              3    0        unsigned char [3]
  8523 ;;  cp              3    0        PTR unsigned char 
  8524 ;;  done            2   76[COMRAM] int 
  8525 ;;  i               2    0        int 
  8526 ;;  c               1   80[COMRAM] unsigned char 
  8527 ;; Return value:  Size  Location     Type
  8528 ;;                  2   66[COMRAM] int 
  8529 ;; Registers used:
  8530 ;;		wreg, fsr1l, fsr1h, fsr2l, fsr2h, status,2, status,0, tblptrl, tblptrh, tblptru, prodl, prodh, cstack
  8531 ;; Tracked objects:
  8532 ;;		On entry : 0/0
  8533 ;;		On exit  : 0/0
  8534 ;;		Unchanged: 0/0
  8535 ;; Data sizes:     COMRAM   BANK0   BANK1   BANK2   BANK3   BANK4   BANK5
  8536 ;;      Params:         6       0       0       0       0       0       0
  8537 ;;      Locals:        13       0       0       0       0       0       0
  8538 ;;      Temps:          4       0       0       0       0       0       0
  8539 ;;      Totals:        23       0       0       0       0       0       0
  8540 ;;Total ram usage:       23 bytes
  8541 ;; Hardware stack levels used: 1
  8542 ;; Hardware stack levels required when called: 5
  8543 ;; This function calls:
  8544 ;;		_atoi
  8545 ;;		_fputc
  8546 ;;		_isdigit
  8547 ;;		_utoa
  8548 ;;		_xtoa
  8549 ;; This function is called by:
  8550 ;;		_vfprintf
  8551 ;; This function uses a non-reentrant model
  8552 ;;
  8553                           
  8554                           	psect	text11
  8555  001DDE                     __ptext11:
  8556                           	callstack 0
  8557  001DDE                     _vfpfcnvrt:
  8558                           	callstack 20
  8559  001DDE                     
  8560                           ;/opt/microchip/xc8/v2.32/pic/sources/c99/common/doprnt.c: 692: static int vfpfcnvrt(FIL
      +                          E *fp, char *fmt[], va_list ap);/opt/microchip/xc8/v2.32/pic/sources/c99/common/doprnt.c
      +                          : 693: {;/opt/microchip/xc8/v2.32/pic/sources/c99/common/doprnt.c: 694:     char c, *cp,
      +                           ct[3];;/opt/microchip/xc8/v2.32/pic/sources/c99/common/doprnt.c: 695:     int done, i;;
      +                          /opt/microchip/xc8/v2.32/pic/sources/c99/common/doprnt.c: 696:     long long ll;;/opt/mi
      +                          crochip/xc8/v2.32/pic/sources/c99/common/doprnt.c: 697:     unsigned long long llu;
  8561  001DDE  C045  FFD9         	movff	vfpfcnvrt@fmt,fsr2l
  8562  001DE2  C046  FFDA         	movff	vfpfcnvrt@fmt+1,fsr2h
  8563  001DE6  CFDE FFF6          	movff	postinc2,tblptrl
  8564  001DEA  CFDD FFF7          	movff	postdec2,tblptrh
  8565  001DEE                     	if	0	;tblptru may be non-zero
  8566  001DEE                     	endif
  8567  001DEE                     	if	0	;tblptru may be non-zero
  8568  001DEE                     	endif
  8569  001DEE  0008               	tblrd		*
  8570  001DF0  50F5               	movf	tablat,w,c
  8571  001DF2  0A25               	xorlw	37
  8572  001DF4  A4D8               	btfss	status,2,c
  8573  001DF6  EFFF  F00E         	goto	i2u396_41
  8574  001DFA  EF01  F00F         	goto	i2u396_40
  8575  001DFE                     i2u396_41:
  8576  001DFE  EFEF  F010         	goto	i2l3362
  8577  001E02                     i2u396_40:
  8578  001E02                     
  8579                           ;/opt/microchip/xc8/v2.32/pic/sources/c99/common/doprnt.c: 703:         ++*fmt;
  8580  001E02  C045  FFD9         	movff	vfpfcnvrt@fmt,fsr2l
  8581  001E06  C046  FFDA         	movff	vfpfcnvrt@fmt+1,fsr2h
  8582  001E0A  2ADE               	incf	postinc2,f,c
  8583  001E0C  0E00               	movlw	0
  8584  001E0E  22DD               	addwfc	postdec2,f,c
  8585  001E10                     
  8586                           ;/opt/microchip/xc8/v2.32/pic/sources/c99/common/doprnt.c: 705:         flags = width = 
      +                          0;
  8587  001E10  0E00               	movlw	0
  8588  001E12  0100               	movlb	0	; () banked
  8589  001E14  6FC8               	movwf	(_width+1)& (0+255),b
  8590  001E16  0E00               	movlw	0
  8591  001E18  6FC7               	movwf	_width& (0+255),b
  8592  001E1A  C0C7  F0CB         	movff	_width,_flags
  8593  001E1E  C0C8  F0CC         	movff	_width+1,_flags+1
  8594  001E22                     
  8595                           ; BSR set to: 0
  8596                           ;/opt/microchip/xc8/v2.32/pic/sources/c99/common/doprnt.c: 706:         prec = -1;
  8597  001E22  69C9               	setf	_prec& (0+255),b
  8598  001E24  69CA               	setf	(_prec+1)& (0+255),b
  8599  001E26                     
  8600                           ; BSR set to: 0
  8601                           ;/opt/microchip/xc8/v2.32/pic/sources/c99/common/doprnt.c: 710:         done = 0;
  8602  001E26  0E00               	movlw	0
  8603  001E28  6E4E               	movwf	(vfpfcnvrt@done+1)^0,c
  8604  001E2A  0E00               	movlw	0
  8605  001E2C  6E4D               	movwf	vfpfcnvrt@done^0,c
  8606                           
  8607                           ;/opt/microchip/xc8/v2.32/pic/sources/c99/common/doprnt.c: 711:         while (!done) {
  8608  001E2E  EF64  F00F         	goto	i2l3302
  8609  001E32                     i2l3276:
  8610                           
  8611                           ;/opt/microchip/xc8/v2.32/pic/sources/c99/common/doprnt.c: 714:                     flag
      +                          s |= (1 << 0);
  8612  001E32  0100               	movlb	0	; () banked
  8613  001E34  81CB               	bsf	_flags& (0+255),0,b
  8614  001E36                     i2l3278:
  8615                           
  8616                           ; BSR set to: 0
  8617                           ;/opt/microchip/xc8/v2.32/pic/sources/c99/common/doprnt.c: 715:                     ++*f
      +                          mt;
  8618  001E36  C045  FFD9         	movff	vfpfcnvrt@fmt,fsr2l
  8619  001E3A  C046  FFDA         	movff	vfpfcnvrt@fmt+1,fsr2h
  8620  001E3E  2ADE               	incf	postinc2,f,c
  8621  001E40  0E00               	movlw	0
  8622  001E42  22DD               	addwfc	postdec2,f,c
  8623                           
  8624                           ;/opt/microchip/xc8/v2.32/pic/sources/c99/common/doprnt.c: 716:                     brea
      +                          k;
  8625  001E44  EF64  F00F         	goto	i2l3302
  8626  001E48                     i2l3280:
  8627                           
  8628                           ;/opt/microchip/xc8/v2.32/pic/sources/c99/common/doprnt.c: 718:                     flag
      +                          s |= (1 << 1);
  8629  001E48  0100               	movlb	0	; () banked
  8630  001E4A  83CB               	bsf	_flags& (0+255),1,b
  8631  001E4C  EF1B  F00F         	goto	i2l3278
  8632  001E50                     i2l3284:
  8633                           
  8634                           ;/opt/microchip/xc8/v2.32/pic/sources/c99/common/doprnt.c: 722:                     flag
      +                          s |= (1 << 2);
  8635  001E50  0100               	movlb	0	; () banked
  8636  001E52  85CB               	bsf	_flags& (0+255),2,b
  8637  001E54  EF1B  F00F         	goto	i2l3278
  8638  001E58                     i2l3288:
  8639                           
  8640                           ;/opt/microchip/xc8/v2.32/pic/sources/c99/common/doprnt.c: 726:                     flag
      +                          s |= (1 << 3);
  8641  001E58  0100               	movlb	0	; () banked
  8642  001E5A  87CB               	bsf	_flags& (0+255),3,b
  8643  001E5C  EF1B  F00F         	goto	i2l3278
  8644  001E60                     i2l3292:
  8645                           
  8646                           ;/opt/microchip/xc8/v2.32/pic/sources/c99/common/doprnt.c: 730:                     flag
      +                          s |= (1 << 4);
  8647  001E60  0100               	movlb	0	; () banked
  8648  001E62  89CB               	bsf	_flags& (0+255),4,b
  8649  001E64  EF1B  F00F         	goto	i2l3278
  8650  001E68                     i2l3296:
  8651                           
  8652                           ;/opt/microchip/xc8/v2.32/pic/sources/c99/common/doprnt.c: 734:                     done
      +                           = 1;
  8653  001E68  0E00               	movlw	0
  8654  001E6A  6E4E               	movwf	(vfpfcnvrt@done+1)^0,c
  8655  001E6C  0E01               	movlw	1
  8656  001E6E  6E4D               	movwf	vfpfcnvrt@done^0,c
  8657                           
  8658                           ;/opt/microchip/xc8/v2.32/pic/sources/c99/common/doprnt.c: 735:                     brea
      +                          k;
  8659  001E70  EF64  F00F         	goto	i2l3302
  8660  001E74                     i2l3300:
  8661  001E74  C045  FFD9         	movff	vfpfcnvrt@fmt,fsr2l
  8662  001E78  C046  FFDA         	movff	vfpfcnvrt@fmt+1,fsr2h
  8663  001E7C  CFDE FFF6          	movff	postinc2,tblptrl
  8664  001E80  CFDD FFF7          	movff	postdec2,tblptrh
  8665  001E84                     	if	0	;tblptru may be non-zero
  8666  001E84                     	endif
  8667  001E84                     	if	0	;tblptru may be non-zero
  8668  001E84                     	endif
  8669  001E84  0008               	tblrd		*
  8670  001E86  50F5               	movf	tablat,w,c
  8671  001E88  6E49               	movwf	??_vfpfcnvrt^0,c
  8672  001E8A  6A4A               	clrf	(??_vfpfcnvrt+1)^0,c
  8673                           
  8674                           ; Switch on 2 bytes has been partitioned into a top level switch of size 1, and 1 sub-sw
      +                          itches
  8675                           ; Switch size 1, requested type "simple"
  8676                           ; Number of cases is 1, Range of values is 0 to 0
  8677                           ; switch strategies available:
  8678                           ; Name         Instructions Cycles
  8679                           ; simple_byte            4     3 (average)
  8680                           ;	Chosen strategy is simple_byte
  8681  001E8C  504A               	movf	(??_vfpfcnvrt+1)^0,w,c
  8682  001E8E  0A00               	xorlw	0	; case 0
  8683  001E90  B4D8               	btfsc	status,2,c
  8684  001E92  EF4D  F00F         	goto	i2l4720
  8685  001E96  EF34  F00F         	goto	i2l3296
  8686  001E9A                     i2l4720:
  8687                           
  8688                           ; Switch size 1, requested type "simple"
  8689                           ; Number of cases is 5, Range of values is 32 to 48
  8690                           ; switch strategies available:
  8691                           ; Name         Instructions Cycles
  8692                           ; simple_byte           16     9 (average)
  8693                           ;	Chosen strategy is simple_byte
  8694  001E9A  5049               	movf	??_vfpfcnvrt^0,w,c
  8695  001E9C  0A20               	xorlw	32	; case 32
  8696  001E9E  B4D8               	btfsc	status,2,c
  8697  001EA0  EF2C  F00F         	goto	i2l3288
  8698  001EA4  0A03               	xorlw	3	; case 35
  8699  001EA6  B4D8               	btfsc	status,2,c
  8700  001EA8  EF30  F00F         	goto	i2l3292
  8701  001EAC  0A08               	xorlw	8	; case 43
  8702  001EAE  B4D8               	btfsc	status,2,c
  8703  001EB0  EF28  F00F         	goto	i2l3284
  8704  001EB4  0A06               	xorlw	6	; case 45
  8705  001EB6  B4D8               	btfsc	status,2,c
  8706  001EB8  EF19  F00F         	goto	i2l3276
  8707  001EBC  0A1D               	xorlw	29	; case 48
  8708  001EBE  B4D8               	btfsc	status,2,c
  8709  001EC0  EF24  F00F         	goto	i2l3280
  8710  001EC4  EF34  F00F         	goto	i2l3296
  8711  001EC8                     i2l3302:
  8712                           
  8713                           ;/opt/microchip/xc8/v2.32/pic/sources/c99/common/doprnt.c: 711:         while (!done) {
  8714  001EC8  504D               	movf	vfpfcnvrt@done^0,w,c
  8715  001ECA  104E               	iorwf	(vfpfcnvrt@done+1)^0,w,c
  8716  001ECC  B4D8               	btfsc	status,2,c
  8717  001ECE  EF6B  F00F         	goto	i2u397_41
  8718  001ED2  EF6D  F00F         	goto	i2u397_40
  8719  001ED6                     i2u397_41:
  8720  001ED6  EF3A  F00F         	goto	i2l3300
  8721  001EDA                     i2u397_40:
  8722  001EDA                     
  8723                           ;/opt/microchip/xc8/v2.32/pic/sources/c99/common/doprnt.c: 738:         if (flags & (1 <
      +                          < 0)) {
  8724  001EDA  0100               	movlb	0	; () banked
  8725  001EDC  A1CB               	btfss	_flags& (0+255),0,b
  8726  001EDE  EF73  F00F         	goto	i2u398_41
  8727  001EE2  EF75  F00F         	goto	i2u398_40
  8728  001EE6                     i2u398_41:
  8729  001EE6  EF76  F00F         	goto	i2l3306
  8730  001EEA                     i2u398_40:
  8731  001EEA                     
  8732                           ; BSR set to: 0
  8733                           ;/opt/microchip/xc8/v2.32/pic/sources/c99/common/doprnt.c: 739:             flags &= ~(1
      +                           << 1);
  8734  001EEA  93CB               	bcf	_flags& (0+255),1,b
  8735  001EEC                     i2l3306:
  8736                           
  8737                           ; BSR set to: 0
  8738                           ;/opt/microchip/xc8/v2.32/pic/sources/c99/common/doprnt.c: 745:         if ((*fmt)[0] ==
      +                           '*') {
  8739  001EEC  C045  FFD9         	movff	vfpfcnvrt@fmt,fsr2l
  8740  001EF0  C046  FFDA         	movff	vfpfcnvrt@fmt+1,fsr2h
  8741  001EF4  CFDE FFF6          	movff	postinc2,tblptrl
  8742  001EF8  CFDD FFF7          	movff	postdec2,tblptrh
  8743  001EFC                     	if	0	;tblptru may be non-zero
  8744  001EFC                     	endif
  8745  001EFC                     	if	0	;tblptru may be non-zero
  8746  001EFC                     	endif
  8747  001EFC  0008               	tblrd		*
  8748  001EFE  50F5               	movf	tablat,w,c
  8749  001F00  0A2A               	xorlw	42
  8750  001F02  A4D8               	btfss	status,2,c
  8751  001F04  EF86  F00F         	goto	i2u399_41
  8752  001F08  EF88  F00F         	goto	i2u399_40
  8753  001F0C                     i2u399_41:
  8754  001F0C  EFB1  F00F         	goto	i2l3314
  8755  001F10                     i2u399_40:
  8756  001F10                     
  8757                           ; BSR set to: 0
  8758                           ;/opt/microchip/xc8/v2.32/pic/sources/c99/common/doprnt.c: 746:             ++*fmt;
  8759  001F10  C045  FFD9         	movff	vfpfcnvrt@fmt,fsr2l
  8760  001F14  C046  FFDA         	movff	vfpfcnvrt@fmt+1,fsr2h
  8761  001F18  2ADE               	incf	postinc2,f,c
  8762  001F1A  0E00               	movlw	0
  8763  001F1C  22DD               	addwfc	postdec2,f,c
  8764                           
  8765                           ;/opt/microchip/xc8/v2.32/pic/sources/c99/common/doprnt.c: 747:             width = (*(i
      +                          nt *)__va_arg(*(int **)ap, (int)0));
  8766  001F1E  C047  FFD9         	movff	vfpfcnvrt@ap,fsr2l
  8767  001F22  C048  FFDA         	movff	vfpfcnvrt@ap+1,fsr2h
  8768  001F26  CFDF F049          	movff	indf2,??_vfpfcnvrt
  8769  001F2A  0E02               	movlw	2
  8770  001F2C  26DE               	addwf	postinc2,f,c
  8771  001F2E  CFDF F04A          	movff	indf2,??_vfpfcnvrt+1
  8772  001F32  0E00               	movlw	0
  8773  001F34  22DD               	addwfc	postdec2,f,c
  8774  001F36  C049  FFD9         	movff	??_vfpfcnvrt,fsr2l
  8775  001F3A  C04A  FFDA         	movff	??_vfpfcnvrt+1,fsr2h
  8776  001F3E  CFDE F0C7          	movff	postinc2,_width
  8777  001F42  CFDD F0C8          	movff	postdec2,_width+1
  8778  001F46                     
  8779                           ; BSR set to: 0
  8780                           ;/opt/microchip/xc8/v2.32/pic/sources/c99/common/doprnt.c: 748:             if (width < 
      +                          0) {
  8781  001F46  BFC8               	btfsc	(_width+1)& (0+255),7,b
  8782  001F48  EFAA  F00F         	goto	i2u400_40
  8783  001F4C  EFA8  F00F         	goto	i2u400_41
  8784  001F50                     i2u400_41:
  8785  001F50  EFF4  F00F         	goto	i2l3324
  8786  001F54                     i2u400_40:
  8787  001F54                     
  8788                           ; BSR set to: 0
  8789                           ;/opt/microchip/xc8/v2.32/pic/sources/c99/common/doprnt.c: 749:                 flags |=
      +                           (1 << 0);
  8790  001F54  81CB               	bsf	_flags& (0+255),0,b
  8791                           
  8792                           ;/opt/microchip/xc8/v2.32/pic/sources/c99/common/doprnt.c: 750:                 width = 
      +                          -width;
  8793  001F56  6DC7               	negf	_width& (0+255),b
  8794  001F58  1FC8               	comf	(_width+1)& (0+255),f,b
  8795  001F5A  B0D8               	btfsc	status,0,c
  8796  001F5C  2BC8               	incf	(_width+1)& (0+255),f,b
  8797  001F5E  EFF4  F00F         	goto	i2l3324
  8798  001F62                     i2l3314:
  8799                           
  8800                           ; BSR set to: 0
  8801                           ;/opt/microchip/xc8/v2.32/pic/sources/c99/common/doprnt.c: 753:             width = atoi
      +                          (*fmt);
  8802  001F62  C045  FFD9         	movff	vfpfcnvrt@fmt,fsr2l
  8803  001F66  C046  FFDA         	movff	vfpfcnvrt@fmt+1,fsr2h
  8804  001F6A  CFDE F008          	movff	postinc2,atoi@s
  8805  001F6E  CFDD F009          	movff	postdec2,atoi@s+1
  8806  001F72  EC24  F016         	call	_atoi	;wreg free
  8807  001F76  C008  F0C7         	movff	?_atoi,_width
  8808  001F7A  C009  F0C8         	movff	?_atoi+1,_width+1
  8809                           
  8810                           ;/opt/microchip/xc8/v2.32/pic/sources/c99/common/doprnt.c: 754:             while ((0 ? 
      +                          isdigit((*fmt)[0]) : ((unsigned)((*fmt)[0])-'0') < 10)) {
  8811  001F7E  EFC8  F00F         	goto	i2l3318
  8812  001F82                     i2l3316:
  8813                           
  8814                           ;/opt/microchip/xc8/v2.32/pic/sources/c99/common/doprnt.c: 755:                 ++*fmt;
  8815  001F82  C045  FFD9         	movff	vfpfcnvrt@fmt,fsr2l
  8816  001F86  C046  FFDA         	movff	vfpfcnvrt@fmt+1,fsr2h
  8817  001F8A  2ADE               	incf	postinc2,f,c
  8818  001F8C  0E00               	movlw	0
  8819  001F8E  22DD               	addwfc	postdec2,f,c
  8820  001F90                     i2l3318:
  8821  001F90  0ED0               	movlw	208
  8822  001F92  6E49               	movwf	??_vfpfcnvrt^0,c
  8823  001F94  0EFF               	movlw	255
  8824  001F96  6E4A               	movwf	(??_vfpfcnvrt+1)^0,c
  8825  001F98  C045  FFD9         	movff	vfpfcnvrt@fmt,fsr2l
  8826  001F9C  C046  FFDA         	movff	vfpfcnvrt@fmt+1,fsr2h
  8827  001FA0  CFDE FFF6          	movff	postinc2,tblptrl
  8828  001FA4  CFDD FFF7          	movff	postdec2,tblptrh
  8829  001FA8                     	if	0	;tblptru may be non-zero
  8830  001FA8                     	endif
  8831  001FA8                     	if	0	;tblptru may be non-zero
  8832  001FA8                     	endif
  8833  001FA8  0008               	tblrd		*
  8834  001FAA  50F5               	movf	tablat,w,c
  8835  001FAC  6E4B               	movwf	(??_vfpfcnvrt+2)^0,c
  8836  001FAE  6A4C               	clrf	(??_vfpfcnvrt+3)^0,c
  8837  001FB0  5049               	movf	??_vfpfcnvrt^0,w,c
  8838  001FB2  264B               	addwf	(??_vfpfcnvrt+2)^0,f,c
  8839  001FB4  504A               	movf	(??_vfpfcnvrt+1)^0,w,c
  8840  001FB6  224C               	addwfc	(??_vfpfcnvrt+3)^0,f,c
  8841  001FB8  504C               	movf	(??_vfpfcnvrt+3)^0,w,c
  8842  001FBA  E10A               	bnz	i2u401_40
  8843  001FBC  0E0A               	movlw	10
  8844  001FBE  5C4B               	subwf	(??_vfpfcnvrt+2)^0,w,c
  8845  001FC0  A0D8               	btfss	status,0,c
  8846  001FC2  EFE5  F00F         	goto	i2u401_41
  8847  001FC6  EFE8  F00F         	goto	i2u401_40
  8848  001FCA                     i2u401_41:
  8849  001FCA  0E01               	movlw	1
  8850  001FCC  EFE9  F00F         	goto	i2u402_40
  8851  001FD0                     i2u401_40:
  8852  001FD0  0E00               	movlw	0
  8853  001FD2                     i2u402_40:
  8854  001FD2  6E4F               	movwf	_vfpfcnvrt$978^0,c
  8855  001FD4  6A50               	clrf	(_vfpfcnvrt$978+1)^0,c
  8856  001FD6  504F               	movf	_vfpfcnvrt$978^0,w,c
  8857  001FD8  1050               	iorwf	(_vfpfcnvrt$978+1)^0,w,c
  8858  001FDA  A4D8               	btfss	status,2,c
  8859  001FDC  EFF2  F00F         	goto	i2u403_41
  8860  001FE0  EFF4  F00F         	goto	i2u403_40
  8861  001FE4                     i2u403_41:
  8862  001FE4  EFC1  F00F         	goto	i2l3316
  8863  001FE8                     i2u403_40:
  8864  001FE8                     i2l3324:
  8865                           
  8866                           ;/opt/microchip/xc8/v2.32/pic/sources/c99/common/doprnt.c: 1204:         if (*fmt[0] == 
      +                          'u') {
  8867  001FE8  C045  FFD9         	movff	vfpfcnvrt@fmt,fsr2l
  8868  001FEC  C046  FFDA         	movff	vfpfcnvrt@fmt+1,fsr2h
  8869  001FF0  CFDE FFF6          	movff	postinc2,tblptrl
  8870  001FF4  CFDD FFF7          	movff	postdec2,tblptrh
  8871  001FF8                     	if	0	;tblptru may be non-zero
  8872  001FF8                     	endif
  8873  001FF8                     	if	0	;tblptru may be non-zero
  8874  001FF8                     	endif
  8875  001FF8  0008               	tblrd		*
  8876  001FFA  50F5               	movf	tablat,w,c
  8877  001FFC  0A75               	xorlw	117
  8878  001FFE  A4D8               	btfss	status,2,c
  8879  002000  EF04  F010         	goto	i2u404_41
  8880  002004  EF06  F010         	goto	i2u404_40
  8881  002008                     i2u404_41:
  8882  002008  EF47  F010         	goto	i2l3332
  8883  00200C                     i2u404_40:
  8884  00200C                     
  8885                           ;/opt/microchip/xc8/v2.32/pic/sources/c99/common/doprnt.c: 1206:             ++*fmt;
  8886  00200C  C045  FFD9         	movff	vfpfcnvrt@fmt,fsr2l
  8887  002010  C046  FFDA         	movff	vfpfcnvrt@fmt+1,fsr2h
  8888  002014  2ADE               	incf	postinc2,f,c
  8889  002016  0E00               	movlw	0
  8890  002018  22DD               	addwfc	postdec2,f,c
  8891                           
  8892                           ;/opt/microchip/xc8/v2.32/pic/sources/c99/common/doprnt.c: 1207:             llu = (unsi
      +                          gned long long)(*(unsigned int *)__va_arg(*(unsigned int **)ap, (unsigned int)0));
  8893  00201A  C047  FFD9         	movff	vfpfcnvrt@ap,fsr2l
  8894  00201E  C048  FFDA         	movff	vfpfcnvrt@ap+1,fsr2h
  8895  002022  CFDF F049          	movff	indf2,??_vfpfcnvrt
  8896  002026  0E02               	movlw	2
  8897  002028  26DE               	addwf	postinc2,f,c
  8898  00202A  CFDF F04A          	movff	indf2,??_vfpfcnvrt+1
  8899  00202E  0E00               	movlw	0
  8900  002030  22DD               	addwfc	postdec2,f,c
  8901  002032  C049  FFD9         	movff	??_vfpfcnvrt,fsr2l
  8902  002036  C04A  FFDA         	movff	??_vfpfcnvrt+1,fsr2h
  8903  00203A  CFDE F04B          	movff	postinc2,??_vfpfcnvrt+2
  8904  00203E  CFDD F04C          	movff	postdec2,??_vfpfcnvrt+3
  8905  002042  C04B  F052         	movff	??_vfpfcnvrt+2,vfpfcnvrt@llu
  8906  002046  C04C  F053         	movff	??_vfpfcnvrt+3,vfpfcnvrt@llu+1
  8907  00204A  6A54               	clrf	(vfpfcnvrt@llu+2)^0,c
  8908  00204C  6A55               	clrf	(vfpfcnvrt@llu+3)^0,c
  8909  00204E  6A56               	clrf	(vfpfcnvrt@llu+4)^0,c
  8910  002050  6A57               	clrf	(vfpfcnvrt@llu+5)^0,c
  8911  002052  6A58               	clrf	(vfpfcnvrt@llu+6)^0,c
  8912  002054  6A59               	clrf	(vfpfcnvrt@llu+7)^0,c
  8913  002056                     
  8914                           ;/opt/microchip/xc8/v2.32/pic/sources/c99/common/doprnt.c: 1209:             return utoa
      +                          (fp, llu);
  8915  002056  C043  F01C         	movff	vfpfcnvrt@fp,utoa@fp
  8916  00205A  C044  F01D         	movff	vfpfcnvrt@fp+1,utoa@fp+1
  8917  00205E  C052  F01E         	movff	vfpfcnvrt@llu,utoa@d
  8918  002062  C053  F01F         	movff	vfpfcnvrt@llu+1,utoa@d+1
  8919  002066  C054  F020         	movff	vfpfcnvrt@llu+2,utoa@d+2
  8920  00206A  C055  F021         	movff	vfpfcnvrt@llu+3,utoa@d+3
  8921  00206E  C056  F022         	movff	vfpfcnvrt@llu+4,utoa@d+4
  8922  002072  C057  F023         	movff	vfpfcnvrt@llu+5,utoa@d+5
  8923  002076  C058  F024         	movff	vfpfcnvrt@llu+6,utoa@d+6
  8924  00207A  C059  F025         	movff	vfpfcnvrt@llu+7,utoa@d+7
  8925  00207E  EC46  F014         	call	_utoa	;wreg free
  8926  002082  C01C  F043         	movff	?_utoa,?_vfpfcnvrt
  8927  002086  C01D  F044         	movff	?_utoa+1,?_vfpfcnvrt+1
  8928  00208A  EF0A  F011         	goto	i2l1149
  8929  00208E                     i2l3332:
  8930                           
  8931                           ;/opt/microchip/xc8/v2.32/pic/sources/c99/common/doprnt.c: 1296:         if ((*fmt[0] ==
      +                           'x') || (*fmt[0] == 'X')) {
  8932  00208E  C045  FFD9         	movff	vfpfcnvrt@fmt,fsr2l
  8933  002092  C046  FFDA         	movff	vfpfcnvrt@fmt+1,fsr2h
  8934  002096  CFDE FFF6          	movff	postinc2,tblptrl
  8935  00209A  CFDD FFF7          	movff	postdec2,tblptrh
  8936  00209E                     	if	0	;tblptru may be non-zero
  8937  00209E                     	endif
  8938  00209E                     	if	0	;tblptru may be non-zero
  8939  00209E                     	endif
  8940  00209E  0008               	tblrd		*
  8941  0020A0  50F5               	movf	tablat,w,c
  8942  0020A2  0A78               	xorlw	120
  8943  0020A4  B4D8               	btfsc	status,2,c
  8944  0020A6  EF57  F010         	goto	i2u405_41
  8945  0020AA  EF59  F010         	goto	i2u405_40
  8946  0020AE                     i2u405_41:
  8947  0020AE  EF6B  F010         	goto	i2l3336
  8948  0020B2                     i2u405_40:
  8949  0020B2  C045  FFD9         	movff	vfpfcnvrt@fmt,fsr2l
  8950  0020B6  C046  FFDA         	movff	vfpfcnvrt@fmt+1,fsr2h
  8951  0020BA  CFDE FFF6          	movff	postinc2,tblptrl
  8952  0020BE  CFDD FFF7          	movff	postdec2,tblptrh
  8953  0020C2                     	if	0	;tblptru may be non-zero
  8954  0020C2                     	endif
  8955  0020C2                     	if	0	;tblptru may be non-zero
  8956  0020C2                     	endif
  8957  0020C2  0008               	tblrd		*
  8958  0020C4  50F5               	movf	tablat,w,c
  8959  0020C6  0A58               	xorlw	88
  8960  0020C8  A4D8               	btfss	status,2,c
  8961  0020CA  EF69  F010         	goto	i2u406_41
  8962  0020CE  EF6B  F010         	goto	i2u406_40
  8963  0020D2                     i2u406_41:
  8964  0020D2  EFB9  F010         	goto	i2l3346
  8965  0020D6                     i2u406_40:
  8966  0020D6                     i2l3336:
  8967                           
  8968                           ;/opt/microchip/xc8/v2.32/pic/sources/c99/common/doprnt.c: 1298:             c = (*fmt)[
      +                          0];
  8969  0020D6  C045  FFD9         	movff	vfpfcnvrt@fmt,fsr2l
  8970  0020DA  C046  FFDA         	movff	vfpfcnvrt@fmt+1,fsr2h
  8971  0020DE  CFDE FFF6          	movff	postinc2,tblptrl
  8972  0020E2  CFDD FFF7          	movff	postdec2,tblptrh
  8973  0020E6                     	if	0	;tblptru may be non-zero
  8974  0020E6                     	endif
  8975  0020E6                     	if	0	;tblptru may be non-zero
  8976  0020E6                     	endif
  8977  0020E6  0008               	tblrd		*
  8978  0020E8  CFF5 F051          	movff	tablat,vfpfcnvrt@c
  8979  0020EC                     
  8980                           ;/opt/microchip/xc8/v2.32/pic/sources/c99/common/doprnt.c: 1299:             ++*fmt;
  8981  0020EC  C045  FFD9         	movff	vfpfcnvrt@fmt,fsr2l
  8982  0020F0  C046  FFDA         	movff	vfpfcnvrt@fmt+1,fsr2h
  8983  0020F4  2ADE               	incf	postinc2,f,c
  8984  0020F6  0E00               	movlw	0
  8985  0020F8  22DD               	addwfc	postdec2,f,c
  8986  0020FA                     
  8987                           ;/opt/microchip/xc8/v2.32/pic/sources/c99/common/doprnt.c: 1300:             llu = (unsi
      +                          gned long long)(*(unsigned int *)__va_arg(*(unsigned int **)ap, (unsigned int)0));
  8988  0020FA  C047  FFD9         	movff	vfpfcnvrt@ap,fsr2l
  8989  0020FE  C048  FFDA         	movff	vfpfcnvrt@ap+1,fsr2h
  8990  002102  CFDF F049          	movff	indf2,??_vfpfcnvrt
  8991  002106  0E02               	movlw	2
  8992  002108  26DE               	addwf	postinc2,f,c
  8993  00210A  CFDF F04A          	movff	indf2,??_vfpfcnvrt+1
  8994  00210E  0E00               	movlw	0
  8995  002110  22DD               	addwfc	postdec2,f,c
  8996  002112  C049  FFD9         	movff	??_vfpfcnvrt,fsr2l
  8997  002116  C04A  FFDA         	movff	??_vfpfcnvrt+1,fsr2h
  8998  00211A  CFDE F04B          	movff	postinc2,??_vfpfcnvrt+2
  8999  00211E  CFDD F04C          	movff	postdec2,??_vfpfcnvrt+3
  9000  002122  C04B  F052         	movff	??_vfpfcnvrt+2,vfpfcnvrt@llu
  9001  002126  C04C  F053         	movff	??_vfpfcnvrt+3,vfpfcnvrt@llu+1
  9002  00212A  6A54               	clrf	(vfpfcnvrt@llu+2)^0,c
  9003  00212C  6A55               	clrf	(vfpfcnvrt@llu+3)^0,c
  9004  00212E  6A56               	clrf	(vfpfcnvrt@llu+4)^0,c
  9005  002130  6A57               	clrf	(vfpfcnvrt@llu+5)^0,c
  9006  002132  6A58               	clrf	(vfpfcnvrt@llu+6)^0,c
  9007  002134  6A59               	clrf	(vfpfcnvrt@llu+7)^0,c
  9008  002136                     
  9009                           ;/opt/microchip/xc8/v2.32/pic/sources/c99/common/doprnt.c: 1302:             return xtoa
      +                          (fp, llu, c);
  9010  002136  C043  F01C         	movff	vfpfcnvrt@fp,xtoa@fp
  9011  00213A  C044  F01D         	movff	vfpfcnvrt@fp+1,xtoa@fp+1
  9012  00213E  C052  F01E         	movff	vfpfcnvrt@llu,xtoa@d
  9013  002142  C053  F01F         	movff	vfpfcnvrt@llu+1,xtoa@d+1
  9014  002146  C054  F020         	movff	vfpfcnvrt@llu+2,xtoa@d+2
  9015  00214A  C055  F021         	movff	vfpfcnvrt@llu+3,xtoa@d+3
  9016  00214E  C056  F022         	movff	vfpfcnvrt@llu+4,xtoa@d+4
  9017  002152  C057  F023         	movff	vfpfcnvrt@llu+5,xtoa@d+5
  9018  002156  C058  F024         	movff	vfpfcnvrt@llu+6,xtoa@d+6
  9019  00215A  C059  F025         	movff	vfpfcnvrt@llu+7,xtoa@d+7
  9020  00215E  C051  F026         	movff	vfpfcnvrt@c,xtoa@x
  9021  002162  ECD9  F012         	call	_xtoa	;wreg free
  9022  002166  C01C  F043         	movff	?_xtoa,?_vfpfcnvrt
  9023  00216A  C01D  F044         	movff	?_xtoa+1,?_vfpfcnvrt+1
  9024  00216E  EF0A  F011         	goto	i2l1149
  9025  002172                     i2l3346:
  9026                           
  9027                           ;/opt/microchip/xc8/v2.32/pic/sources/c99/common/doprnt.c: 1372:         if ((*fmt)[0] =
      +                          = '%') {
  9028  002172  C045  FFD9         	movff	vfpfcnvrt@fmt,fsr2l
  9029  002176  C046  FFDA         	movff	vfpfcnvrt@fmt+1,fsr2h
  9030  00217A  CFDE FFF6          	movff	postinc2,tblptrl
  9031  00217E  CFDD FFF7          	movff	postdec2,tblptrh
  9032  002182                     	if	0	;tblptru may be non-zero
  9033  002182                     	endif
  9034  002182                     	if	0	;tblptru may be non-zero
  9035  002182                     	endif
  9036  002182  0008               	tblrd		*
  9037  002184  50F5               	movf	tablat,w,c
  9038  002186  0A25               	xorlw	37
  9039  002188  A4D8               	btfss	status,2,c
  9040  00218A  EFC9  F010         	goto	i2u407_41
  9041  00218E  EFCB  F010         	goto	i2u407_40
  9042  002192                     i2u407_41:
  9043  002192  EFE2  F010         	goto	i2l3356
  9044  002196                     i2u407_40:
  9045  002196                     
  9046                           ;/opt/microchip/xc8/v2.32/pic/sources/c99/common/doprnt.c: 1373:             ++*fmt;
  9047  002196  C045  FFD9         	movff	vfpfcnvrt@fmt,fsr2l
  9048  00219A  C046  FFDA         	movff	vfpfcnvrt@fmt+1,fsr2h
  9049  00219E  2ADE               	incf	postinc2,f,c
  9050  0021A0  0E00               	movlw	0
  9051  0021A2  22DD               	addwfc	postdec2,f,c
  9052  0021A4                     
  9053                           ;/opt/microchip/xc8/v2.32/pic/sources/c99/common/doprnt.c: 1374:             fputc((int)
      +                          '%', fp);
  9054  0021A4  0E00               	movlw	0
  9055  0021A6  6E02               	movwf	(fputc@c+1)^0,c
  9056  0021A8  0E25               	movlw	37
  9057  0021AA  6E01               	movwf	fputc@c^0,c
  9058  0021AC  C043  F003         	movff	vfpfcnvrt@fp,fputc@fp
  9059  0021B0  C044  F004         	movff	vfpfcnvrt@fp+1,fputc@fp+1
  9060  0021B4  ECB9  F018         	call	_fputc	;wreg free
  9061  0021B8                     i2l3352:
  9062                           
  9063                           ;/opt/microchip/xc8/v2.32/pic/sources/c99/common/doprnt.c: 1375:             return 1;
  9064  0021B8  0E00               	movlw	0
  9065  0021BA  6E44               	movwf	(?_vfpfcnvrt+1)^0,c
  9066  0021BC  0E01               	movlw	1
  9067  0021BE  6E43               	movwf	?_vfpfcnvrt^0,c
  9068  0021C0  EF0A  F011         	goto	i2l1149
  9069  0021C4                     i2l3356:
  9070                           
  9071                           ;/opt/microchip/xc8/v2.32/pic/sources/c99/common/doprnt.c: 1379:         ++*fmt;
  9072  0021C4  C045  FFD9         	movff	vfpfcnvrt@fmt,fsr2l
  9073  0021C8  C046  FFDA         	movff	vfpfcnvrt@fmt+1,fsr2h
  9074  0021CC  2ADE               	incf	postinc2,f,c
  9075  0021CE  0E00               	movlw	0
  9076  0021D0  22DD               	addwfc	postdec2,f,c
  9077  0021D2                     
  9078                           ;/opt/microchip/xc8/v2.32/pic/sources/c99/common/doprnt.c: 1380:         return 0;
  9079  0021D2  0E00               	movlw	0
  9080  0021D4  6E44               	movwf	(?_vfpfcnvrt+1)^0,c
  9081  0021D6  0E00               	movlw	0
  9082  0021D8  6E43               	movwf	?_vfpfcnvrt^0,c
  9083  0021DA  EF0A  F011         	goto	i2l1149
  9084  0021DE                     i2l3362:
  9085                           
  9086                           ;/opt/microchip/xc8/v2.32/pic/sources/c99/common/doprnt.c: 1384:     fputc((int)(*fmt)[0
      +                          ], fp);
  9087  0021DE  C045  FFD9         	movff	vfpfcnvrt@fmt,fsr2l
  9088  0021E2  C046  FFDA         	movff	vfpfcnvrt@fmt+1,fsr2h
  9089  0021E6  CFDE FFF6          	movff	postinc2,tblptrl
  9090  0021EA  CFDD FFF7          	movff	postdec2,tblptrh
  9091  0021EE                     	if	0	;tblptru may be non-zero
  9092  0021EE                     	endif
  9093  0021EE                     	if	0	;tblptru may be non-zero
  9094  0021EE                     	endif
  9095  0021EE  0008               	tblrd		*
  9096  0021F0  50F5               	movf	tablat,w,c
  9097  0021F2  6E01               	movwf	fputc@c^0,c
  9098  0021F4  6A02               	clrf	(fputc@c+1)^0,c
  9099  0021F6  C043  F003         	movff	vfpfcnvrt@fp,fputc@fp
  9100  0021FA  C044  F004         	movff	vfpfcnvrt@fp+1,fputc@fp+1
  9101  0021FE  ECB9  F018         	call	_fputc	;wreg free
  9102  002202                     
  9103                           ;/opt/microchip/xc8/v2.32/pic/sources/c99/common/doprnt.c: 1385:     ++*fmt;
  9104  002202  C045  FFD9         	movff	vfpfcnvrt@fmt,fsr2l
  9105  002206  C046  FFDA         	movff	vfpfcnvrt@fmt+1,fsr2h
  9106  00220A  2ADE               	incf	postinc2,f,c
  9107  00220C  0E00               	movlw	0
  9108  00220E  22DD               	addwfc	postdec2,f,c
  9109  002210  EFDC  F010         	goto	i2l3352
  9110  002214                     i2l1149:
  9111  002214  0012               	return		;funcret
  9112  002216                     __end_of_vfpfcnvrt:
  9113                           	callstack 0
  9114                           
  9115 ;; *************** function _xtoa *****************
  9116 ;; Defined at:
  9117 ;;		line 645 in file "/opt/microchip/xc8/v2.32/pic/sources/c99/common/doprnt.c"
  9118 ;; Parameters:    Size  Location     Type
  9119 ;;  fp              2   27[COMRAM] PTR struct _IO_FILE
  9120 ;;		 -> sprintf@f(6), 
  9121 ;;  d               8   29[COMRAM] unsigned long long 
  9122 ;;  x               1   37[COMRAM] unsigned char 
  9123 ;; Auto vars:     Size  Location     Type
  9124 ;;  n               8   54[COMRAM] unsigned long long 
  9125 ;;  c               2   64[COMRAM] int 
  9126 ;;  i               2   62[COMRAM] int 
  9127 ;;  w               2   52[COMRAM] int 
  9128 ;;  p               2   50[COMRAM] int 
  9129 ;; Return value:  Size  Location     Type
  9130 ;;                  2   27[COMRAM] int 
  9131 ;; Registers used:
  9132 ;;		wreg, fsr1l, fsr1h, fsr2l, fsr2h, status,2, status,0, cstack
  9133 ;; Tracked objects:
  9134 ;;		On entry : 0/0
  9135 ;;		On exit  : 0/0
  9136 ;;		Unchanged: 0/0
  9137 ;; Data sizes:     COMRAM   BANK0   BANK1   BANK2   BANK3   BANK4   BANK5
  9138 ;;      Params:        11       0       0       0       0       0       0
  9139 ;;      Locals:        20       0       0       0       0       0       0
  9140 ;;      Temps:          8       0       0       0       0       0       0
  9141 ;;      Totals:        39       0       0       0       0       0       0
  9142 ;;Total ram usage:       39 bytes
  9143 ;; Hardware stack levels used: 1
  9144 ;; Hardware stack levels required when called: 4
  9145 ;; This function calls:
  9146 ;;		_isalpha
  9147 ;;		_isupper
  9148 ;;		_pad
  9149 ;;		_toupper
  9150 ;; This function is called by:
  9151 ;;		_vfpfcnvrt
  9152 ;; This function uses a non-reentrant model
  9153 ;;
  9154                           
  9155                           	psect	text12
  9156  0025B2                     __ptext12:
  9157                           	callstack 0
  9158  0025B2                     _xtoa:
  9159                           	callstack 20
  9160  0025B2                     
  9161                           ;/opt/microchip/xc8/v2.32/pic/sources/c99/common/doprnt.c: 645: static int xtoa(FILE *fp
      +                          , unsigned long long d, char x);/opt/microchip/xc8/v2.32/pic/sources/c99/common/doprnt.c
      +                          : 646: {;/opt/microchip/xc8/v2.32/pic/sources/c99/common/doprnt.c: 647:     int c, i, p,
      +                           w;;/opt/microchip/xc8/v2.32/pic/sources/c99/common/doprnt.c: 648:     unsigned long lon
      +                          g n;;/opt/microchip/xc8/v2.32/pic/sources/c99/common/doprnt.c: 651:     if (!(prec < 0))
      +                           {
  9162  0025B2  0100               	movlb	0	; () banked
  9163  0025B4  BFCA               	btfsc	(_prec+1)& (0+255),7,b
  9164  0025B6  EFDF  F012         	goto	i2u372_41
  9165  0025BA  EFE1  F012         	goto	i2u372_40
  9166  0025BE                     i2u372_41:
  9167  0025BE  EFE2  F012         	goto	i2l3162
  9168  0025C2                     i2u372_40:
  9169  0025C2                     
  9170                           ; BSR set to: 0
  9171                           ;/opt/microchip/xc8/v2.32/pic/sources/c99/common/doprnt.c: 652:         flags &= ~(1 << 
      +                          1);
  9172  0025C2  93CB               	bcf	_flags& (0+255),1,b
  9173  0025C4                     i2l3162:
  9174                           
  9175                           ; BSR set to: 0
  9176                           ;/opt/microchip/xc8/v2.32/pic/sources/c99/common/doprnt.c: 654:     p = (0 < prec) ? pre
      +                          c : 1;
  9177  0025C4  BFCA               	btfsc	(_prec+1)& (0+255),7,b
  9178  0025C6  EFEF  F012         	goto	i2u373_40
  9179  0025CA  51CA               	movf	(_prec+1)& (0+255),w,b
  9180  0025CC  E106               	bnz	i2u373_41
  9181  0025CE  05C9               	decf	_prec& (0+255),w,b
  9182  0025D0  B0D8               	btfsc	status,0,c
  9183  0025D2  EFED  F012         	goto	i2u373_41
  9184  0025D6  EFEF  F012         	goto	i2u373_40
  9185  0025DA                     i2u373_41:
  9186  0025DA  EFF5  F012         	goto	i2l1097
  9187  0025DE                     i2u373_40:
  9188  0025DE                     
  9189                           ; BSR set to: 0
  9190  0025DE  0E00               	movlw	0
  9191  0025E0  6E34               	movwf	(xtoa@p+1)^0,c
  9192  0025E2  0E01               	movlw	1
  9193  0025E4  6E33               	movwf	xtoa@p^0,c
  9194  0025E6  EFF9  F012         	goto	i2l1099
  9195  0025EA                     i2l1097:
  9196                           
  9197                           ; BSR set to: 0
  9198  0025EA  C0C9  F033         	movff	_prec,xtoa@p
  9199  0025EE  C0CA  F034         	movff	_prec+1,xtoa@p+1
  9200  0025F2                     i2l1099:
  9201                           
  9202                           ; BSR set to: 0
  9203                           ;/opt/microchip/xc8/v2.32/pic/sources/c99/common/doprnt.c: 655:     w = width;
  9204  0025F2  C0C7  F035         	movff	_width,xtoa@w
  9205  0025F6  C0C8  F036         	movff	_width+1,xtoa@w+1
  9206                           
  9207                           ;/opt/microchip/xc8/v2.32/pic/sources/c99/common/doprnt.c: 656:     if (flags & (1 << 4)
      +                          ) {
  9208  0025FA  A9CB               	btfss	_flags& (0+255),4,b
  9209  0025FC  EF02  F013         	goto	i2u374_41
  9210  002600  EF04  F013         	goto	i2u374_40
  9211  002604                     i2u374_41:
  9212  002604  EF08  F013         	goto	i2l3168
  9213  002608                     i2u374_40:
  9214  002608                     
  9215                           ; BSR set to: 0
  9216                           ;/opt/microchip/xc8/v2.32/pic/sources/c99/common/doprnt.c: 657:         w -= 2;
  9217  002608  0EFE               	movlw	254
  9218  00260A  2635               	addwf	xtoa@w^0,f,c
  9219  00260C  0EFF               	movlw	255
  9220  00260E  2236               	addwfc	(xtoa@w+1)^0,f,c
  9221  002610                     i2l3168:
  9222                           
  9223                           ; BSR set to: 0
  9224                           ;/opt/microchip/xc8/v2.32/pic/sources/c99/common/doprnt.c: 661:     n = d;
  9225  002610  C01E  F037         	movff	xtoa@d,xtoa@n
  9226  002614  C01F  F038         	movff	xtoa@d+1,xtoa@n+1
  9227  002618  C020  F039         	movff	xtoa@d+2,xtoa@n+2
  9228  00261C  C021  F03A         	movff	xtoa@d+3,xtoa@n+3
  9229  002620  C022  F03B         	movff	xtoa@d+4,xtoa@n+4
  9230  002624  C023  F03C         	movff	xtoa@d+5,xtoa@n+5
  9231  002628  C024  F03D         	movff	xtoa@d+6,xtoa@n+6
  9232  00262C  C025  F03E         	movff	xtoa@d+7,xtoa@n+7
  9233  002630                     
  9234                           ; BSR set to: 0
  9235                           ;/opt/microchip/xc8/v2.32/pic/sources/c99/common/doprnt.c: 662:     i = sizeof(dbuf) - 1
      +                          ;
  9236  002630  0E00               	movlw	0
  9237  002632  6E40               	movwf	(xtoa@i+1)^0,c
  9238  002634  0E1F               	movlw	31
  9239  002636  6E3F               	movwf	xtoa@i^0,c
  9240  002638                     
  9241                           ; BSR set to: 0
  9242                           ;/opt/microchip/xc8/v2.32/pic/sources/c99/common/doprnt.c: 663:     dbuf[i] = '\0';
  9243  002638  0E00               	movlw	0
  9244  00263A  0101               	movlb	1	; () banked
  9245  00263C  6FF2               	movwf	(_dbuf+31)& (0+255),b
  9246                           
  9247                           ;/opt/microchip/xc8/v2.32/pic/sources/c99/common/doprnt.c: 664:     while (!(i < 2) && (
      +                          n || (0 < p) || ((0 < w) && (flags & (1 << 1))))) {
  9248  00263E  EFD4  F013         	goto	i2l3204
  9249  002642                     i2l3174:
  9250                           
  9251                           ;/opt/microchip/xc8/v2.32/pic/sources/c99/common/doprnt.c: 665:         --i;
  9252  002642  063F               	decf	xtoa@i^0,f,c
  9253  002644  A0D8               	btfss	status,0,c
  9254  002646  0640               	decf	(xtoa@i+1)^0,f,c
  9255  002648                     
  9256                           ;/opt/microchip/xc8/v2.32/pic/sources/c99/common/doprnt.c: 666:         c = n & 0x0f;
  9257  002648  0E0F               	movlw	15
  9258  00264A  1437               	andwf	xtoa@n^0,w,c
  9259  00264C  6E41               	movwf	xtoa@c^0,c
  9260  00264E  6A42               	clrf	(xtoa@c+1)^0,c
  9261  002650                     
  9262                           ;/opt/microchip/xc8/v2.32/pic/sources/c99/common/doprnt.c: 667:         c = (c < 10) ? (
      +                          int)'0' + c : (int)'a' + (c - 10);
  9263  002650  BE42               	btfsc	(xtoa@c+1)^0,7,c
  9264  002652  EF34  F013         	goto	i2u375_41
  9265  002656  5042               	movf	(xtoa@c+1)^0,w,c
  9266  002658  E109               	bnz	i2u375_40
  9267  00265A  0E0A               	movlw	10
  9268  00265C  5C41               	subwf	xtoa@c^0,w,c
  9269  00265E  A0D8               	btfss	status,0,c
  9270  002660  EF34  F013         	goto	i2u375_41
  9271  002664  EF36  F013         	goto	i2u375_40
  9272  002668                     i2u375_41:
  9273  002668  EF3E  F013         	goto	i2l3182
  9274  00266C                     i2u375_40:
  9275  00266C  0E57               	movlw	87
  9276  00266E  2441               	addwf	xtoa@c^0,w,c
  9277  002670  6E41               	movwf	xtoa@c^0,c
  9278  002672  0E00               	movlw	0
  9279  002674  2042               	addwfc	(xtoa@c+1)^0,w,c
  9280  002676  6E42               	movwf	(xtoa@c+1)^0,c
  9281  002678  EF44  F013         	goto	i2l1106
  9282  00267C                     i2l3182:
  9283  00267C  0E30               	movlw	48
  9284  00267E  2441               	addwf	xtoa@c^0,w,c
  9285  002680  6E41               	movwf	xtoa@c^0,c
  9286  002682  0E00               	movlw	0
  9287  002684  2042               	addwfc	(xtoa@c+1)^0,w,c
  9288  002686  6E42               	movwf	(xtoa@c+1)^0,c
  9289  002688                     i2l1106:
  9290  002688  0EBF               	movlw	191
  9291  00268A  6E27               	movwf	??_xtoa^0,c
  9292  00268C  0EFF               	movlw	255
  9293  00268E  6E28               	movwf	(??_xtoa+1)^0,c
  9294  002690  5026               	movf	xtoa@x^0,w,c
  9295  002692  6E29               	movwf	(??_xtoa+2)^0,c
  9296  002694  6A2A               	clrf	(??_xtoa+3)^0,c
  9297  002696  5027               	movf	??_xtoa^0,w,c
  9298  002698  2629               	addwf	(??_xtoa+2)^0,f,c
  9299  00269A  5028               	movf	(??_xtoa+1)^0,w,c
  9300  00269C  222A               	addwfc	(??_xtoa+3)^0,f,c
  9301  00269E  502A               	movf	(??_xtoa+3)^0,w,c
  9302  0026A0  E10A               	bnz	i2u376_40
  9303  0026A2  0E1A               	movlw	26
  9304  0026A4  5C29               	subwf	(??_xtoa+2)^0,w,c
  9305  0026A6  A0D8               	btfss	status,0,c
  9306  0026A8  EF58  F013         	goto	i2u376_41
  9307  0026AC  EF5B  F013         	goto	i2u376_40
  9308  0026B0                     i2u376_41:
  9309  0026B0  0E01               	movlw	1
  9310  0026B2  EF5C  F013         	goto	i2u377_40
  9311  0026B6                     i2u376_40:
  9312  0026B6  0E00               	movlw	0
  9313  0026B8                     i2u377_40:
  9314  0026B8  6E2F               	movwf	_xtoa$963^0,c
  9315  0026BA  6A30               	clrf	(_xtoa$963+1)^0,c
  9316  0026BC  502F               	movf	_xtoa$963^0,w,c
  9317  0026BE  1030               	iorwf	(_xtoa$963+1)^0,w,c
  9318  0026C0  B4D8               	btfsc	status,2,c
  9319  0026C2  EF65  F013         	goto	i2u378_41
  9320  0026C6  EF67  F013         	goto	i2u378_40
  9321  0026CA                     i2u378_41:
  9322  0026CA  EF97  F013         	goto	i2l3196
  9323  0026CE                     i2u378_40:
  9324  0026CE  0E9F               	movlw	159
  9325  0026D0  6E27               	movwf	??_xtoa^0,c
  9326  0026D2  0EFF               	movlw	255
  9327  0026D4  6E28               	movwf	(??_xtoa+1)^0,c
  9328  0026D6  0E20               	movlw	32
  9329  0026D8  1041               	iorwf	xtoa@c^0,w,c
  9330  0026DA  6E29               	movwf	(??_xtoa+2)^0,c
  9331  0026DC  0E00               	movlw	0
  9332  0026DE  1042               	iorwf	(xtoa@c+1)^0,w,c
  9333  0026E0  6E2A               	movwf	(??_xtoa+3)^0,c
  9334  0026E2  5027               	movf	??_xtoa^0,w,c
  9335  0026E4  2629               	addwf	(??_xtoa+2)^0,f,c
  9336  0026E6  5028               	movf	(??_xtoa+1)^0,w,c
  9337  0026E8  222A               	addwfc	(??_xtoa+3)^0,f,c
  9338  0026EA  502A               	movf	(??_xtoa+3)^0,w,c
  9339  0026EC  E10A               	bnz	i2u379_40
  9340  0026EE  0E1A               	movlw	26
  9341  0026F0  5C29               	subwf	(??_xtoa+2)^0,w,c
  9342  0026F2  A0D8               	btfss	status,0,c
  9343  0026F4  EF7E  F013         	goto	i2u379_41
  9344  0026F8  EF81  F013         	goto	i2u379_40
  9345  0026FC                     i2u379_41:
  9346  0026FC  0E01               	movlw	1
  9347  0026FE  EF82  F013         	goto	i2u380_40
  9348  002702                     i2u379_40:
  9349  002702  0E00               	movlw	0
  9350  002704                     i2u380_40:
  9351  002704  6E31               	movwf	_xtoa$964^0,c
  9352  002706  6A32               	clrf	(_xtoa$964+1)^0,c
  9353  002708  5031               	movf	_xtoa$964^0,w,c
  9354  00270A  1032               	iorwf	(_xtoa$964+1)^0,w,c
  9355  00270C  B4D8               	btfsc	status,2,c
  9356  00270E  EF8B  F013         	goto	i2u381_41
  9357  002712  EF8D  F013         	goto	i2u381_40
  9358  002716                     i2u381_41:
  9359  002716  EF97  F013         	goto	i2l3196
  9360  00271A                     i2u381_40:
  9361  00271A                     
  9362                           ;/opt/microchip/xc8/v2.32/pic/sources/c99/common/doprnt.c: 669:             c = toupper(
      +                          c);
  9363  00271A  C041  F007         	movff	xtoa@c,toupper@c
  9364  00271E  C042  F008         	movff	xtoa@c+1,toupper@c+1
  9365  002722  EC13  F01B         	call	_toupper	;wreg free
  9366  002726  C007  F041         	movff	?_toupper,xtoa@c
  9367  00272A  C008  F042         	movff	?_toupper+1,xtoa@c+1
  9368  00272E                     i2l3196:
  9369                           
  9370                           ;/opt/microchip/xc8/v2.32/pic/sources/c99/common/doprnt.c: 671:         dbuf[i] = (char)
      +                          c;
  9371  00272E  0ED3               	movlw	low _dbuf
  9372  002730  243F               	addwf	xtoa@i^0,w,c
  9373  002732  6ED9               	movwf	fsr2l,c
  9374  002734  0E01               	movlw	high _dbuf
  9375  002736  2040               	addwfc	(xtoa@i+1)^0,w,c
  9376  002738  6EDA               	movwf	fsr2h,c
  9377  00273A  C041  FFDF         	movff	xtoa@c,indf2
  9378  00273E                     
  9379                           ;/opt/microchip/xc8/v2.32/pic/sources/c99/common/doprnt.c: 672:         --p;
  9380  00273E  0633               	decf	xtoa@p^0,f,c
  9381  002740  A0D8               	btfss	status,0,c
  9382  002742  0634               	decf	(xtoa@p+1)^0,f,c
  9383  002744                     
  9384                           ;/opt/microchip/xc8/v2.32/pic/sources/c99/common/doprnt.c: 673:         --w;
  9385  002744  0635               	decf	xtoa@w^0,f,c
  9386  002746  A0D8               	btfss	status,0,c
  9387  002748  0636               	decf	(xtoa@w+1)^0,f,c
  9388  00274A                     
  9389                           ;/opt/microchip/xc8/v2.32/pic/sources/c99/common/doprnt.c: 674:         n = n >> 4;
  9390  00274A  C037  F027         	movff	xtoa@n,??_xtoa
  9391  00274E  C038  F028         	movff	xtoa@n+1,??_xtoa+1
  9392  002752  C039  F029         	movff	xtoa@n+2,??_xtoa+2
  9393  002756  C03A  F02A         	movff	xtoa@n+3,??_xtoa+3
  9394  00275A  C03B  F02B         	movff	xtoa@n+4,??_xtoa+4
  9395  00275E  C03C  F02C         	movff	xtoa@n+5,??_xtoa+5
  9396  002762  C03D  F02D         	movff	xtoa@n+6,??_xtoa+6
  9397  002766  C03E  F02E         	movff	xtoa@n+7,??_xtoa+7
  9398  00276A  0E05               	movlw	5
  9399  00276C  EFC1  F013         	goto	i2u382_40
  9400  002770                     i2u382_45:
  9401  002770  90D8               	bcf	status,0,c
  9402  002772  322E               	rrcf	(??_xtoa+7)^0,f,c
  9403  002774  322D               	rrcf	(??_xtoa+6)^0,f,c
  9404  002776  322C               	rrcf	(??_xtoa+5)^0,f,c
  9405  002778  322B               	rrcf	(??_xtoa+4)^0,f,c
  9406  00277A  322A               	rrcf	(??_xtoa+3)^0,f,c
  9407  00277C  3229               	rrcf	(??_xtoa+2)^0,f,c
  9408  00277E  3228               	rrcf	(??_xtoa+1)^0,f,c
  9409  002780  3227               	rrcf	??_xtoa^0,f,c
  9410  002782                     i2u382_40:
  9411  002782  2EE8               	decfsz	wreg,f,c
  9412  002784  EFB8  F013         	goto	i2u382_45
  9413  002788  C027  F037         	movff	??_xtoa,xtoa@n
  9414  00278C  C028  F038         	movff	??_xtoa+1,xtoa@n+1
  9415  002790  C029  F039         	movff	??_xtoa+2,xtoa@n+2
  9416  002794  C02A  F03A         	movff	??_xtoa+3,xtoa@n+3
  9417  002798  C02B  F03B         	movff	??_xtoa+4,xtoa@n+4
  9418  00279C  C02C  F03C         	movff	??_xtoa+5,xtoa@n+5
  9419  0027A0  C02D  F03D         	movff	??_xtoa+6,xtoa@n+6
  9420  0027A4  C02E  F03E         	movff	??_xtoa+7,xtoa@n+7
  9421  0027A8                     i2l3204:
  9422                           
  9423                           ;/opt/microchip/xc8/v2.32/pic/sources/c99/common/doprnt.c: 664:     while (!(i < 2) && (
      +                          n || (0 < p) || ((0 < w) && (flags & (1 << 1))))) {
  9424  0027A8  BE40               	btfsc	(xtoa@i+1)^0,7,c
  9425  0027AA  EFE0  F013         	goto	i2u383_41
  9426  0027AE  5040               	movf	(xtoa@i+1)^0,w,c
  9427  0027B0  E109               	bnz	i2u383_40
  9428  0027B2  0E02               	movlw	2
  9429  0027B4  5C3F               	subwf	xtoa@i^0,w,c
  9430  0027B6  A0D8               	btfss	status,0,c
  9431  0027B8  EFE0  F013         	goto	i2u383_41
  9432  0027BC  EFE2  F013         	goto	i2u383_40
  9433  0027C0                     i2u383_41:
  9434  0027C0  EF13  F014         	goto	i2l1120
  9435  0027C4                     i2u383_40:
  9436  0027C4  5037               	movf	xtoa@n^0,w,c
  9437  0027C6  1038               	iorwf	(xtoa@n+1)^0,w,c
  9438  0027C8  1039               	iorwf	(xtoa@n+2)^0,w,c
  9439  0027CA  103A               	iorwf	(xtoa@n+3)^0,w,c
  9440  0027CC  103B               	iorwf	(xtoa@n+4)^0,w,c
  9441  0027CE  103C               	iorwf	(xtoa@n+5)^0,w,c
  9442  0027D0  103D               	iorwf	(xtoa@n+6)^0,w,c
  9443  0027D2  103E               	iorwf	(xtoa@n+7)^0,w,c
  9444  0027D4  A4D8               	btfss	status,2,c
  9445  0027D6  EFEF  F013         	goto	i2u384_41
  9446  0027DA  EFF1  F013         	goto	i2u384_40
  9447  0027DE                     i2u384_41:
  9448  0027DE  EF21  F013         	goto	i2l3174
  9449  0027E2                     i2u384_40:
  9450  0027E2  BE34               	btfsc	(xtoa@p+1)^0,7,c
  9451  0027E4  EFFE  F013         	goto	i2u385_40
  9452  0027E8  5034               	movf	(xtoa@p+1)^0,w,c
  9453  0027EA  E106               	bnz	i2u385_41
  9454  0027EC  0433               	decf	xtoa@p^0,w,c
  9455  0027EE  B0D8               	btfsc	status,0,c
  9456  0027F0  EFFC  F013         	goto	i2u385_41
  9457  0027F4  EFFE  F013         	goto	i2u385_40
  9458  0027F8                     i2u385_41:
  9459  0027F8  EF21  F013         	goto	i2l3174
  9460  0027FC                     i2u385_40:
  9461  0027FC  BE36               	btfsc	(xtoa@w+1)^0,7,c
  9462  0027FE  EF09  F014         	goto	i2u386_41
  9463  002802  5036               	movf	(xtoa@w+1)^0,w,c
  9464  002804  E108               	bnz	i2u386_40
  9465  002806  0435               	decf	xtoa@w^0,w,c
  9466  002808  A0D8               	btfss	status,0,c
  9467  00280A  EF09  F014         	goto	i2u386_41
  9468  00280E  EF0B  F014         	goto	i2u386_40
  9469  002812                     i2u386_41:
  9470  002812  EF13  F014         	goto	i2l1120
  9471  002816                     i2u386_40:
  9472  002816  0100               	movlb	0	; () banked
  9473  002818  B3CB               	btfsc	_flags& (0+255),1,b
  9474  00281A  EF11  F014         	goto	i2u387_41
  9475  00281E  EF13  F014         	goto	i2u387_40
  9476  002822                     i2u387_41:
  9477  002822  EF21  F013         	goto	i2l3174
  9478  002826                     i2u387_40:
  9479  002826                     i2l1120:
  9480                           
  9481                           ;/opt/microchip/xc8/v2.32/pic/sources/c99/common/doprnt.c: 678:     if (flags & (1 << 4)
      +                          ) {
  9482  002826  0100               	movlb	0	; () banked
  9483  002828  A9CB               	btfss	_flags& (0+255),4,b
  9484  00282A  EF19  F014         	goto	i2u388_41
  9485  00282E  EF1B  F014         	goto	i2u388_40
  9486  002832                     i2u388_41:
  9487  002832  EF31  F014         	goto	i2l3220
  9488  002836                     i2u388_40:
  9489  002836                     
  9490                           ; BSR set to: 0
  9491                           ;/opt/microchip/xc8/v2.32/pic/sources/c99/common/doprnt.c: 679:         --i;
  9492  002836  063F               	decf	xtoa@i^0,f,c
  9493  002838  A0D8               	btfss	status,0,c
  9494  00283A  0640               	decf	(xtoa@i+1)^0,f,c
  9495  00283C                     
  9496                           ; BSR set to: 0
  9497                           ;/opt/microchip/xc8/v2.32/pic/sources/c99/common/doprnt.c: 680:         dbuf[i] = x;
  9498  00283C  0ED3               	movlw	low _dbuf
  9499  00283E  243F               	addwf	xtoa@i^0,w,c
  9500  002840  6ED9               	movwf	fsr2l,c
  9501  002842  0E01               	movlw	high _dbuf
  9502  002844  2040               	addwfc	(xtoa@i+1)^0,w,c
  9503  002846  6EDA               	movwf	fsr2h,c
  9504  002848  C026  FFDF         	movff	xtoa@x,indf2
  9505  00284C                     
  9506                           ; BSR set to: 0
  9507                           ;/opt/microchip/xc8/v2.32/pic/sources/c99/common/doprnt.c: 681:         --i;
  9508  00284C  063F               	decf	xtoa@i^0,f,c
  9509  00284E  A0D8               	btfss	status,0,c
  9510  002850  0640               	decf	(xtoa@i+1)^0,f,c
  9511                           
  9512                           ;/opt/microchip/xc8/v2.32/pic/sources/c99/common/doprnt.c: 682:         dbuf[i] = '0';
  9513  002852  0ED3               	movlw	low _dbuf
  9514  002854  243F               	addwf	xtoa@i^0,w,c
  9515  002856  6ED9               	movwf	fsr2l,c
  9516  002858  0E01               	movlw	high _dbuf
  9517  00285A  2040               	addwfc	(xtoa@i+1)^0,w,c
  9518  00285C  6EDA               	movwf	fsr2h,c
  9519  00285E  0E30               	movlw	48
  9520  002860  6EDF               	movwf	indf2,c
  9521  002862                     i2l3220:
  9522                           
  9523                           ; BSR set to: 0
  9524                           ;/opt/microchip/xc8/v2.32/pic/sources/c99/common/doprnt.c: 686:     return pad(fp, &dbuf
      +                          [i], w);
  9525  002862  C01C  F011         	movff	xtoa@fp,pad@fp
  9526  002866  C01D  F012         	movff	xtoa@fp+1,pad@fp+1
  9527  00286A  0ED3               	movlw	low _dbuf
  9528  00286C  243F               	addwf	xtoa@i^0,w,c
  9529  00286E  6E13               	movwf	pad@buf^0,c
  9530  002870  0E01               	movlw	high _dbuf
  9531  002872  2040               	addwfc	(xtoa@i+1)^0,w,c
  9532  002874  6E14               	movwf	(pad@buf+1)^0,c
  9533  002876  C035  F015         	movff	xtoa@w,pad@p
  9534  00287A  C036  F016         	movff	xtoa@w+1,pad@p+1
  9535  00287E  EC1E  F019         	call	_pad	;wreg free
  9536  002882  C011  F01C         	movff	?_pad,?_xtoa
  9537  002886  C012  F01D         	movff	?_pad+1,?_xtoa+1
  9538  00288A  0012               	return		;funcret
  9539  00288C                     __end_of_xtoa:
  9540                           	callstack 0
  9541                           
  9542 ;; *************** function _toupper *****************
  9543 ;; Defined at:
  9544 ;;		line 4 in file "/opt/microchip/xc8/v2.32/pic/sources/c99/common/toupper.c"
  9545 ;; Parameters:    Size  Location     Type
  9546 ;;  c               2    6[COMRAM] int 
  9547 ;; Auto vars:     Size  Location     Type
  9548 ;;		None
  9549 ;; Return value:  Size  Location     Type
  9550 ;;                  2    6[COMRAM] int 
  9551 ;; Registers used:
  9552 ;;		wreg, status,2, status,0
  9553 ;; Tracked objects:
  9554 ;;		On entry : 0/0
  9555 ;;		On exit  : 0/0
  9556 ;;		Unchanged: 0/0
  9557 ;; Data sizes:     COMRAM   BANK0   BANK1   BANK2   BANK3   BANK4   BANK5
  9558 ;;      Params:         2       0       0       0       0       0       0
  9559 ;;      Locals:         2       0       0       0       0       0       0
  9560 ;;      Temps:          4       0       0       0       0       0       0
  9561 ;;      Totals:         8       0       0       0       0       0       0
  9562 ;;Total ram usage:        8 bytes
  9563 ;; Hardware stack levels used: 1
  9564 ;; Hardware stack levels required when called: 1
  9565 ;; This function calls:
  9566 ;;		_islower
  9567 ;; This function is called by:
  9568 ;;		_xtoa
  9569 ;; This function uses a non-reentrant model
  9570 ;;
  9571                           
  9572                           	psect	text13
  9573  003626                     __ptext13:
  9574                           	callstack 0
  9575  003626                     _toupper:
  9576                           	callstack 22
  9577  003626  0E9F               	movlw	159
  9578  003628  6E09               	movwf	??_toupper^0,c
  9579  00362A  0EFF               	movlw	255
  9580  00362C  6E0A               	movwf	(??_toupper+1)^0,c
  9581  00362E  C007  F00B         	movff	toupper@c,??_toupper+2
  9582  003632  C008  F00C         	movff	toupper@c+1,??_toupper+3
  9583  003636  5009               	movf	??_toupper^0,w,c
  9584  003638  260B               	addwf	(??_toupper+2)^0,f,c
  9585  00363A  500A               	movf	(??_toupper+1)^0,w,c
  9586  00363C  220C               	addwfc	(??_toupper+3)^0,f,c
  9587  00363E  500C               	movf	(??_toupper+3)^0,w,c
  9588  003640  E10A               	bnz	i2u358_40
  9589  003642  0E1A               	movlw	26
  9590  003644  5C0B               	subwf	(??_toupper+2)^0,w,c
  9591  003646  A0D8               	btfss	status,0,c
  9592  003648  EF28  F01B         	goto	i2u358_41
  9593  00364C  EF2B  F01B         	goto	i2u358_40
  9594  003650                     i2u358_41:
  9595  003650  0E01               	movlw	1
  9596  003652  EF2C  F01B         	goto	i2u359_40
  9597  003656                     i2u358_40:
  9598  003656  0E00               	movlw	0
  9599  003658                     i2u359_40:
  9600  003658  6E0D               	movwf	_toupper$1079^0,c
  9601  00365A  6A0E               	clrf	(_toupper$1079+1)^0,c
  9602  00365C  500D               	movf	_toupper$1079^0,w,c
  9603  00365E  100E               	iorwf	(_toupper$1079+1)^0,w,c
  9604  003660  B4D8               	btfsc	status,2,c
  9605  003662  EF35  F01B         	goto	i2u360_41
  9606  003666  EF37  F01B         	goto	i2u360_40
  9607  00366A                     i2u360_41:
  9608  00366A  EF3D  F01B         	goto	i2l1250
  9609  00366E                     i2u360_40:
  9610  00366E  0E5F               	movlw	95
  9611  003670  1407               	andwf	toupper@c^0,w,c
  9612  003672  6E07               	movwf	?_toupper^0,c
  9613  003674  6A08               	clrf	(?_toupper+1)^0,c
  9614  003676  EF41  F01B         	goto	i2l1255
  9615  00367A                     i2l1250:
  9616  00367A  C007  F007         	movff	toupper@c,?_toupper
  9617  00367E  C008  F008         	movff	toupper@c+1,?_toupper+1
  9618  003682                     i2l1255:
  9619  003682  0012               	return		;funcret
  9620  003684                     __end_of_toupper:
  9621                           	callstack 0
  9622                           
  9623 ;; *************** function _islower *****************
  9624 ;; Defined at:
  9625 ;;		line 5 in file "/opt/microchip/xc8/v2.32/pic/sources/c99/common/islower.c"
  9626 ;; Parameters:    Size  Location     Type
  9627 ;;  c               2    0[COMRAM] int 
  9628 ;; Auto vars:     Size  Location     Type
  9629 ;;		None
  9630 ;; Return value:  Size  Location     Type
  9631 ;;                  2    0[COMRAM] int 
  9632 ;; Registers used:
  9633 ;;		wreg, status,2, status,0
  9634 ;; Tracked objects:
  9635 ;;		On entry : 0/0
  9636 ;;		On exit  : 0/0
  9637 ;;		Unchanged: 0/0
  9638 ;; Data sizes:     COMRAM   BANK0   BANK1   BANK2   BANK3   BANK4   BANK5
  9639 ;;      Params:         2       0       0       0       0       0       0
  9640 ;;      Locals:         0       0       0       0       0       0       0
  9641 ;;      Temps:          4       0       0       0       0       0       0
  9642 ;;      Totals:         6       0       0       0       0       0       0
  9643 ;;Total ram usage:        6 bytes
  9644 ;; Hardware stack levels used: 1
  9645 ;; This function calls:
  9646 ;;		Nothing
  9647 ;; This function is called by:
  9648 ;;		_toupper
  9649 ;; This function uses a non-reentrant model
  9650 ;;
  9651                           
  9652                           	psect	text14
  9653  003756                     __ptext14:
  9654                           	callstack 0
  9655  003756                     _islower:
  9656                           	callstack 22
  9657  003756  0E9F               	movlw	159
  9658  003758  6E03               	movwf	??_islower^0,c
  9659  00375A  0EFF               	movlw	255
  9660  00375C  6E04               	movwf	(??_islower+1)^0,c
  9661  00375E  C001  F005         	movff	islower@c,??_islower+2
  9662  003762  C002  F006         	movff	islower@c+1,??_islower+3
  9663  003766  5003               	movf	??_islower^0,w,c
  9664  003768  2605               	addwf	(??_islower+2)^0,f,c
  9665  00376A  5004               	movf	(??_islower+1)^0,w,c
  9666  00376C  2206               	addwfc	(??_islower+3)^0,f,c
  9667  00376E  5006               	movf	(??_islower+3)^0,w,c
  9668  003770  E10A               	bnz	i2u341_40
  9669  003772  0E1A               	movlw	26
  9670  003774  5C05               	subwf	(??_islower+2)^0,w,c
  9671  003776  A0D8               	btfss	status,0,c
  9672  003778  EFC0  F01B         	goto	i2u341_41
  9673  00377C  EFC3  F01B         	goto	i2u341_40
  9674  003780                     i2u341_41:
  9675  003780  0E01               	movlw	1
  9676  003782  EFC4  F01B         	goto	i2u342_40
  9677  003786                     i2u341_40:
  9678  003786  0E00               	movlw	0
  9679  003788                     i2u342_40:
  9680  003788  6E01               	movwf	?_islower^0,c
  9681  00378A  6A02               	clrf	(?_islower+1)^0,c
  9682  00378C  0012               	return		;funcret
  9683  00378E                     __end_of_islower:
  9684                           	callstack 0
  9685                           
  9686 ;; *************** function _isupper *****************
  9687 ;; Defined at:
  9688 ;;		line 5 in file "/opt/microchip/xc8/v2.32/pic/sources/c99/common/isupper.c"
  9689 ;; Parameters:    Size  Location     Type
  9690 ;;  c               2    0[COMRAM] int 
  9691 ;; Auto vars:     Size  Location     Type
  9692 ;;		None
  9693 ;; Return value:  Size  Location     Type
  9694 ;;                  2    0[COMRAM] int 
  9695 ;; Registers used:
  9696 ;;		wreg, status,2, status,0
  9697 ;; Tracked objects:
  9698 ;;		On entry : 0/0
  9699 ;;		On exit  : 0/0
  9700 ;;		Unchanged: 0/0
  9701 ;; Data sizes:     COMRAM   BANK0   BANK1   BANK2   BANK3   BANK4   BANK5
  9702 ;;      Params:         2       0       0       0       0       0       0
  9703 ;;      Locals:         0       0       0       0       0       0       0
  9704 ;;      Temps:          4       0       0       0       0       0       0
  9705 ;;      Totals:         6       0       0       0       0       0       0
  9706 ;;Total ram usage:        6 bytes
  9707 ;; Hardware stack levels used: 1
  9708 ;; This function calls:
  9709 ;;		Nothing
  9710 ;; This function is called by:
  9711 ;;		_xtoa
  9712 ;; This function uses a non-reentrant model
  9713 ;;
  9714                           
  9715                           	psect	text15
  9716  00378E                     __ptext15:
  9717                           	callstack 0
  9718  00378E                     _isupper:
  9719                           	callstack 23
  9720  00378E  0EBF               	movlw	191
  9721  003790  6E03               	movwf	??_isupper^0,c
  9722  003792  0EFF               	movlw	255
  9723  003794  6E04               	movwf	(??_isupper+1)^0,c
  9724  003796  C001  F005         	movff	isupper@c,??_isupper+2
  9725  00379A  C002  F006         	movff	isupper@c+1,??_isupper+3
  9726  00379E  5003               	movf	??_isupper^0,w,c
  9727  0037A0  2605               	addwf	(??_isupper+2)^0,f,c
  9728  0037A2  5004               	movf	(??_isupper+1)^0,w,c
  9729  0037A4  2206               	addwfc	(??_isupper+3)^0,f,c
  9730  0037A6  5006               	movf	(??_isupper+3)^0,w,c
  9731  0037A8  E10A               	bnz	i2u354_40
  9732  0037AA  0E1A               	movlw	26
  9733  0037AC  5C05               	subwf	(??_isupper+2)^0,w,c
  9734  0037AE  A0D8               	btfss	status,0,c
  9735  0037B0  EFDC  F01B         	goto	i2u354_41
  9736  0037B4  EFDF  F01B         	goto	i2u354_40
  9737  0037B8                     i2u354_41:
  9738  0037B8  0E01               	movlw	1
  9739  0037BA  EFE0  F01B         	goto	i2u355_40
  9740  0037BE                     i2u354_40:
  9741  0037BE  0E00               	movlw	0
  9742  0037C0                     i2u355_40:
  9743  0037C0  6E01               	movwf	?_isupper^0,c
  9744  0037C2  6A02               	clrf	(?_isupper+1)^0,c
  9745  0037C4  0012               	return		;funcret
  9746  0037C6                     __end_of_isupper:
  9747                           	callstack 0
  9748                           
  9749 ;; *************** function _isalpha *****************
  9750 ;; Defined at:
  9751 ;;		line 5 in file "/opt/microchip/xc8/v2.32/pic/sources/c99/common/isalpha.c"
  9752 ;; Parameters:    Size  Location     Type
  9753 ;;  c               2    0[COMRAM] int 
  9754 ;; Auto vars:     Size  Location     Type
  9755 ;;		None
  9756 ;; Return value:  Size  Location     Type
  9757 ;;                  2    0[COMRAM] int 
  9758 ;; Registers used:
  9759 ;;		wreg, status,2, status,0
  9760 ;; Tracked objects:
  9761 ;;		On entry : 0/0
  9762 ;;		On exit  : 0/0
  9763 ;;		Unchanged: 0/0
  9764 ;; Data sizes:     COMRAM   BANK0   BANK1   BANK2   BANK3   BANK4   BANK5
  9765 ;;      Params:         2       0       0       0       0       0       0
  9766 ;;      Locals:         0       0       0       0       0       0       0
  9767 ;;      Temps:          4       0       0       0       0       0       0
  9768 ;;      Totals:         6       0       0       0       0       0       0
  9769 ;;Total ram usage:        6 bytes
  9770 ;; Hardware stack levels used: 1
  9771 ;; This function calls:
  9772 ;;		Nothing
  9773 ;; This function is called by:
  9774 ;;		_xtoa
  9775 ;; This function uses a non-reentrant model
  9776 ;;
  9777                           
  9778                           	psect	text16
  9779  00371A                     __ptext16:
  9780                           	callstack 0
  9781  00371A                     _isalpha:
  9782                           	callstack 23
  9783  00371A  0E9F               	movlw	159
  9784  00371C  6E03               	movwf	??_isalpha^0,c
  9785  00371E  0EFF               	movlw	255
  9786  003720  6E04               	movwf	(??_isalpha+1)^0,c
  9787  003722  0E20               	movlw	32
  9788  003724  1001               	iorwf	isalpha@c^0,w,c
  9789  003726  6E05               	movwf	(??_isalpha+2)^0,c
  9790  003728  0E00               	movlw	0
  9791  00372A  1002               	iorwf	(isalpha@c+1)^0,w,c
  9792  00372C  6E06               	movwf	(??_isalpha+3)^0,c
  9793  00372E  5003               	movf	??_isalpha^0,w,c
  9794  003730  2605               	addwf	(??_isalpha+2)^0,f,c
  9795  003732  5004               	movf	(??_isalpha+1)^0,w,c
  9796  003734  2206               	addwfc	(??_isalpha+3)^0,f,c
  9797  003736  5006               	movf	(??_isalpha+3)^0,w,c
  9798  003738  E10A               	bnz	i2u356_40
  9799  00373A  0E1A               	movlw	26
  9800  00373C  5C05               	subwf	(??_isalpha+2)^0,w,c
  9801  00373E  A0D8               	btfss	status,0,c
  9802  003740  EFA4  F01B         	goto	i2u356_41
  9803  003744  EFA7  F01B         	goto	i2u356_40
  9804  003748                     i2u356_41:
  9805  003748  0E01               	movlw	1
  9806  00374A  EFA8  F01B         	goto	i2u357_40
  9807  00374E                     i2u356_40:
  9808  00374E  0E00               	movlw	0
  9809  003750                     i2u357_40:
  9810  003750  6E01               	movwf	?_isalpha^0,c
  9811  003752  6A02               	clrf	(?_isalpha+1)^0,c
  9812  003754  0012               	return		;funcret
  9813  003756                     __end_of_isalpha:
  9814                           	callstack 0
  9815                           
  9816 ;; *************** function _utoa *****************
  9817 ;; Defined at:
  9818 ;;		line 615 in file "/opt/microchip/xc8/v2.32/pic/sources/c99/common/doprnt.c"
  9819 ;; Parameters:    Size  Location     Type
  9820 ;;  fp              2   27[COMRAM] PTR struct _IO_FILE
  9821 ;;		 -> sprintf@f(6), 
  9822 ;;  d               8   29[COMRAM] unsigned long long 
  9823 ;; Auto vars:     Size  Location     Type
  9824 ;;  n               8   49[COMRAM] unsigned long long 
  9825 ;;  i               2   57[COMRAM] int 
  9826 ;;  w               2   47[COMRAM] int 
  9827 ;;  p               2   45[COMRAM] int 
  9828 ;; Return value:  Size  Location     Type
  9829 ;;                  2   27[COMRAM] int 
  9830 ;; Registers used:
  9831 ;;		wreg, fsr1l, fsr1h, fsr2l, fsr2h, status,2, status,0, cstack
  9832 ;; Tracked objects:
  9833 ;;		On entry : 0/0
  9834 ;;		On exit  : 0/0
  9835 ;;		Unchanged: 0/0
  9836 ;; Data sizes:     COMRAM   BANK0   BANK1   BANK2   BANK3   BANK4   BANK5
  9837 ;;      Params:        10       0       0       0       0       0       0
  9838 ;;      Locals:        14       0       0       0       0       0       0
  9839 ;;      Temps:          8       0       0       0       0       0       0
  9840 ;;      Totals:        32       0       0       0       0       0       0
  9841 ;;Total ram usage:       32 bytes
  9842 ;; Hardware stack levels used: 1
  9843 ;; Hardware stack levels required when called: 4
  9844 ;; This function calls:
  9845 ;;		___lodiv
  9846 ;;		___lomod
  9847 ;;		_pad
  9848 ;; This function is called by:
  9849 ;;		_vfpfcnvrt
  9850 ;; This function uses a non-reentrant model
  9851 ;;
  9852                           
  9853                           	psect	text17
  9854  00288C                     __ptext17:
  9855                           	callstack 0
  9856  00288C                     _utoa:
  9857                           	callstack 20
  9858  00288C                     
  9859                           ;/opt/microchip/xc8/v2.32/pic/sources/c99/common/doprnt.c: 615: static int utoa(FILE *fp
      +                          , unsigned long long d);/opt/microchip/xc8/v2.32/pic/sources/c99/common/doprnt.c: 616: {
      +                          ;/opt/microchip/xc8/v2.32/pic/sources/c99/common/doprnt.c: 617:     int i, p, w;;/opt/mi
      +                          crochip/xc8/v2.32/pic/sources/c99/common/doprnt.c: 618:     unsigned long long n;;/opt/m
      +                          icrochip/xc8/v2.32/pic/sources/c99/common/doprnt.c: 621:     if (!(prec < 0)) {
  9860  00288C  0100               	movlb	0	; () banked
  9861  00288E  BFCA               	btfsc	(_prec+1)& (0+255),7,b
  9862  002890  EF4C  F014         	goto	i2u365_41
  9863  002894  EF4E  F014         	goto	i2u365_40
  9864  002898                     i2u365_41:
  9865  002898  EF4F  F014         	goto	i2l3126
  9866  00289C                     i2u365_40:
  9867  00289C                     
  9868                           ; BSR set to: 0
  9869                           ;/opt/microchip/xc8/v2.32/pic/sources/c99/common/doprnt.c: 622:         flags &= ~(1 << 
      +                          1);
  9870  00289C  93CB               	bcf	_flags& (0+255),1,b
  9871  00289E                     i2l3126:
  9872                           
  9873                           ; BSR set to: 0
  9874                           ;/opt/microchip/xc8/v2.32/pic/sources/c99/common/doprnt.c: 624:     p = (0 < prec) ? pre
      +                          c : 1;
  9875  00289E  BFCA               	btfsc	(_prec+1)& (0+255),7,b
  9876  0028A0  EF5C  F014         	goto	i2u366_40
  9877  0028A4  51CA               	movf	(_prec+1)& (0+255),w,b
  9878  0028A6  E106               	bnz	i2u366_41
  9879  0028A8  05C9               	decf	_prec& (0+255),w,b
  9880  0028AA  B0D8               	btfsc	status,0,c
  9881  0028AC  EF5A  F014         	goto	i2u366_41
  9882  0028B0  EF5C  F014         	goto	i2u366_40
  9883  0028B4                     i2u366_41:
  9884  0028B4  EF62  F014         	goto	i2l1082
  9885  0028B8                     i2u366_40:
  9886  0028B8                     
  9887                           ; BSR set to: 0
  9888  0028B8  0E00               	movlw	0
  9889  0028BA  6E2F               	movwf	(utoa@p+1)^0,c
  9890  0028BC  0E01               	movlw	1
  9891  0028BE  6E2E               	movwf	utoa@p^0,c
  9892  0028C0  EF66  F014         	goto	i2l1084
  9893  0028C4                     i2l1082:
  9894                           
  9895                           ; BSR set to: 0
  9896  0028C4  C0C9  F02E         	movff	_prec,utoa@p
  9897  0028C8  C0CA  F02F         	movff	_prec+1,utoa@p+1
  9898  0028CC                     i2l1084:
  9899                           
  9900                           ; BSR set to: 0
  9901                           ;/opt/microchip/xc8/v2.32/pic/sources/c99/common/doprnt.c: 625:     w = width;
  9902  0028CC  C0C7  F030         	movff	_width,utoa@w
  9903  0028D0  C0C8  F031         	movff	_width+1,utoa@w+1
  9904                           
  9905                           ;/opt/microchip/xc8/v2.32/pic/sources/c99/common/doprnt.c: 628:     n = d;
  9906  0028D4  C01E  F032         	movff	utoa@d,utoa@n
  9907  0028D8  C01F  F033         	movff	utoa@d+1,utoa@n+1
  9908  0028DC  C020  F034         	movff	utoa@d+2,utoa@n+2
  9909  0028E0  C021  F035         	movff	utoa@d+3,utoa@n+3
  9910  0028E4  C022  F036         	movff	utoa@d+4,utoa@n+4
  9911  0028E8  C023  F037         	movff	utoa@d+5,utoa@n+5
  9912  0028EC  C024  F038         	movff	utoa@d+6,utoa@n+6
  9913  0028F0  C025  F039         	movff	utoa@d+7,utoa@n+7
  9914  0028F4                     
  9915                           ; BSR set to: 0
  9916                           ;/opt/microchip/xc8/v2.32/pic/sources/c99/common/doprnt.c: 629:     i = sizeof(dbuf) - 1
      +                          ;
  9917  0028F4  0E00               	movlw	0
  9918  0028F6  6E3B               	movwf	(utoa@i+1)^0,c
  9919  0028F8  0E1F               	movlw	31
  9920  0028FA  6E3A               	movwf	utoa@i^0,c
  9921  0028FC                     
  9922                           ; BSR set to: 0
  9923                           ;/opt/microchip/xc8/v2.32/pic/sources/c99/common/doprnt.c: 630:     dbuf[i] = '\0';
  9924  0028FC  0E00               	movlw	0
  9925  0028FE  0101               	movlb	1	; () banked
  9926  002900  6FF2               	movwf	(_dbuf+31)& (0+255),b
  9927                           
  9928                           ;/opt/microchip/xc8/v2.32/pic/sources/c99/common/doprnt.c: 631:     while (i && (n || (0
      +                           < p) || ((0 < w) && (flags & (1 << 1))))) {
  9929  002902  EFF9  F014         	goto	i2l3144
  9930  002906                     i2l3134:
  9931                           
  9932                           ;/opt/microchip/xc8/v2.32/pic/sources/c99/common/doprnt.c: 632:         --i;
  9933  002906  063A               	decf	utoa@i^0,f,c
  9934  002908  A0D8               	btfss	status,0,c
  9935  00290A  063B               	decf	(utoa@i+1)^0,f,c
  9936  00290C                     
  9937                           ;/opt/microchip/xc8/v2.32/pic/sources/c99/common/doprnt.c: 633:         dbuf[i] = '0' + 
      +                          (n % 10);
  9938  00290C  0ED3               	movlw	low _dbuf
  9939  00290E  243A               	addwf	utoa@i^0,w,c
  9940  002910  6ED9               	movwf	fsr2l,c
  9941  002912  0E01               	movlw	high _dbuf
  9942  002914  203B               	addwfc	(utoa@i+1)^0,w,c
  9943  002916  6EDA               	movwf	fsr2h,c
  9944  002918  C032  F001         	movff	utoa@n,___lomod@dividend
  9945  00291C  C033  F002         	movff	utoa@n+1,___lomod@dividend+1
  9946  002920  C034  F003         	movff	utoa@n+2,___lomod@dividend+2
  9947  002924  C035  F004         	movff	utoa@n+3,___lomod@dividend+3
  9948  002928  C036  F005         	movff	utoa@n+4,___lomod@dividend+4
  9949  00292C  C037  F006         	movff	utoa@n+5,___lomod@dividend+5
  9950  002930  C038  F007         	movff	utoa@n+6,___lomod@dividend+6
  9951  002934  C039  F008         	movff	utoa@n+7,___lomod@dividend+7
  9952  002938  0E0A               	movlw	10
  9953  00293A  6E09               	movwf	___lomod@divisor^0,c
  9954  00293C  0E00               	movlw	0
  9955  00293E  6E0A               	movwf	(___lomod@divisor+1)^0,c
  9956  002940  0E00               	movlw	0
  9957  002942  6E0B               	movwf	(___lomod@divisor+2)^0,c
  9958  002944  0E00               	movlw	0
  9959  002946  6E0C               	movwf	(___lomod@divisor+3)^0,c
  9960  002948  0E00               	movlw	0
  9961  00294A  6E0D               	movwf	(___lomod@divisor+4)^0,c
  9962  00294C  0E00               	movlw	0
  9963  00294E  6E0E               	movwf	(___lomod@divisor+5)^0,c
  9964  002950  0E00               	movlw	0
  9965  002952  6E0F               	movwf	(___lomod@divisor+6)^0,c
  9966  002954  0E00               	movlw	0
  9967  002956  6E10               	movwf	(___lomod@divisor+7)^0,c
  9968  002958  EC51  F018         	call	___lomod	;wreg free
  9969  00295C  C001  F026         	movff	?___lomod,??_utoa
  9970  002960  C002  F027         	movff	?___lomod+1,??_utoa+1
  9971  002964  C003  F028         	movff	?___lomod+2,??_utoa+2
  9972  002968  C004  F029         	movff	?___lomod+3,??_utoa+3
  9973  00296C  C005  F02A         	movff	?___lomod+4,??_utoa+4
  9974  002970  C006  F02B         	movff	?___lomod+5,??_utoa+5
  9975  002974  C007  F02C         	movff	?___lomod+6,??_utoa+6
  9976  002978  C008  F02D         	movff	?___lomod+7,??_utoa+7
  9977  00297C  5026               	movf	??_utoa^0,w,c
  9978  00297E  0F30               	addlw	48
  9979  002980  6EDF               	movwf	indf2,c
  9980  002982                     
  9981                           ;/opt/microchip/xc8/v2.32/pic/sources/c99/common/doprnt.c: 634:         --p;
  9982  002982  062E               	decf	utoa@p^0,f,c
  9983  002984  A0D8               	btfss	status,0,c
  9984  002986  062F               	decf	(utoa@p+1)^0,f,c
  9985  002988                     
  9986                           ;/opt/microchip/xc8/v2.32/pic/sources/c99/common/doprnt.c: 635:         --w;
  9987  002988  0630               	decf	utoa@w^0,f,c
  9988  00298A  A0D8               	btfss	status,0,c
  9989  00298C  0631               	decf	(utoa@w+1)^0,f,c
  9990  00298E                     
  9991                           ;/opt/microchip/xc8/v2.32/pic/sources/c99/common/doprnt.c: 636:         n = n / 10;
  9992  00298E  C032  F001         	movff	utoa@n,___lodiv@dividend
  9993  002992  C033  F002         	movff	utoa@n+1,___lodiv@dividend+1
  9994  002996  C034  F003         	movff	utoa@n+2,___lodiv@dividend+2
  9995  00299A  C035  F004         	movff	utoa@n+3,___lodiv@dividend+3
  9996  00299E  C036  F005         	movff	utoa@n+4,___lodiv@dividend+4
  9997  0029A2  C037  F006         	movff	utoa@n+5,___lodiv@dividend+5
  9998  0029A6  C038  F007         	movff	utoa@n+6,___lodiv@dividend+6
  9999  0029AA  C039  F008         	movff	utoa@n+7,___lodiv@dividend+7
 10000  0029AE  0E0A               	movlw	10
 10001  0029B0  6E09               	movwf	___lodiv@divisor^0,c
 10002  0029B2  0E00               	movlw	0
 10003  0029B4  6E0A               	movwf	(___lodiv@divisor+1)^0,c
 10004  0029B6  0E00               	movlw	0
 10005  0029B8  6E0B               	movwf	(___lodiv@divisor+2)^0,c
 10006  0029BA  0E00               	movlw	0
 10007  0029BC  6E0C               	movwf	(___lodiv@divisor+3)^0,c
 10008  0029BE  0E00               	movlw	0
 10009  0029C0  6E0D               	movwf	(___lodiv@divisor+4)^0,c
 10010  0029C2  0E00               	movlw	0
 10011  0029C4  6E0E               	movwf	(___lodiv@divisor+5)^0,c
 10012  0029C6  0E00               	movlw	0
 10013  0029C8  6E0F               	movwf	(___lodiv@divisor+6)^0,c
 10014  0029CA  0E00               	movlw	0
 10015  0029CC  6E10               	movwf	(___lodiv@divisor+7)^0,c
 10016  0029CE  EC70  F017         	call	___lodiv	;wreg free
 10017  0029D2  C001  F032         	movff	?___lodiv,utoa@n
 10018  0029D6  C002  F033         	movff	?___lodiv+1,utoa@n+1
 10019  0029DA  C003  F034         	movff	?___lodiv+2,utoa@n+2
 10020  0029DE  C004  F035         	movff	?___lodiv+3,utoa@n+3
 10021  0029E2  C005  F036         	movff	?___lodiv+4,utoa@n+4
 10022  0029E6  C006  F037         	movff	?___lodiv+5,utoa@n+5
 10023  0029EA  C007  F038         	movff	?___lodiv+6,utoa@n+6
 10024  0029EE  C008  F039         	movff	?___lodiv+7,utoa@n+7
 10025  0029F2                     i2l3144:
 10026                           
 10027                           ;/opt/microchip/xc8/v2.32/pic/sources/c99/common/doprnt.c: 631:     while (i && (n || (0
      +                           < p) || ((0 < w) && (flags & (1 << 1))))) {
 10028  0029F2  503A               	movf	utoa@i^0,w,c
 10029  0029F4  103B               	iorwf	(utoa@i+1)^0,w,c
 10030  0029F6  B4D8               	btfsc	status,2,c
 10031  0029F8  EF00  F015         	goto	i2u367_41
 10032  0029FC  EF02  F015         	goto	i2u367_40
 10033  002A00                     i2u367_41:
 10034  002A00  EF33  F015         	goto	i2l3154
 10035  002A04                     i2u367_40:
 10036  002A04  5032               	movf	utoa@n^0,w,c
 10037  002A06  1033               	iorwf	(utoa@n+1)^0,w,c
 10038  002A08  1034               	iorwf	(utoa@n+2)^0,w,c
 10039  002A0A  1035               	iorwf	(utoa@n+3)^0,w,c
 10040  002A0C  1036               	iorwf	(utoa@n+4)^0,w,c
 10041  002A0E  1037               	iorwf	(utoa@n+5)^0,w,c
 10042  002A10  1038               	iorwf	(utoa@n+6)^0,w,c
 10043  002A12  1039               	iorwf	(utoa@n+7)^0,w,c
 10044  002A14  A4D8               	btfss	status,2,c
 10045  002A16  EF0F  F015         	goto	i2u368_41
 10046  002A1A  EF11  F015         	goto	i2u368_40
 10047  002A1E                     i2u368_41:
 10048  002A1E  EF83  F014         	goto	i2l3134
 10049  002A22                     i2u368_40:
 10050  002A22  BE2F               	btfsc	(utoa@p+1)^0,7,c
 10051  002A24  EF1E  F015         	goto	i2u369_40
 10052  002A28  502F               	movf	(utoa@p+1)^0,w,c
 10053  002A2A  E106               	bnz	i2u369_41
 10054  002A2C  042E               	decf	utoa@p^0,w,c
 10055  002A2E  B0D8               	btfsc	status,0,c
 10056  002A30  EF1C  F015         	goto	i2u369_41
 10057  002A34  EF1E  F015         	goto	i2u369_40
 10058  002A38                     i2u369_41:
 10059  002A38  EF83  F014         	goto	i2l3134
 10060  002A3C                     i2u369_40:
 10061  002A3C  BE31               	btfsc	(utoa@w+1)^0,7,c
 10062  002A3E  EF29  F015         	goto	i2u370_41
 10063  002A42  5031               	movf	(utoa@w+1)^0,w,c
 10064  002A44  E108               	bnz	i2u370_40
 10065  002A46  0430               	decf	utoa@w^0,w,c
 10066  002A48  A0D8               	btfss	status,0,c
 10067  002A4A  EF29  F015         	goto	i2u370_41
 10068  002A4E  EF2B  F015         	goto	i2u370_40
 10069  002A52                     i2u370_41:
 10070  002A52  EF33  F015         	goto	i2l3154
 10071  002A56                     i2u370_40:
 10072  002A56  0100               	movlb	0	; () banked
 10073  002A58  B3CB               	btfsc	_flags& (0+255),1,b
 10074  002A5A  EF31  F015         	goto	i2u371_41
 10075  002A5E  EF33  F015         	goto	i2u371_40
 10076  002A62                     i2u371_41:
 10077  002A62  EF83  F014         	goto	i2l3134
 10078  002A66                     i2u371_40:
 10079  002A66                     i2l3154:
 10080                           
 10081                           ;/opt/microchip/xc8/v2.32/pic/sources/c99/common/doprnt.c: 640:     return pad(fp, &dbuf
      +                          [i], w);
 10082  002A66  C01C  F011         	movff	utoa@fp,pad@fp
 10083  002A6A  C01D  F012         	movff	utoa@fp+1,pad@fp+1
 10084  002A6E  0ED3               	movlw	low _dbuf
 10085  002A70  243A               	addwf	utoa@i^0,w,c
 10086  002A72  6E13               	movwf	pad@buf^0,c
 10087  002A74  0E01               	movlw	high _dbuf
 10088  002A76  203B               	addwfc	(utoa@i+1)^0,w,c
 10089  002A78  6E14               	movwf	(pad@buf+1)^0,c
 10090  002A7A  C030  F015         	movff	utoa@w,pad@p
 10091  002A7E  C031  F016         	movff	utoa@w+1,pad@p+1
 10092  002A82  EC1E  F019         	call	_pad	;wreg free
 10093  002A86  C011  F01C         	movff	?_pad,?_utoa
 10094  002A8A  C012  F01D         	movff	?_pad+1,?_utoa+1
 10095  002A8E  0012               	return		;funcret
 10096  002A90                     __end_of_utoa:
 10097                           	callstack 0
 10098                           
 10099 ;; *************** function _pad *****************
 10100 ;; Defined at:
 10101 ;;		line 72 in file "/opt/microchip/xc8/v2.32/pic/sources/c99/common/doprnt.c"
 10102 ;; Parameters:    Size  Location     Type
 10103 ;;  fp              2   16[COMRAM] PTR struct _IO_FILE
 10104 ;;		 -> sprintf@f(6), 
 10105 ;;  buf             2   18[COMRAM] PTR unsigned char 
 10106 ;;		 -> dbuf(32), 
 10107 ;;  p               2   20[COMRAM] int 
 10108 ;; Auto vars:     Size  Location     Type
 10109 ;;  w               2   25[COMRAM] int 
 10110 ;;  i               2   23[COMRAM] int 
 10111 ;; Return value:  Size  Location     Type
 10112 ;;                  2   16[COMRAM] int 
 10113 ;; Registers used:
 10114 ;;		wreg, fsr1l, fsr1h, fsr2l, fsr2h, status,2, status,0, cstack
 10115 ;; Tracked objects:
 10116 ;;		On entry : 0/0
 10117 ;;		On exit  : 0/0
 10118 ;;		Unchanged: 0/0
 10119 ;; Data sizes:     COMRAM   BANK0   BANK1   BANK2   BANK3   BANK4   BANK5
 10120 ;;      Params:         6       0       0       0       0       0       0
 10121 ;;      Locals:         4       0       0       0       0       0       0
 10122 ;;      Temps:          1       0       0       0       0       0       0
 10123 ;;      Totals:        11       0       0       0       0       0       0
 10124 ;;Total ram usage:       11 bytes
 10125 ;; Hardware stack levels used: 1
 10126 ;; Hardware stack levels required when called: 3
 10127 ;; This function calls:
 10128 ;;		_fputc
 10129 ;;		_fputs
 10130 ;;		_strlen
 10131 ;; This function is called by:
 10132 ;;		_utoa
 10133 ;;		_xtoa
 10134 ;; This function uses a non-reentrant model
 10135 ;;
 10136                           
 10137                           	psect	text18
 10138  00323C                     __ptext18:
 10139                           	callstack 0
 10140  00323C                     _pad:
 10141                           	callstack 20
 10142  00323C                     
 10143                           ;/opt/microchip/xc8/v2.32/pic/sources/c99/common/doprnt.c: 72: static int pad(FILE *fp, 
      +                          char *buf, int p);/opt/microchip/xc8/v2.32/pic/sources/c99/common/doprnt.c: 73: {;/opt/m
      +                          icrochip/xc8/v2.32/pic/sources/c99/common/doprnt.c: 74:     int i, w;;/opt/microchip/xc8
      +                          /v2.32/pic/sources/c99/common/doprnt.c: 77:     if (flags & (1 << 0)) {
 10144  00323C  0100               	movlb	0	; () banked
 10145  00323E  A1CB               	btfss	_flags& (0+255),0,b
 10146  003240  EF24  F019         	goto	i2u350_41
 10147  003244  EF26  F019         	goto	i2u350_40
 10148  003248                     i2u350_41:
 10149  003248  EF30  F019         	goto	i2l3070
 10150  00324C                     i2u350_40:
 10151  00324C                     
 10152                           ; BSR set to: 0
 10153                           ;/opt/microchip/xc8/v2.32/pic/sources/c99/common/doprnt.c: 78:         fputs((const char
      +                           *)buf, fp);
 10154  00324C  C013  F00A         	movff	pad@buf,fputs@s
 10155  003250  C014  F00B         	movff	pad@buf+1,fputs@s+1
 10156  003254  C011  F00C         	movff	pad@fp,fputs@fp
 10157  003258  C012  F00D         	movff	pad@fp+1,fputs@fp+1
 10158  00325C  EC6B  F01B         	call	_fputs	;wreg free
 10159  003260                     i2l3070:
 10160                           
 10161                           ;/opt/microchip/xc8/v2.32/pic/sources/c99/common/doprnt.c: 82:     w = (p < 0) ? 0 : p;
 10162  003260  BE16               	btfsc	(pad@p+1)^0,7,c
 10163  003262  EF35  F019         	goto	i2u351_41
 10164  003266  EF37  F019         	goto	i2u351_40
 10165  00326A                     i2u351_41:
 10166  00326A  EF3D  F019         	goto	i2l3074
 10167  00326E                     i2u351_40:
 10168  00326E  C015  F01A         	movff	pad@p,pad@w
 10169  003272  C016  F01B         	movff	pad@p+1,pad@w+1
 10170  003276  EF41  F019         	goto	i2l1072
 10171  00327A                     i2l3074:
 10172  00327A  0E00               	movlw	0
 10173  00327C  6E1B               	movwf	(pad@w+1)^0,c
 10174  00327E  0E00               	movlw	0
 10175  003280  6E1A               	movwf	pad@w^0,c
 10176  003282                     i2l1072:
 10177                           
 10178                           ;/opt/microchip/xc8/v2.32/pic/sources/c99/common/doprnt.c: 83:     i = 0;
 10179  003282  0E00               	movlw	0
 10180  003284  6E19               	movwf	(pad@i+1)^0,c
 10181  003286  0E00               	movlw	0
 10182  003288  6E18               	movwf	pad@i^0,c
 10183                           
 10184                           ;/opt/microchip/xc8/v2.32/pic/sources/c99/common/doprnt.c: 84:     while (i < w) {
 10185  00328A  EF53  F019         	goto	i2l3080
 10186  00328E                     i2l3076:
 10187                           
 10188                           ;/opt/microchip/xc8/v2.32/pic/sources/c99/common/doprnt.c: 85:         fputc(' ', fp);
 10189  00328E  0E00               	movlw	0
 10190  003290  6E02               	movwf	(fputc@c+1)^0,c
 10191  003292  0E20               	movlw	32
 10192  003294  6E01               	movwf	fputc@c^0,c
 10193  003296  C011  F003         	movff	pad@fp,fputc@fp
 10194  00329A  C012  F004         	movff	pad@fp+1,fputc@fp+1
 10195  00329E  ECB9  F018         	call	_fputc	;wreg free
 10196  0032A2                     
 10197                           ;/opt/microchip/xc8/v2.32/pic/sources/c99/common/doprnt.c: 86:         ++i;
 10198  0032A2  4A18               	infsnz	pad@i^0,f,c
 10199  0032A4  2A19               	incf	(pad@i+1)^0,f,c
 10200  0032A6                     i2l3080:
 10201                           
 10202                           ;/opt/microchip/xc8/v2.32/pic/sources/c99/common/doprnt.c: 84:     while (i < w) {
 10203  0032A6  501A               	movf	pad@w^0,w,c
 10204  0032A8  5C18               	subwf	pad@i^0,w,c
 10205  0032AA  5019               	movf	(pad@i+1)^0,w,c
 10206  0032AC  0A80               	xorlw	128
 10207  0032AE  6E17               	movwf	??_pad^0,c
 10208  0032B0  501B               	movf	(pad@w+1)^0,w,c
 10209  0032B2  0A80               	xorlw	128
 10210  0032B4  5817               	subwfb	??_pad^0,w,c
 10211  0032B6  A0D8               	btfss	status,0,c
 10212  0032B8  EF60  F019         	goto	i2u352_41
 10213  0032BC  EF62  F019         	goto	i2u352_40
 10214  0032C0                     i2u352_41:
 10215  0032C0  EF47  F019         	goto	i2l3076
 10216  0032C4                     i2u352_40:
 10217  0032C4                     
 10218                           ;/opt/microchip/xc8/v2.32/pic/sources/c99/common/doprnt.c: 90:     if (!(flags & (1 << 0
      +                          ))) {
 10219  0032C4  0100               	movlb	0	; () banked
 10220  0032C6  B1CB               	btfsc	_flags& (0+255),0,b
 10221  0032C8  EF68  F019         	goto	i2u353_41
 10222  0032CC  EF6A  F019         	goto	i2u353_40
 10223  0032D0                     i2u353_41:
 10224  0032D0  EF74  F019         	goto	i2l3084
 10225  0032D4                     i2u353_40:
 10226  0032D4                     
 10227                           ; BSR set to: 0
 10228                           ;/opt/microchip/xc8/v2.32/pic/sources/c99/common/doprnt.c: 91:         fputs((const char
      +                           *)buf, fp);
 10229  0032D4  C013  F00A         	movff	pad@buf,fputs@s
 10230  0032D8  C014  F00B         	movff	pad@buf+1,fputs@s+1
 10231  0032DC  C011  F00C         	movff	pad@fp,fputs@fp
 10232  0032E0  C012  F00D         	movff	pad@fp+1,fputs@fp+1
 10233  0032E4  EC6B  F01B         	call	_fputs	;wreg free
 10234  0032E8                     i2l3084:
 10235                           
 10236                           ;/opt/microchip/xc8/v2.32/pic/sources/c99/common/doprnt.c: 94:     return (int)(strlen(b
      +                          uf) + (size_t)w);
 10237  0032E8  C013  F001         	movff	pad@buf,strlen@s
 10238  0032EC  C014  F002         	movff	pad@buf+1,strlen@s+1
 10239  0032F0  ECFF  F01B         	call	_strlen	;wreg free
 10240  0032F4  501A               	movf	pad@w^0,w,c
 10241  0032F6  2401               	addwf	?_strlen^0,w,c
 10242  0032F8  6E11               	movwf	?_pad^0,c
 10243  0032FA  501B               	movf	(pad@w+1)^0,w,c
 10244  0032FC  2002               	addwfc	(?_strlen+1)^0,w,c
 10245  0032FE  6E12               	movwf	(?_pad+1)^0,c
 10246  003300  0012               	return		;funcret
 10247  003302                     __end_of_pad:
 10248                           	callstack 0
 10249                           
 10250 ;; *************** function _strlen *****************
 10251 ;; Defined at:
 10252 ;;		line 5 in file "/opt/microchip/xc8/v2.32/pic/sources/c99/common/strlen.c"
 10253 ;; Parameters:    Size  Location     Type
 10254 ;;  s               2    0[COMRAM] PTR const unsigned char 
 10255 ;;		 -> dbuf(32), 
 10256 ;; Auto vars:     Size  Location     Type
 10257 ;;  a               2    2[COMRAM] PTR const unsigned char 
 10258 ;;		 -> dbuf(32), 
 10259 ;; Return value:  Size  Location     Type
 10260 ;;                  2    0[COMRAM] unsigned int 
 10261 ;; Registers used:
 10262 ;;		wreg, fsr2l, fsr2h, status,2, status,0
 10263 ;; Tracked objects:
 10264 ;;		On entry : 0/0
 10265 ;;		On exit  : 0/0
 10266 ;;		Unchanged: 0/0
 10267 ;; Data sizes:     COMRAM   BANK0   BANK1   BANK2   BANK3   BANK4   BANK5
 10268 ;;      Params:         2       0       0       0       0       0       0
 10269 ;;      Locals:         2       0       0       0       0       0       0
 10270 ;;      Temps:          0       0       0       0       0       0       0
 10271 ;;      Totals:         4       0       0       0       0       0       0
 10272 ;;Total ram usage:        4 bytes
 10273 ;; Hardware stack levels used: 1
 10274 ;; This function calls:
 10275 ;;		Nothing
 10276 ;; This function is called by:
 10277 ;;		_pad
 10278 ;; This function uses a non-reentrant model
 10279 ;;
 10280                           
 10281                           	psect	text19
 10282  0037FE                     __ptext19:
 10283                           	callstack 0
 10284  0037FE                     _strlen:
 10285                           	callstack 22
 10286  0037FE  C001  F003         	movff	strlen@s,strlen@a
 10287  003802  C002  F004         	movff	strlen@s+1,strlen@a+1
 10288  003806  EF07  F01C         	goto	i2l3012
 10289  00380A                     i2l3010:
 10290  00380A  4A01               	infsnz	strlen@s^0,f,c
 10291  00380C  2A02               	incf	(strlen@s+1)^0,f,c
 10292  00380E                     i2l3012:
 10293  00380E  C001  FFD9         	movff	strlen@s,fsr2l
 10294  003812  C002  FFDA         	movff	strlen@s+1,fsr2h
 10295  003816  50DF               	movf	indf2,w,c
 10296  003818  A4D8               	btfss	status,2,c
 10297  00381A  EF11  F01C         	goto	i2u340_41
 10298  00381E  EF13  F01C         	goto	i2u340_40
 10299  003822                     i2u340_41:
 10300  003822  EF05  F01C         	goto	i2l3010
 10301  003826                     i2u340_40:
 10302  003826  5003               	movf	strlen@a^0,w,c
 10303  003828  5C01               	subwf	strlen@s^0,w,c
 10304  00382A  6E01               	movwf	?_strlen^0,c
 10305  00382C  5004               	movf	(strlen@a+1)^0,w,c
 10306  00382E  5802               	subwfb	(strlen@s+1)^0,w,c
 10307  003830  6E02               	movwf	(?_strlen+1)^0,c
 10308  003832  0012               	return		;funcret
 10309  003834                     __end_of_strlen:
 10310                           	callstack 0
 10311                           
 10312 ;; *************** function _fputs *****************
 10313 ;; Defined at:
 10314 ;;		line 8 in file "/opt/microchip/xc8/v2.32/pic/sources/c99/common/nf_fputs.c"
 10315 ;; Parameters:    Size  Location     Type
 10316 ;;  s               2    9[COMRAM] PTR const unsigned char 
 10317 ;;		 -> dbuf(32), 
 10318 ;;  fp              2   11[COMRAM] PTR struct _IO_FILE
 10319 ;;		 -> sprintf@f(6), 
 10320 ;; Auto vars:     Size  Location     Type
 10321 ;;  i               2   14[COMRAM] int 
 10322 ;;  c               1   13[COMRAM] unsigned char 
 10323 ;; Return value:  Size  Location     Type
 10324 ;;                  2    9[COMRAM] int 
 10325 ;; Registers used:
 10326 ;;		wreg, fsr1l, fsr1h, fsr2l, fsr2h, status,2, status,0, cstack
 10327 ;; Tracked objects:
 10328 ;;		On entry : 0/0
 10329 ;;		On exit  : 0/0
 10330 ;;		Unchanged: 0/0
 10331 ;; Data sizes:     COMRAM   BANK0   BANK1   BANK2   BANK3   BANK4   BANK5
 10332 ;;      Params:         4       0       0       0       0       0       0
 10333 ;;      Locals:         3       0       0       0       0       0       0
 10334 ;;      Temps:          0       0       0       0       0       0       0
 10335 ;;      Totals:         7       0       0       0       0       0       0
 10336 ;;Total ram usage:        7 bytes
 10337 ;; Hardware stack levels used: 1
 10338 ;; Hardware stack levels required when called: 2
 10339 ;; This function calls:
 10340 ;;		_fputc
 10341 ;; This function is called by:
 10342 ;;		_pad
 10343 ;; This function uses a non-reentrant model
 10344 ;;
 10345                           
 10346                           	psect	text20
 10347  0036D6                     __ptext20:
 10348                           	callstack 0
 10349  0036D6                     _fputs:
 10350                           	callstack 20
 10351  0036D6  0E00               	movlw	0
 10352  0036D8  6E10               	movwf	(fputs@i+1)^0,c
 10353  0036DA  0E00               	movlw	0
 10354  0036DC  6E0F               	movwf	fputs@i^0,c
 10355  0036DE  EF7C  F01B         	goto	i2l3006
 10356  0036E2                     i2l3002:
 10357  0036E2  C00E  F001         	movff	fputs@c,fputc@c
 10358  0036E6  6A02               	clrf	(fputc@c+1)^0,c
 10359  0036E8  C00C  F003         	movff	fputs@fp,fputc@fp
 10360  0036EC  C00D  F004         	movff	fputs@fp+1,fputc@fp+1
 10361  0036F0  ECB9  F018         	call	_fputc	;wreg free
 10362  0036F4  4A0F               	infsnz	fputs@i^0,f,c
 10363  0036F6  2A10               	incf	(fputs@i+1)^0,f,c
 10364  0036F8                     i2l3006:
 10365  0036F8  500F               	movf	fputs@i^0,w,c
 10366  0036FA  240A               	addwf	fputs@s^0,w,c
 10367  0036FC  6ED9               	movwf	fsr2l,c
 10368  0036FE  5010               	movf	(fputs@i+1)^0,w,c
 10369  003700  200B               	addwfc	(fputs@s+1)^0,w,c
 10370  003702  6EDA               	movwf	fsr2h,c
 10371  003704  50DF               	movf	indf2,w,c
 10372  003706  6E0E               	movwf	fputs@c^0,c
 10373  003708  500E               	movf	fputs@c^0,w,c
 10374  00370A  A4D8               	btfss	status,2,c
 10375  00370C  EF8A  F01B         	goto	i2u339_41
 10376  003710  EF8C  F01B         	goto	i2u339_40
 10377  003714                     i2u339_41:
 10378  003714  EF71  F01B         	goto	i2l3002
 10379  003718                     i2u339_40:
 10380  003718  0012               	return		;funcret
 10381  00371A                     __end_of_fputs:
 10382                           	callstack 0
 10383                           
 10384 ;; *************** function _fputc *****************
 10385 ;; Defined at:
 10386 ;;		line 8 in file "/opt/microchip/xc8/v2.32/pic/sources/c99/common/nf_fputc.c"
 10387 ;; Parameters:    Size  Location     Type
 10388 ;;  c               2    0[COMRAM] int 
 10389 ;;  fp              2    2[COMRAM] PTR struct _IO_FILE
 10390 ;;		 -> sprintf@f(6), 
 10391 ;; Auto vars:     Size  Location     Type
 10392 ;;		None
 10393 ;; Return value:  Size  Location     Type
 10394 ;;                  2    0[COMRAM] int 
 10395 ;; Registers used:
 10396 ;;		wreg, fsr1l, fsr1h, fsr2l, fsr2h, status,2, status,0, cstack
 10397 ;; Tracked objects:
 10398 ;;		On entry : 0/0
 10399 ;;		On exit  : 0/0
 10400 ;;		Unchanged: 0/0
 10401 ;; Data sizes:     COMRAM   BANK0   BANK1   BANK2   BANK3   BANK4   BANK5
 10402 ;;      Params:         4       0       0       0       0       0       0
 10403 ;;      Locals:         0       0       0       0       0       0       0
 10404 ;;      Temps:          5       0       0       0       0       0       0
 10405 ;;      Totals:         9       0       0       0       0       0       0
 10406 ;;Total ram usage:        9 bytes
 10407 ;; Hardware stack levels used: 1
 10408 ;; Hardware stack levels required when called: 1
 10409 ;; This function calls:
 10410 ;;		_putch
 10411 ;; This function is called by:
 10412 ;;		_pad
 10413 ;;		_vfpfcnvrt
 10414 ;;		_fputs
 10415 ;; This function uses a non-reentrant model
 10416 ;;
 10417                           
 10418                           	psect	text21
 10419  003172                     __ptext21:
 10420                           	callstack 0
 10421  003172                     _fputc:
 10422                           	callstack 20
 10423  003172  5003               	movf	fputc@fp^0,w,c
 10424  003174  1004               	iorwf	(fputc@fp+1)^0,w,c
 10425  003176  B4D8               	btfsc	status,2,c
 10426  003178  EFC0  F018         	goto	i2u335_41
 10427  00317C  EFC2  F018         	goto	i2u335_40
 10428  003180                     i2u335_41:
 10429  003180  EFCB  F018         	goto	i2l2990
 10430  003184                     i2u335_40:
 10431  003184  5003               	movf	fputc@fp^0,w,c
 10432  003186  1004               	iorwf	(fputc@fp+1)^0,w,c
 10433  003188  A4D8               	btfss	status,2,c
 10434  00318A  EFC9  F018         	goto	i2u336_41
 10435  00318E  EFCB  F018         	goto	i2u336_40
 10436  003192                     i2u336_41:
 10437  003192  EFD0  F018         	goto	i2l2992
 10438  003196                     i2u336_40:
 10439  003196                     i2l2990:
 10440  003196  5001               	movf	fputc@c^0,w,c
 10441  003198  EC2F  F01C         	call	_putch
 10442  00319C  EF1D  F019         	goto	i2l1228
 10443  0031A0                     i2l2992:
 10444  0031A0  EE20 F004          	lfsr	2,4
 10445  0031A4  5003               	movf	fputc@fp^0,w,c
 10446  0031A6  26D9               	addwf	fsr2l,f,c
 10447  0031A8  5004               	movf	(fputc@fp+1)^0,w,c
 10448  0031AA  22DA               	addwfc	fsr2h,f,c
 10449  0031AC  50DE               	movf	postinc2,w,c
 10450  0031AE  10DE               	iorwf	postinc2,w,c
 10451  0031B0  B4D8               	btfsc	status,2,c
 10452  0031B2  EFDD  F018         	goto	i2u337_41
 10453  0031B6  EFDF  F018         	goto	i2u337_40
 10454  0031BA                     i2u337_41:
 10455  0031BA  EFFA  F018         	goto	i2l2996
 10456  0031BE                     i2u337_40:
 10457  0031BE  EE20 F004          	lfsr	2,4
 10458  0031C2  5003               	movf	fputc@fp^0,w,c
 10459  0031C4  26D9               	addwf	fsr2l,f,c
 10460  0031C6  5004               	movf	(fputc@fp+1)^0,w,c
 10461  0031C8  22DA               	addwfc	fsr2h,f,c
 10462  0031CA  EE10 F002          	lfsr	1,2
 10463  0031CE  5003               	movf	fputc@fp^0,w,c
 10464  0031D0  26E1               	addwf	fsr1l,f,c
 10465  0031D2  5004               	movf	(fputc@fp+1)^0,w,c
 10466  0031D4  22E2               	addwfc	fsr1h,f,c
 10467  0031D6  50DE               	movf	postinc2,w,c
 10468  0031D8  5CE6               	subwf	postinc1,w,c
 10469  0031DA  50E6               	movf	postinc1,w,c
 10470  0031DC  0A80               	xorlw	128
 10471  0031DE  6E09               	movwf	(??_fputc+4)^0,c
 10472  0031E0  50DE               	movf	postinc2,w,c
 10473  0031E2  0A80               	xorlw	128
 10474  0031E4  5809               	subwfb	(??_fputc+4)^0,w,c
 10475  0031E6  B0D8               	btfsc	status,0,c
 10476  0031E8  EFF8  F018         	goto	i2u338_41
 10477  0031EC  EFFA  F018         	goto	i2u338_40
 10478  0031F0                     i2u338_41:
 10479  0031F0  EF1D  F019         	goto	i2l1228
 10480  0031F4                     i2u338_40:
 10481  0031F4                     i2l2996:
 10482  0031F4  EE20 F002          	lfsr	2,2
 10483  0031F8  5003               	movf	fputc@fp^0,w,c
 10484  0031FA  26D9               	addwf	fsr2l,f,c
 10485  0031FC  5004               	movf	(fputc@fp+1)^0,w,c
 10486  0031FE  22DA               	addwfc	fsr2h,f,c
 10487  003200  CFDE F005          	movff	postinc2,??_fputc
 10488  003204  CFDD F006          	movff	postdec2,??_fputc+1
 10489  003208  C003  FFD9         	movff	fputc@fp,fsr2l
 10490  00320C  C004  FFDA         	movff	fputc@fp+1,fsr2h
 10491  003210  CFDE F007          	movff	postinc2,??_fputc+2
 10492  003214  CFDD F008          	movff	postdec2,??_fputc+3
 10493  003218  5005               	movf	??_fputc^0,w,c
 10494  00321A  2407               	addwf	(??_fputc+2)^0,w,c
 10495  00321C  6ED9               	movwf	fsr2l,c
 10496  00321E  5006               	movf	(??_fputc+1)^0,w,c
 10497  003220  2008               	addwfc	(??_fputc+3)^0,w,c
 10498  003222  6EDA               	movwf	fsr2h,c
 10499  003224  C001  FFDF         	movff	fputc@c,indf2
 10500  003228  EE20 F002          	lfsr	2,2
 10501  00322C  5003               	movf	fputc@fp^0,w,c
 10502  00322E  26D9               	addwf	fsr2l,f,c
 10503  003230  5004               	movf	(fputc@fp+1)^0,w,c
 10504  003232  22DA               	addwfc	fsr2h,f,c
 10505  003234  2ADE               	incf	postinc2,f,c
 10506  003236  0E00               	movlw	0
 10507  003238  22DD               	addwfc	postdec2,f,c
 10508  00323A                     i2l1228:
 10509  00323A  0012               	return		;funcret
 10510  00323C                     __end_of_fputc:
 10511                           	callstack 0
 10512                           
 10513 ;; *************** function _putch *****************
 10514 ;; Defined at:
 10515 ;;		line 7 in file "/opt/microchip/xc8/v2.32/pic/sources/c99/common/putch.c"
 10516 ;; Parameters:    Size  Location     Type
 10517 ;;  c               1    wreg     unsigned char 
 10518 ;; Auto vars:     Size  Location     Type
 10519 ;;  c               1    0[COMRAM] unsigned char 
 10520 ;; Return value:  Size  Location     Type
 10521 ;;                  1    wreg      void 
 10522 ;; Registers used:
 10523 ;;		wreg
 10524 ;; Tracked objects:
 10525 ;;		On entry : 0/0
 10526 ;;		On exit  : 0/0
 10527 ;;		Unchanged: 0/0
 10528 ;; Data sizes:     COMRAM   BANK0   BANK1   BANK2   BANK3   BANK4   BANK5
 10529 ;;      Params:         0       0       0       0       0       0       0
 10530 ;;      Locals:         0       0       0       0       0       0       0
 10531 ;;      Temps:          0       0       0       0       0       0       0
 10532 ;;      Totals:         0       0       0       0       0       0       0
 10533 ;;Total ram usage:        0 bytes
 10534 ;; Hardware stack levels used: 1
 10535 ;; This function calls:
 10536 ;;		Nothing
 10537 ;; This function is called by:
 10538 ;;		_fputc
 10539 ;; This function uses a non-reentrant model
 10540 ;;
 10541                           
 10542                           	psect	text22
 10543  00385E                     __ptext22:
 10544                           	callstack 0
 10545  00385E                     _putch:
 10546                           	callstack 20
 10547  00385E  0012               	return		;funcret
 10548  003860                     __end_of_putch:
 10549                           	callstack 0
 10550                           
 10551 ;; *************** function ___lomod *****************
 10552 ;; Defined at:
 10553 ;;		line 9 in file "/opt/microchip/xc8/v2.32/pic/sources/c99/common/lomod.c"
 10554 ;; Parameters:    Size  Location     Type
 10555 ;;  dividend        8    0[COMRAM] unsigned long long 
 10556 ;;  divisor         8    8[COMRAM] unsigned long long 
 10557 ;; Auto vars:     Size  Location     Type
 10558 ;;  counter         1   16[COMRAM] unsigned char 
 10559 ;; Return value:  Size  Location     Type
 10560 ;;                  8    0[COMRAM] unsigned long long 
 10561 ;; Registers used:
 10562 ;;		wreg, status,2, status,0
 10563 ;; Tracked objects:
 10564 ;;		On entry : 0/0
 10565 ;;		On exit  : 0/0
 10566 ;;		Unchanged: 0/0
 10567 ;; Data sizes:     COMRAM   BANK0   BANK1   BANK2   BANK3   BANK4   BANK5
 10568 ;;      Params:        16       0       0       0       0       0       0
 10569 ;;      Locals:         1       0       0       0       0       0       0
 10570 ;;      Temps:          0       0       0       0       0       0       0
 10571 ;;      Totals:        17       0       0       0       0       0       0
 10572 ;;Total ram usage:       17 bytes
 10573 ;; Hardware stack levels used: 1
 10574 ;; This function calls:
 10575 ;;		Nothing
 10576 ;; This function is called by:
 10577 ;;		_utoa
 10578 ;; This function uses a non-reentrant model
 10579 ;;
 10580                           
 10581                           	psect	text23
 10582  0030A2                     __ptext23:
 10583                           	callstack 0
 10584  0030A2                     ___lomod:
 10585                           	callstack 23
 10586  0030A2  5009               	movf	___lomod@divisor^0,w,c
 10587  0030A4  100A               	iorwf	(___lomod@divisor+1)^0,w,c
 10588  0030A6  100B               	iorwf	(___lomod@divisor+2)^0,w,c
 10589  0030A8  100C               	iorwf	(___lomod@divisor+3)^0,w,c
 10590  0030AA  100D               	iorwf	(___lomod@divisor+4)^0,w,c
 10591  0030AC  100E               	iorwf	(___lomod@divisor+5)^0,w,c
 10592  0030AE  100F               	iorwf	(___lomod@divisor+6)^0,w,c
 10593  0030B0  1010               	iorwf	(___lomod@divisor+7)^0,w,c
 10594  0030B2  B4D8               	btfsc	status,2,c
 10595  0030B4  EF5E  F018         	goto	i2u347_41
 10596  0030B8  EF60  F018         	goto	i2u347_40
 10597  0030BC                     i2u347_41:
 10598  0030BC  EFA8  F018         	goto	i2l807
 10599  0030C0                     i2u347_40:
 10600  0030C0  0E01               	movlw	1
 10601  0030C2  6E11               	movwf	___lomod@counter^0,c
 10602  0030C4  EF6E  F018         	goto	i2l3056
 10603  0030C8                     i2l3054:
 10604  0030C8  90D8               	bcf	status,0,c
 10605  0030CA  3609               	rlcf	___lomod@divisor^0,f,c
 10606  0030CC  360A               	rlcf	(___lomod@divisor+1)^0,f,c
 10607  0030CE  360B               	rlcf	(___lomod@divisor+2)^0,f,c
 10608  0030D0  360C               	rlcf	(___lomod@divisor+3)^0,f,c
 10609  0030D2  360D               	rlcf	(___lomod@divisor+4)^0,f,c
 10610  0030D4  360E               	rlcf	(___lomod@divisor+5)^0,f,c
 10611  0030D6  360F               	rlcf	(___lomod@divisor+6)^0,f,c
 10612  0030D8  3610               	rlcf	(___lomod@divisor+7)^0,f,c
 10613  0030DA  2A11               	incf	___lomod@counter^0,f,c
 10614  0030DC                     i2l3056:
 10615  0030DC  AE10               	btfss	(___lomod@divisor+7)^0,7,c
 10616  0030DE  EF73  F018         	goto	i2u348_41
 10617  0030E2  EF75  F018         	goto	i2u348_40
 10618  0030E6                     i2u348_41:
 10619  0030E6  EF64  F018         	goto	i2l3054
 10620  0030EA                     i2u348_40:
 10621  0030EA                     i2l3058:
 10622  0030EA  5009               	movf	___lomod@divisor^0,w,c
 10623  0030EC  5C01               	subwf	___lomod@dividend^0,w,c
 10624  0030EE  500A               	movf	(___lomod@divisor+1)^0,w,c
 10625  0030F0  5802               	subwfb	(___lomod@dividend+1)^0,w,c
 10626  0030F2  500B               	movf	(___lomod@divisor+2)^0,w,c
 10627  0030F4  5803               	subwfb	(___lomod@dividend+2)^0,w,c
 10628  0030F6  500C               	movf	(___lomod@divisor+3)^0,w,c
 10629  0030F8  5804               	subwfb	(___lomod@dividend+3)^0,w,c
 10630  0030FA  500D               	movf	(___lomod@divisor+4)^0,w,c
 10631  0030FC  5805               	subwfb	(___lomod@dividend+4)^0,w,c
 10632  0030FE  500E               	movf	(___lomod@divisor+5)^0,w,c
 10633  003100  5806               	subwfb	(___lomod@dividend+5)^0,w,c
 10634  003102  500F               	movf	(___lomod@divisor+6)^0,w,c
 10635  003104  5807               	subwfb	(___lomod@dividend+6)^0,w,c
 10636  003106  5010               	movf	(___lomod@divisor+7)^0,w,c
 10637  003108  5808               	subwfb	(___lomod@dividend+7)^0,w,c
 10638  00310A  A0D8               	btfss	status,0,c
 10639  00310C  EF8A  F018         	goto	i2u349_41
 10640  003110  EF8C  F018         	goto	i2u349_40
 10641  003114                     i2u349_41:
 10642  003114  EF9C  F018         	goto	i2l3062
 10643  003118                     i2u349_40:
 10644  003118  5009               	movf	___lomod@divisor^0,w,c
 10645  00311A  5E01               	subwf	___lomod@dividend^0,f,c
 10646  00311C  500A               	movf	(___lomod@divisor+1)^0,w,c
 10647  00311E  5A02               	subwfb	(___lomod@dividend+1)^0,f,c
 10648  003120  500B               	movf	(___lomod@divisor+2)^0,w,c
 10649  003122  5A03               	subwfb	(___lomod@dividend+2)^0,f,c
 10650  003124  500C               	movf	(___lomod@divisor+3)^0,w,c
 10651  003126  5A04               	subwfb	(___lomod@dividend+3)^0,f,c
 10652  003128  500D               	movf	(___lomod@divisor+4)^0,w,c
 10653  00312A  5A05               	subwfb	(___lomod@dividend+4)^0,f,c
 10654  00312C  500E               	movf	(___lomod@divisor+5)^0,w,c
 10655  00312E  5A06               	subwfb	(___lomod@dividend+5)^0,f,c
 10656  003130  500F               	movf	(___lomod@divisor+6)^0,w,c
 10657  003132  5A07               	subwfb	(___lomod@dividend+6)^0,f,c
 10658  003134  5010               	movf	(___lomod@divisor+7)^0,w,c
 10659  003136  5A08               	subwfb	(___lomod@dividend+7)^0,f,c
 10660  003138                     i2l3062:
 10661  003138  90D8               	bcf	status,0,c
 10662  00313A  3210               	rrcf	(___lomod@divisor+7)^0,f,c
 10663  00313C  320F               	rrcf	(___lomod@divisor+6)^0,f,c
 10664  00313E  320E               	rrcf	(___lomod@divisor+5)^0,f,c
 10665  003140  320D               	rrcf	(___lomod@divisor+4)^0,f,c
 10666  003142  320C               	rrcf	(___lomod@divisor+3)^0,f,c
 10667  003144  320B               	rrcf	(___lomod@divisor+2)^0,f,c
 10668  003146  320A               	rrcf	(___lomod@divisor+1)^0,f,c
 10669  003148  3209               	rrcf	___lomod@divisor^0,f,c
 10670  00314A  2E11               	decfsz	___lomod@counter^0,f,c
 10671  00314C  EF75  F018         	goto	i2l3058
 10672  003150                     i2l807:
 10673  003150  C001  F001         	movff	___lomod@dividend,?___lomod
 10674  003154  C002  F002         	movff	___lomod@dividend+1,?___lomod+1
 10675  003158  C003  F003         	movff	___lomod@dividend+2,?___lomod+2
 10676  00315C  C004  F004         	movff	___lomod@dividend+3,?___lomod+3
 10677  003160  C005  F005         	movff	___lomod@dividend+4,?___lomod+4
 10678  003164  C006  F006         	movff	___lomod@dividend+5,?___lomod+5
 10679  003168  C007  F007         	movff	___lomod@dividend+6,?___lomod+6
 10680  00316C  C008  F008         	movff	___lomod@dividend+7,?___lomod+7
 10681  003170  0012               	return		;funcret
 10682  003172                     __end_of___lomod:
 10683                           	callstack 0
 10684                           
 10685 ;; *************** function ___lodiv *****************
 10686 ;; Defined at:
 10687 ;;		line 9 in file "/opt/microchip/xc8/v2.32/pic/sources/c99/common/lodiv.c"
 10688 ;; Parameters:    Size  Location     Type
 10689 ;;  dividend        8    0[COMRAM] unsigned long long 
 10690 ;;  divisor         8    8[COMRAM] unsigned long long 
 10691 ;; Auto vars:     Size  Location     Type
 10692 ;;  quotient        8   16[COMRAM] unsigned long long 
 10693 ;;  counter         1   24[COMRAM] unsigned char 
 10694 ;; Return value:  Size  Location     Type
 10695 ;;                  8    0[COMRAM] unsigned long long 
 10696 ;; Registers used:
 10697 ;;		wreg, fsr2l, fsr2h, status,2, status,0
 10698 ;; Tracked objects:
 10699 ;;		On entry : 0/0
 10700 ;;		On exit  : 0/0
 10701 ;;		Unchanged: 0/0
 10702 ;; Data sizes:     COMRAM   BANK0   BANK1   BANK2   BANK3   BANK4   BANK5
 10703 ;;      Params:        16       0       0       0       0       0       0
 10704 ;;      Locals:         9       0       0       0       0       0       0
 10705 ;;      Temps:          0       0       0       0       0       0       0
 10706 ;;      Totals:        25       0       0       0       0       0       0
 10707 ;;Total ram usage:       25 bytes
 10708 ;; Hardware stack levels used: 1
 10709 ;; This function calls:
 10710 ;;		Nothing
 10711 ;; This function is called by:
 10712 ;;		_utoa
 10713 ;; This function uses a non-reentrant model
 10714 ;;
 10715                           
 10716                           	psect	text24
 10717  002EE0                     __ptext24:
 10718                           	callstack 0
 10719  002EE0                     ___lodiv:
 10720                           	callstack 23
 10721  002EE0  EE20  F011         	lfsr	2,___lodiv@quotient
 10722  002EE4  0E07               	movlw	7
 10723  002EE6                     i2u343_41:
 10724  002EE6  6ADE               	clrf	postinc2,c
 10725  002EE8  06E8               	decf	wreg,f,c
 10726  002EEA  E2FD               	bc	i2u343_41
 10727  002EEC  5009               	movf	___lodiv@divisor^0,w,c
 10728  002EEE  100A               	iorwf	(___lodiv@divisor+1)^0,w,c
 10729  002EF0  100B               	iorwf	(___lodiv@divisor+2)^0,w,c
 10730  002EF2  100C               	iorwf	(___lodiv@divisor+3)^0,w,c
 10731  002EF4  100D               	iorwf	(___lodiv@divisor+4)^0,w,c
 10732  002EF6  100E               	iorwf	(___lodiv@divisor+5)^0,w,c
 10733  002EF8  100F               	iorwf	(___lodiv@divisor+6)^0,w,c
 10734  002EFA  1010               	iorwf	(___lodiv@divisor+7)^0,w,c
 10735  002EFC  B4D8               	btfsc	status,2,c
 10736  002EFE  EF83  F017         	goto	i2u344_41
 10737  002F02  EF85  F017         	goto	i2u344_40
 10738  002F06                     i2u344_41:
 10739  002F06  EFD7  F017         	goto	i2l797
 10740  002F0A                     i2u344_40:
 10741  002F0A  0E01               	movlw	1
 10742  002F0C  6E19               	movwf	___lodiv@counter^0,c
 10743  002F0E  EF93  F017         	goto	i2l3036
 10744  002F12                     i2l3034:
 10745  002F12  90D8               	bcf	status,0,c
 10746  002F14  3609               	rlcf	___lodiv@divisor^0,f,c
 10747  002F16  360A               	rlcf	(___lodiv@divisor+1)^0,f,c
 10748  002F18  360B               	rlcf	(___lodiv@divisor+2)^0,f,c
 10749  002F1A  360C               	rlcf	(___lodiv@divisor+3)^0,f,c
 10750  002F1C  360D               	rlcf	(___lodiv@divisor+4)^0,f,c
 10751  002F1E  360E               	rlcf	(___lodiv@divisor+5)^0,f,c
 10752  002F20  360F               	rlcf	(___lodiv@divisor+6)^0,f,c
 10753  002F22  3610               	rlcf	(___lodiv@divisor+7)^0,f,c
 10754  002F24  2A19               	incf	___lodiv@counter^0,f,c
 10755  002F26                     i2l3036:
 10756  002F26  AE10               	btfss	(___lodiv@divisor+7)^0,7,c
 10757  002F28  EF98  F017         	goto	i2u345_41
 10758  002F2C  EF9A  F017         	goto	i2u345_40
 10759  002F30                     i2u345_41:
 10760  002F30  EF89  F017         	goto	i2l3034
 10761  002F34                     i2u345_40:
 10762  002F34                     i2l3038:
 10763  002F34  90D8               	bcf	status,0,c
 10764  002F36  3611               	rlcf	___lodiv@quotient^0,f,c
 10765  002F38  3612               	rlcf	(___lodiv@quotient+1)^0,f,c
 10766  002F3A  3613               	rlcf	(___lodiv@quotient+2)^0,f,c
 10767  002F3C  3614               	rlcf	(___lodiv@quotient+3)^0,f,c
 10768  002F3E  3615               	rlcf	(___lodiv@quotient+4)^0,f,c
 10769  002F40  3616               	rlcf	(___lodiv@quotient+5)^0,f,c
 10770  002F42  3617               	rlcf	(___lodiv@quotient+6)^0,f,c
 10771  002F44  3618               	rlcf	(___lodiv@quotient+7)^0,f,c
 10772  002F46  5009               	movf	___lodiv@divisor^0,w,c
 10773  002F48  5C01               	subwf	___lodiv@dividend^0,w,c
 10774  002F4A  500A               	movf	(___lodiv@divisor+1)^0,w,c
 10775  002F4C  5802               	subwfb	(___lodiv@dividend+1)^0,w,c
 10776  002F4E  500B               	movf	(___lodiv@divisor+2)^0,w,c
 10777  002F50  5803               	subwfb	(___lodiv@dividend+2)^0,w,c
 10778  002F52  500C               	movf	(___lodiv@divisor+3)^0,w,c
 10779  002F54  5804               	subwfb	(___lodiv@dividend+3)^0,w,c
 10780  002F56  500D               	movf	(___lodiv@divisor+4)^0,w,c
 10781  002F58  5805               	subwfb	(___lodiv@dividend+4)^0,w,c
 10782  002F5A  500E               	movf	(___lodiv@divisor+5)^0,w,c
 10783  002F5C  5806               	subwfb	(___lodiv@dividend+5)^0,w,c
 10784  002F5E  500F               	movf	(___lodiv@divisor+6)^0,w,c
 10785  002F60  5807               	subwfb	(___lodiv@dividend+6)^0,w,c
 10786  002F62  5010               	movf	(___lodiv@divisor+7)^0,w,c
 10787  002F64  5808               	subwfb	(___lodiv@dividend+7)^0,w,c
 10788  002F66  A0D8               	btfss	status,0,c
 10789  002F68  EFB8  F017         	goto	i2u346_41
 10790  002F6C  EFBA  F017         	goto	i2u346_40
 10791  002F70                     i2u346_41:
 10792  002F70  EFCB  F017         	goto	i2l3046
 10793  002F74                     i2u346_40:
 10794  002F74  5009               	movf	___lodiv@divisor^0,w,c
 10795  002F76  5E01               	subwf	___lodiv@dividend^0,f,c
 10796  002F78  500A               	movf	(___lodiv@divisor+1)^0,w,c
 10797  002F7A  5A02               	subwfb	(___lodiv@dividend+1)^0,f,c
 10798  002F7C  500B               	movf	(___lodiv@divisor+2)^0,w,c
 10799  002F7E  5A03               	subwfb	(___lodiv@dividend+2)^0,f,c
 10800  002F80  500C               	movf	(___lodiv@divisor+3)^0,w,c
 10801  002F82  5A04               	subwfb	(___lodiv@dividend+3)^0,f,c
 10802  002F84  500D               	movf	(___lodiv@divisor+4)^0,w,c
 10803  002F86  5A05               	subwfb	(___lodiv@dividend+4)^0,f,c
 10804  002F88  500E               	movf	(___lodiv@divisor+5)^0,w,c
 10805  002F8A  5A06               	subwfb	(___lodiv@dividend+5)^0,f,c
 10806  002F8C  500F               	movf	(___lodiv@divisor+6)^0,w,c
 10807  002F8E  5A07               	subwfb	(___lodiv@dividend+6)^0,f,c
 10808  002F90  5010               	movf	(___lodiv@divisor+7)^0,w,c
 10809  002F92  5A08               	subwfb	(___lodiv@dividend+7)^0,f,c
 10810  002F94  8011               	bsf	___lodiv@quotient^0,0,c
 10811  002F96                     i2l3046:
 10812  002F96  90D8               	bcf	status,0,c
 10813  002F98  3210               	rrcf	(___lodiv@divisor+7)^0,f,c
 10814  002F9A  320F               	rrcf	(___lodiv@divisor+6)^0,f,c
 10815  002F9C  320E               	rrcf	(___lodiv@divisor+5)^0,f,c
 10816  002F9E  320D               	rrcf	(___lodiv@divisor+4)^0,f,c
 10817  002FA0  320C               	rrcf	(___lodiv@divisor+3)^0,f,c
 10818  002FA2  320B               	rrcf	(___lodiv@divisor+2)^0,f,c
 10819  002FA4  320A               	rrcf	(___lodiv@divisor+1)^0,f,c
 10820  002FA6  3209               	rrcf	___lodiv@divisor^0,f,c
 10821  002FA8  2E19               	decfsz	___lodiv@counter^0,f,c
 10822  002FAA  EF9A  F017         	goto	i2l3038
 10823  002FAE                     i2l797:
 10824  002FAE  C011  F001         	movff	___lodiv@quotient,?___lodiv
 10825  002FB2  C012  F002         	movff	___lodiv@quotient+1,?___lodiv+1
 10826  002FB6  C013  F003         	movff	___lodiv@quotient+2,?___lodiv+2
 10827  002FBA  C014  F004         	movff	___lodiv@quotient+3,?___lodiv+3
 10828  002FBE  C015  F005         	movff	___lodiv@quotient+4,?___lodiv+4
 10829  002FC2  C016  F006         	movff	___lodiv@quotient+5,?___lodiv+5
 10830  002FC6  C017  F007         	movff	___lodiv@quotient+6,?___lodiv+6
 10831  002FCA  C018  F008         	movff	___lodiv@quotient+7,?___lodiv+7
 10832  002FCE  0012               	return		;funcret
 10833  002FD0                     __end_of___lodiv:
 10834                           	callstack 0
 10835                           
 10836 ;; *************** function _atoi *****************
 10837 ;; Defined at:
 10838 ;;		line 4 in file "/opt/microchip/xc8/v2.32/pic/sources/c99/common/atoi.c"
 10839 ;; Parameters:    Size  Location     Type
 10840 ;;  s               2    7[COMRAM] PTR const unsigned char 
 10841 ;;		 -> STR_45(5), STR_43(5), STR_41(5), STR_39(5), 
 10842 ;;		 -> STR_37(5), STR_35(5), STR_32(5), STR_30(5), 
 10843 ;;		 -> STR_28(5), STR_26(5), STR_24(5), 
 10844 ;; Auto vars:     Size  Location     Type
 10845 ;;  n               2   20[COMRAM] int 
 10846 ;;  neg             2   13[COMRAM] int 
 10847 ;; Return value:  Size  Location     Type
 10848 ;;                  2    7[COMRAM] int 
 10849 ;; Registers used:
 10850 ;;		wreg, status,2, status,0, tblptrl, tblptrh, tblptru, prodl, prodh, cstack
 10851 ;; Tracked objects:
 10852 ;;		On entry : 0/0
 10853 ;;		On exit  : 0/0
 10854 ;;		Unchanged: 0/0
 10855 ;; Data sizes:     COMRAM   BANK0   BANK1   BANK2   BANK3   BANK4   BANK5
 10856 ;;      Params:         2       0       0       0       0       0       0
 10857 ;;      Locals:         9       0       0       0       0       0       0
 10858 ;;      Temps:          4       0       0       0       0       0       0
 10859 ;;      Totals:        15       0       0       0       0       0       0
 10860 ;;Total ram usage:       15 bytes
 10861 ;; Hardware stack levels used: 1
 10862 ;; Hardware stack levels required when called: 1
 10863 ;; This function calls:
 10864 ;;		___wmul
 10865 ;;		_isdigit
 10866 ;;		_isspace
 10867 ;; This function is called by:
 10868 ;;		_vfpfcnvrt
 10869 ;; This function uses a non-reentrant model
 10870 ;;
 10871                           
 10872                           	psect	text25
 10873  002C48                     __ptext25:
 10874                           	callstack 0
 10875  002C48                     _atoi:
 10876                           	callstack 23
 10877  002C48  0E00               	movlw	0
 10878  002C4A  6E16               	movwf	(atoi@n+1)^0,c
 10879  002C4C  0E00               	movlw	0
 10880  002C4E  6E15               	movwf	atoi@n^0,c
 10881  002C50  0E00               	movlw	0
 10882  002C52  6E0F               	movwf	(atoi@neg+1)^0,c
 10883  002C54  0E00               	movlw	0
 10884  002C56  6E0E               	movwf	atoi@neg^0,c
 10885  002C58  EF30  F016         	goto	i2l3228
 10886  002C5C                     i2l3226:
 10887  002C5C  4A08               	infsnz	atoi@s^0,f,c
 10888  002C5E  2A09               	incf	(atoi@s+1)^0,f,c
 10889  002C60                     i2l3228:
 10890  002C60  0E01               	movlw	1
 10891  002C62  6E14               	movwf	_atoi$998^0,c
 10892  002C64  C008  FFF6         	movff	atoi@s,tblptrl
 10893  002C68  C009  FFF7         	movff	atoi@s+1,tblptrh
 10894  002C6C                     	if	0	;tblptru may be non-zero
 10895  002C6C                     	endif
 10896  002C6C                     	if	0	;tblptru may be non-zero
 10897  002C6C                     	endif
 10898  002C6C  0008               	tblrd		*
 10899  002C6E  50F5               	movf	tablat,w,c
 10900  002C70  0A20               	xorlw	32
 10901  002C72  B4D8               	btfsc	status,2,c
 10902  002C74  EF3E  F016         	goto	i2u389_41
 10903  002C78  EF40  F016         	goto	i2u389_40
 10904  002C7C                     i2u389_41:
 10905  002C7C  EF5D  F016         	goto	i2l3236
 10906  002C80                     i2u389_40:
 10907  002C80  0EF7               	movlw	247
 10908  002C82  6E0A               	movwf	??_atoi^0,c
 10909  002C84  0EFF               	movlw	255
 10910  002C86  6E0B               	movwf	(??_atoi+1)^0,c
 10911  002C88  C008  FFF6         	movff	atoi@s,tblptrl
 10912  002C8C  C009  FFF7         	movff	atoi@s+1,tblptrh
 10913  002C90                     	if	0	;tblptru may be non-zero
 10914  002C90                     	endif
 10915  002C90                     	if	0	;tblptru may be non-zero
 10916  002C90                     	endif
 10917  002C90  0008               	tblrd		*
 10918  002C92  50F5               	movf	tablat,w,c
 10919  002C94  6E0C               	movwf	(??_atoi+2)^0,c
 10920  002C96  6A0D               	clrf	(??_atoi+3)^0,c
 10921  002C98  500A               	movf	??_atoi^0,w,c
 10922  002C9A  260C               	addwf	(??_atoi+2)^0,f,c
 10923  002C9C  500B               	movf	(??_atoi+1)^0,w,c
 10924  002C9E  220D               	addwfc	(??_atoi+3)^0,f,c
 10925  002CA0  500D               	movf	(??_atoi+3)^0,w,c
 10926  002CA2  E109               	bnz	i2u390_40
 10927  002CA4  0E05               	movlw	5
 10928  002CA6  5C0C               	subwf	(??_atoi+2)^0,w,c
 10929  002CA8  A0D8               	btfss	status,0,c
 10930  002CAA  EF59  F016         	goto	i2u390_41
 10931  002CAE  EF5B  F016         	goto	i2u390_40
 10932  002CB2                     i2u390_41:
 10933  002CB2  EF5D  F016         	goto	i2l3236
 10934  002CB6                     i2u390_40:
 10935  002CB6  0E00               	movlw	0
 10936  002CB8  6E14               	movwf	_atoi$998^0,c
 10937  002CBA                     i2l3236:
 10938  002CBA  C014  F010         	movff	_atoi$998,_atoi$997
 10939  002CBE  6A11               	clrf	(_atoi$997+1)^0,c
 10940  002CC0  5010               	movf	_atoi$997^0,w,c
 10941  002CC2  1011               	iorwf	(_atoi$997+1)^0,w,c
 10942  002CC4  A4D8               	btfss	status,2,c
 10943  002CC6  EF67  F016         	goto	i2u391_41
 10944  002CCA  EF69  F016         	goto	i2u391_40
 10945  002CCE                     i2u391_41:
 10946  002CCE  EF2E  F016         	goto	i2l3226
 10947  002CD2                     i2u391_40:
 10948  002CD2  EF73  F016         	goto	i2l3246
 10949  002CD6                     i2l3242:
 10950  002CD6  0E00               	movlw	0
 10951  002CD8  6E0F               	movwf	(atoi@neg+1)^0,c
 10952  002CDA  0E01               	movlw	1
 10953  002CDC  6E0E               	movwf	atoi@neg^0,c
 10954  002CDE                     i2l3244:
 10955  002CDE  4A08               	infsnz	atoi@s^0,f,c
 10956  002CE0  2A09               	incf	(atoi@s+1)^0,f,c
 10957  002CE2  EFA8  F016         	goto	i2l3252
 10958  002CE6                     i2l3246:
 10959  002CE6  C008  FFF6         	movff	atoi@s,tblptrl
 10960  002CEA  C009  FFF7         	movff	atoi@s+1,tblptrh
 10961  002CEE                     	if	0	;tblptru may be non-zero
 10962  002CEE                     	endif
 10963  002CEE                     	if	0	;tblptru may be non-zero
 10964  002CEE                     	endif
 10965  002CEE  0008               	tblrd		*
 10966  002CF0  50F5               	movf	tablat,w,c
 10967  002CF2  6E0A               	movwf	??_atoi^0,c
 10968  002CF4  6A0B               	clrf	(??_atoi+1)^0,c
 10969                           
 10970                           ; Switch on 2 bytes has been partitioned into a top level switch of size 1, and 1 sub-sw
      +                          itches
 10971                           ; Switch size 1, requested type "simple"
 10972                           ; Number of cases is 1, Range of values is 0 to 0
 10973                           ; switch strategies available:
 10974                           ; Name         Instructions Cycles
 10975                           ; simple_byte            4     3 (average)
 10976                           ;	Chosen strategy is simple_byte
 10977  002CF6  500B               	movf	(??_atoi+1)^0,w,c
 10978  002CF8  0A00               	xorlw	0	; case 0
 10979  002CFA  B4D8               	btfsc	status,2,c
 10980  002CFC  EF82  F016         	goto	i2l4722
 10981  002D00  EFA8  F016         	goto	i2l3252
 10982  002D04                     i2l4722:
 10983                           
 10984                           ; Switch size 1, requested type "simple"
 10985                           ; Number of cases is 2, Range of values is 43 to 45
 10986                           ; switch strategies available:
 10987                           ; Name         Instructions Cycles
 10988                           ; simple_byte            7     4 (average)
 10989                           ;	Chosen strategy is simple_byte
 10990  002D04  500A               	movf	??_atoi^0,w,c
 10991  002D06  0A2B               	xorlw	43	; case 43
 10992  002D08  B4D8               	btfsc	status,2,c
 10993  002D0A  EF6F  F016         	goto	i2l3244
 10994  002D0E  0A06               	xorlw	6	; case 45
 10995  002D10  B4D8               	btfsc	status,2,c
 10996  002D12  EF6B  F016         	goto	i2l3242
 10997  002D16  EFA8  F016         	goto	i2l3252
 10998  002D1A                     i2l3248:
 10999  002D1A  C015  F001         	movff	atoi@n,___wmul@multiplier
 11000  002D1E  C016  F002         	movff	atoi@n+1,___wmul@multiplier+1
 11001  002D22  0E00               	movlw	0
 11002  002D24  6E04               	movwf	(___wmul@multiplicand+1)^0,c
 11003  002D26  0E0A               	movlw	10
 11004  002D28  6E03               	movwf	___wmul@multiplicand^0,c
 11005  002D2A  EC1A  F01C         	call	___wmul	;wreg free
 11006  002D2E  C008  FFF6         	movff	atoi@s,tblptrl
 11007  002D32  C009  FFF7         	movff	atoi@s+1,tblptrh
 11008  002D36                     	if	0	;tblptru may be non-zero
 11009  002D36                     	endif
 11010  002D36                     	if	0	;tblptru may be non-zero
 11011  002D36                     	endif
 11012  002D36  0008               	tblrd		*
 11013  002D38  50F5               	movf	tablat,w,c
 11014  002D3A  5E01               	subwf	?___wmul^0,f,c
 11015  002D3C  0E00               	movlw	0
 11016  002D3E  5A02               	subwfb	(?___wmul+1)^0,f,c
 11017  002D40  0E30               	movlw	48
 11018  002D42  2401               	addwf	?___wmul^0,w,c
 11019  002D44  6E15               	movwf	atoi@n^0,c
 11020  002D46  0E00               	movlw	0
 11021  002D48  2002               	addwfc	(?___wmul+1)^0,w,c
 11022  002D4A  6E16               	movwf	(atoi@n+1)^0,c
 11023  002D4C  EF6F  F016         	goto	i2l3244
 11024  002D50                     i2l3252:
 11025  002D50  0ED0               	movlw	208
 11026  002D52  6E0A               	movwf	??_atoi^0,c
 11027  002D54  0EFF               	movlw	255
 11028  002D56  6E0B               	movwf	(??_atoi+1)^0,c
 11029  002D58  C008  FFF6         	movff	atoi@s,tblptrl
 11030  002D5C  C009  FFF7         	movff	atoi@s+1,tblptrh
 11031  002D60                     	if	0	;tblptru may be non-zero
 11032  002D60                     	endif
 11033  002D60                     	if	0	;tblptru may be non-zero
 11034  002D60                     	endif
 11035  002D60  0008               	tblrd		*
 11036  002D62  50F5               	movf	tablat,w,c
 11037  002D64  6E0C               	movwf	(??_atoi+2)^0,c
 11038  002D66  6A0D               	clrf	(??_atoi+3)^0,c
 11039  002D68  500A               	movf	??_atoi^0,w,c
 11040  002D6A  260C               	addwf	(??_atoi+2)^0,f,c
 11041  002D6C  500B               	movf	(??_atoi+1)^0,w,c
 11042  002D6E  220D               	addwfc	(??_atoi+3)^0,f,c
 11043  002D70  500D               	movf	(??_atoi+3)^0,w,c
 11044  002D72  E10A               	bnz	i2u392_40
 11045  002D74  0E0A               	movlw	10
 11046  002D76  5C0C               	subwf	(??_atoi+2)^0,w,c
 11047  002D78  A0D8               	btfss	status,0,c
 11048  002D7A  EFC1  F016         	goto	i2u392_41
 11049  002D7E  EFC4  F016         	goto	i2u392_40
 11050  002D82                     i2u392_41:
 11051  002D82  0E01               	movlw	1
 11052  002D84  EFC5  F016         	goto	i2u393_40
 11053  002D88                     i2u392_40:
 11054  002D88  0E00               	movlw	0
 11055  002D8A                     i2u393_40:
 11056  002D8A  6E12               	movwf	_atoi$999^0,c
 11057  002D8C  6A13               	clrf	(_atoi$999+1)^0,c
 11058  002D8E  5012               	movf	_atoi$999^0,w,c
 11059  002D90  1013               	iorwf	(_atoi$999+1)^0,w,c
 11060  002D92  A4D8               	btfss	status,2,c
 11061  002D94  EFCE  F016         	goto	i2u394_41
 11062  002D98  EFD0  F016         	goto	i2u394_40
 11063  002D9C                     i2u394_41:
 11064  002D9C  EF8D  F016         	goto	i2l3248
 11065  002DA0                     i2u394_40:
 11066  002DA0  500E               	movf	atoi@neg^0,w,c
 11067  002DA2  100F               	iorwf	(atoi@neg+1)^0,w,c
 11068  002DA4  A4D8               	btfss	status,2,c
 11069  002DA6  EFD7  F016         	goto	i2u395_41
 11070  002DAA  EFD9  F016         	goto	i2u395_40
 11071  002DAE                     i2u395_41:
 11072  002DAE  EFE7  F016         	goto	i2l1187
 11073  002DB2                     i2u395_40:
 11074  002DB2  C015  F00A         	movff	atoi@n,??_atoi
 11075  002DB6  C016  F00B         	movff	atoi@n+1,??_atoi+1
 11076  002DBA  1E0A               	comf	??_atoi^0,f,c
 11077  002DBC  1E0B               	comf	(??_atoi+1)^0,f,c
 11078  002DBE  4A0A               	infsnz	??_atoi^0,f,c
 11079  002DC0  2A0B               	incf	(??_atoi+1)^0,f,c
 11080  002DC2  C00A  F008         	movff	??_atoi,?_atoi
 11081  002DC6  C00B  F009         	movff	??_atoi+1,?_atoi+1
 11082  002DCA  EFEB  F016         	goto	i2l1190
 11083  002DCE                     i2l1187:
 11084  002DCE  C015  F008         	movff	atoi@n,?_atoi
 11085  002DD2  C016  F009         	movff	atoi@n+1,?_atoi+1
 11086  002DD6                     i2l1190:
 11087  002DD6  0012               	return		;funcret
 11088  002DD8                     __end_of_atoi:
 11089                           	callstack 0
 11090                           
 11091 ;; *************** function _isspace *****************
 11092 ;; Defined at:
 11093 ;;		line 5 in file "/opt/microchip/xc8/v2.32/pic/sources/c99/common/isspace.c"
 11094 ;; Parameters:    Size  Location     Type
 11095 ;;  c               2    0[COMRAM] int 
 11096 ;; Auto vars:     Size  Location     Type
 11097 ;;		None
 11098 ;; Return value:  Size  Location     Type
 11099 ;;                  2    0[COMRAM] int 
 11100 ;; Registers used:
 11101 ;;		wreg, status,2, status,0
 11102 ;; Tracked objects:
 11103 ;;		On entry : 0/0
 11104 ;;		On exit  : 0/0
 11105 ;;		Unchanged: 0/0
 11106 ;; Data sizes:     COMRAM   BANK0   BANK1   BANK2   BANK3   BANK4   BANK5
 11107 ;;      Params:         2       0       0       0       0       0       0
 11108 ;;      Locals:         1       0       0       0       0       0       0
 11109 ;;      Temps:          4       0       0       0       0       0       0
 11110 ;;      Totals:         7       0       0       0       0       0       0
 11111 ;;Total ram usage:        7 bytes
 11112 ;; Hardware stack levels used: 1
 11113 ;; This function calls:
 11114 ;;		Nothing
 11115 ;; This function is called by:
 11116 ;;		_atoi
 11117 ;; This function uses a non-reentrant model
 11118 ;;
 11119                           
 11120                           	psect	text26
 11121  003684                     __ptext26:
 11122                           	callstack 0
 11123  003684                     _isspace:
 11124                           	callstack 23
 11125  003684  0E01               	movlw	1
 11126  003686  6E07               	movwf	_isspace$1024^0,c
 11127  003688  0E20               	movlw	32
 11128  00368A  1801               	xorwf	isspace@c^0,w,c
 11129  00368C  1002               	iorwf	(isspace@c+1)^0,w,c
 11130  00368E  B4D8               	btfsc	status,2,c
 11131  003690  EF4C  F01B         	goto	i2u363_41
 11132  003694  EF4E  F01B         	goto	i2u363_40
 11133  003698                     i2u363_41:
 11134  003698  EF67  F01B         	goto	i2l3118
 11135  00369C                     i2u363_40:
 11136  00369C  0EF7               	movlw	247
 11137  00369E  6E03               	movwf	??_isspace^0,c
 11138  0036A0  0EFF               	movlw	255
 11139  0036A2  6E04               	movwf	(??_isspace+1)^0,c
 11140  0036A4  C001  F005         	movff	isspace@c,??_isspace+2
 11141  0036A8  C002  F006         	movff	isspace@c+1,??_isspace+3
 11142  0036AC  5003               	movf	??_isspace^0,w,c
 11143  0036AE  2605               	addwf	(??_isspace+2)^0,f,c
 11144  0036B0  5004               	movf	(??_isspace+1)^0,w,c
 11145  0036B2  2206               	addwfc	(??_isspace+3)^0,f,c
 11146  0036B4  5006               	movf	(??_isspace+3)^0,w,c
 11147  0036B6  E109               	bnz	i2u364_40
 11148  0036B8  0E05               	movlw	5
 11149  0036BA  5C05               	subwf	(??_isspace+2)^0,w,c
 11150  0036BC  A0D8               	btfss	status,0,c
 11151  0036BE  EF63  F01B         	goto	i2u364_41
 11152  0036C2  EF65  F01B         	goto	i2u364_40
 11153  0036C6                     i2u364_41:
 11154  0036C6  EF67  F01B         	goto	i2l3118
 11155  0036CA                     i2u364_40:
 11156  0036CA  0E00               	movlw	0
 11157  0036CC  6E07               	movwf	_isspace$1024^0,c
 11158  0036CE                     i2l3118:
 11159  0036CE  C007  F001         	movff	_isspace$1024,?_isspace
 11160  0036D2  6A02               	clrf	(?_isspace+1)^0,c
 11161  0036D4  0012               	return		;funcret
 11162  0036D6                     __end_of_isspace:
 11163                           	callstack 0
 11164                           
 11165 ;; *************** function _isdigit *****************
 11166 ;; Defined at:
 11167 ;;		line 5 in file "/opt/microchip/xc8/v2.32/pic/sources/c99/common/isdigit.c"
 11168 ;; Parameters:    Size  Location     Type
 11169 ;;  c               2    0[COMRAM] int 
 11170 ;; Auto vars:     Size  Location     Type
 11171 ;;		None
 11172 ;; Return value:  Size  Location     Type
 11173 ;;                  2    0[COMRAM] int 
 11174 ;; Registers used:
 11175 ;;		wreg, status,2, status,0
 11176 ;; Tracked objects:
 11177 ;;		On entry : 0/0
 11178 ;;		On exit  : 0/0
 11179 ;;		Unchanged: 0/0
 11180 ;; Data sizes:     COMRAM   BANK0   BANK1   BANK2   BANK3   BANK4   BANK5
 11181 ;;      Params:         2       0       0       0       0       0       0
 11182 ;;      Locals:         0       0       0       0       0       0       0
 11183 ;;      Temps:          4       0       0       0       0       0       0
 11184 ;;      Totals:         6       0       0       0       0       0       0
 11185 ;;Total ram usage:        6 bytes
 11186 ;; Hardware stack levels used: 1
 11187 ;; This function calls:
 11188 ;;		Nothing
 11189 ;; This function is called by:
 11190 ;;		_vfpfcnvrt
 11191 ;;		_atoi
 11192 ;; This function uses a non-reentrant model
 11193 ;;
 11194                           
 11195                           	psect	text27
 11196  0037C6                     __ptext27:
 11197                           	callstack 0
 11198  0037C6                     _isdigit:
 11199                           	callstack 24
 11200  0037C6  0ED0               	movlw	208
 11201  0037C8  6E03               	movwf	??_isdigit^0,c
 11202  0037CA  0EFF               	movlw	255
 11203  0037CC  6E04               	movwf	(??_isdigit+1)^0,c
 11204  0037CE  C001  F005         	movff	isdigit@c,??_isdigit+2
 11205  0037D2  C002  F006         	movff	isdigit@c+1,??_isdigit+3
 11206  0037D6  5003               	movf	??_isdigit^0,w,c
 11207  0037D8  2605               	addwf	(??_isdigit+2)^0,f,c
 11208  0037DA  5004               	movf	(??_isdigit+1)^0,w,c
 11209  0037DC  2206               	addwfc	(??_isdigit+3)^0,f,c
 11210  0037DE  5006               	movf	(??_isdigit+3)^0,w,c
 11211  0037E0  E10A               	bnz	i2u361_40
 11212  0037E2  0E0A               	movlw	10
 11213  0037E4  5C05               	subwf	(??_isdigit+2)^0,w,c
 11214  0037E6  A0D8               	btfss	status,0,c
 11215  0037E8  EFF8  F01B         	goto	i2u361_41
 11216  0037EC  EFFB  F01B         	goto	i2u361_40
 11217  0037F0                     i2u361_41:
 11218  0037F0  0E01               	movlw	1
 11219  0037F2  EFFC  F01B         	goto	i2u362_40
 11220  0037F6                     i2u361_40:
 11221  0037F6  0E00               	movlw	0
 11222  0037F8                     i2u362_40:
 11223  0037F8  6E01               	movwf	?_isdigit^0,c
 11224  0037FA  6A02               	clrf	(?_isdigit+1)^0,c
 11225  0037FC  0012               	return		;funcret
 11226  0037FE                     __end_of_isdigit:
 11227                           	callstack 0
 11228                           
 11229 ;; *************** function ___wmul *****************
 11230 ;; Defined at:
 11231 ;;		line 15 in file "/opt/microchip/xc8/v2.32/pic/sources/c99/common/Umul16.c"
 11232 ;; Parameters:    Size  Location     Type
 11233 ;;  multiplier      2    0[COMRAM] unsigned int 
 11234 ;;  multiplicand    2    2[COMRAM] unsigned int 
 11235 ;; Auto vars:     Size  Location     Type
 11236 ;;  product         2    4[COMRAM] unsigned int 
 11237 ;; Return value:  Size  Location     Type
 11238 ;;                  2    0[COMRAM] unsigned int 
 11239 ;; Registers used:
 11240 ;;		wreg, status,2, status,0, prodl, prodh
 11241 ;; Tracked objects:
 11242 ;;		On entry : 0/0
 11243 ;;		On exit  : 0/0
 11244 ;;		Unchanged: 0/0
 11245 ;; Data sizes:     COMRAM   BANK0   BANK1   BANK2   BANK3   BANK4   BANK5
 11246 ;;      Params:         4       0       0       0       0       0       0
 11247 ;;      Locals:         2       0       0       0       0       0       0
 11248 ;;      Temps:          0       0       0       0       0       0       0
 11249 ;;      Totals:         6       0       0       0       0       0       0
 11250 ;;Total ram usage:        6 bytes
 11251 ;; Hardware stack levels used: 1
 11252 ;; This function calls:
 11253 ;;		Nothing
 11254 ;; This function is called by:
 11255 ;;		_atoi
 11256 ;; This function uses a non-reentrant model
 11257 ;;
 11258                           
 11259                           	psect	text28
 11260  003834                     __ptext28:
 11261                           	callstack 0
 11262  003834                     ___wmul:
 11263                           	callstack 23
 11264  003834  5001               	movf	___wmul@multiplier^0,w,c
 11265  003836  0203               	mulwf	___wmul@multiplicand^0,c
 11266  003838  CFF3 F005          	movff	prodl,___wmul@product
 11267  00383C  CFF4 F006          	movff	prodh,___wmul@product+1
 11268  003840  5001               	movf	___wmul@multiplier^0,w,c
 11269  003842  0204               	mulwf	(___wmul@multiplicand+1)^0,c
 11270  003844  50F3               	movf	243,w,c
 11271  003846  2606               	addwf	(___wmul@product+1)^0,f,c
 11272  003848  5002               	movf	(___wmul@multiplier+1)^0,w,c
 11273  00384A  0203               	mulwf	___wmul@multiplicand^0,c
 11274  00384C  50F3               	movf	243,w,c
 11275  00384E  2606               	addwf	(___wmul@product+1)^0,f,c
 11276  003850  C005  F001         	movff	___wmul@product,?___wmul
 11277  003854  C006  F002         	movff	___wmul@product+1,?___wmul+1
 11278  003858  0012               	return		;funcret
 11279  00385A                     __end_of___wmul:
 11280                           	callstack 0
 11281                           
 11282                           	psect	rparam
 11283  0000                     
 11284                           	psect	temp
 11285  00007F                     btemp:
 11286                           	callstack 0
 11287  00007F                     	ds	1
 11288  0000                     int$flags	set	btemp
 11289  0000                     wtemp8	set	btemp+1
 11290  0000                     ttemp5	set	btemp+1
 11291  0000                     ttemp6	set	btemp+4
 11292  0000                     ttemp7	set	btemp+8
 11293                           
 11294                           	psect	idloc
 11295                           
 11296                           ;Config register IDLOC0 @ 0x200000
 11297                           ;	unspecified, using default values
 11298  200000                     	org	2097152
 11299  200000  FF                 	db	255
 11300                           
 11301                           ;Config register IDLOC1 @ 0x200001
 11302                           ;	unspecified, using default values
 11303  200001                     	org	2097153
 11304  200001  FF                 	db	255
 11305                           
 11306                           ;Config register IDLOC2 @ 0x200002
 11307                           ;	unspecified, using default values
 11308  200002                     	org	2097154
 11309  200002  FF                 	db	255
 11310                           
 11311                           ;Config register IDLOC3 @ 0x200003
 11312                           ;	unspecified, using default values
 11313  200003                     	org	2097155
 11314  200003  FF                 	db	255
 11315                           
 11316                           ;Config register IDLOC4 @ 0x200004
 11317                           ;	unspecified, using default values
 11318  200004                     	org	2097156
 11319  200004  FF                 	db	255
 11320                           
 11321                           ;Config register IDLOC5 @ 0x200005
 11322                           ;	unspecified, using default values
 11323  200005                     	org	2097157
 11324  200005  FF                 	db	255
 11325                           
 11326                           ;Config register IDLOC6 @ 0x200006
 11327                           ;	unspecified, using default values
 11328  200006                     	org	2097158
 11329  200006  FF                 	db	255
 11330                           
 11331                           ;Config register IDLOC7 @ 0x200007
 11332                           ;	unspecified, using default values
 11333  200007                     	org	2097159
 11334  200007  FF                 	db	255
 11335                           
 11336                           	psect	config
 11337                           
 11338                           ; Padding undefined space
 11339  300000                     	org	3145728
 11340  300000  FF                 	db	255
 11341                           
 11342                           ;Config register CONFIG1H @ 0x300001
 11343                           ;	Oscillator Selection bits
 11344                           ;	OSC = INTIO67, Internal oscillator block, port function on RA6 and RA7
 11345                           ;	Fail-Safe Clock Monitor Enable bit
 11346                           ;	FCMEN = OFF, Fail-Safe Clock Monitor disabled
 11347                           ;	Internal/External Oscillator Switchover bit
 11348                           ;	IESO = OFF, Oscillator Switchover mode disabled
 11349  300001                     	org	3145729
 11350  300001  08                 	db	8
 11351                           
 11352                           ;Config register CONFIG2L @ 0x300002
 11353                           ;	Power-up Timer Enable bit
 11354                           ;	PWRT = OFF, PWRT disabled
 11355                           ;	Brown-out Reset Enable bits
 11356                           ;	BOREN = OFF, Brown-out Reset disabled in hardware and software
 11357                           ;	Brown Out Reset Voltage bits
 11358                           ;	BORV = 3, Minimum setting
 11359  300002                     	org	3145730
 11360  300002  19                 	db	25
 11361                           
 11362                           ;Config register CONFIG2H @ 0x300003
 11363                           ;	Watchdog Timer Enable bit
 11364                           ;	WDT = OFF, WDT disabled (control is placed on the SWDTEN bit)
 11365                           ;	Watchdog Timer Postscale Select bits
 11366                           ;	WDTPS = 32768, 1:32768
 11367  300003                     	org	3145731
 11368  300003  1E                 	db	30
 11369                           
 11370                           ; Padding undefined space
 11371  300004                     	org	3145732
 11372  300004  FF                 	db	255
 11373                           
 11374                           ;Config register CONFIG3H @ 0x300005
 11375                           ;	CCP2 MUX bit
 11376                           ;	CCP2MX = PORTC, CCP2 input/output is multiplexed with RC1
 11377                           ;	PORTB A/D Enable bit
 11378                           ;	PBADEN = OFF, PORTB<4:0> pins are configured as digital I/O on Reset
 11379                           ;	Low-Power Timer1 Oscillator Enable bit
 11380                           ;	LPT1OSC = OFF, Timer1 configured for higher power operation
 11381                           ;	MCLR Pin Enable bit
 11382                           ;	MCLRE = OFF, RE3 input pin enabled; MCLR disabled
 11383  300005                     	org	3145733
 11384  300005  01                 	db	1
 11385                           
 11386                           ;Config register CONFIG4L @ 0x300006
 11387                           ;	Stack Full/Underflow Reset Enable bit
 11388                           ;	STVREN = ON, Stack full/underflow will cause Reset
 11389                           ;	Single-Supply ICSP Enable bit
 11390                           ;	LVP = ON, Single-Supply ICSP enabled
 11391                           ;	Extended Instruction Set Enable bit
 11392                           ;	XINST = OFF, Instruction set extension and Indexed Addressing mode disabled (Legacy mo
      +                          de)
 11393                           ;	Background Debugger Enable bit
 11394                           ;	DEBUG = 0x1, unprogrammed default
 11395  300006                     	org	3145734
 11396  300006  85                 	db	133
 11397                           
 11398                           ; Padding undefined space
 11399  300007                     	org	3145735
 11400  300007  FF                 	db	255
 11401                           
 11402                           ;Config register CONFIG5L @ 0x300008
 11403                           ;	Code Protection bit
 11404                           ;	CP0 = ON, Block 0 (000800-001FFFh) code-protected
 11405                           ;	Code Protection bit
 11406                           ;	CP1 = ON, Block 1 (002000-003FFFh) code-protected
 11407                           ;	Code Protection bit
 11408                           ;	CP2 = ON, Block 2 (004000-005FFFh) code-protected
 11409                           ;	Code Protection bit
 11410                           ;	CP3 = ON, Block 3 (006000-007FFFh) code-protected
 11411  300008                     	org	3145736
 11412  300008  00                 	db	0
 11413                           
 11414                           ;Config register CONFIG5H @ 0x300009
 11415                           ;	Boot Block Code Protection bit
 11416                           ;	CPB = OFF, Boot block (000000-0007FFh) not code-protected
 11417                           ;	Data EEPROM Code Protection bit
 11418                           ;	CPD = OFF, Data EEPROM not code-protected
 11419  300009                     	org	3145737
 11420  300009  C0                 	db	192
 11421                           
 11422                           ;Config register CONFIG6L @ 0x30000A
 11423                           ;	Write Protection bit
 11424                           ;	WRT0 = OFF, Block 0 (000800-001FFFh) not write-protected
 11425                           ;	Write Protection bit
 11426                           ;	WRT1 = OFF, Block 1 (002000-003FFFh) not write-protected
 11427                           ;	Write Protection bit
 11428                           ;	WRT2 = OFF, Block 2 (004000-005FFFh) not write-protected
 11429                           ;	Write Protection bit
 11430                           ;	WRT3 = OFF, Block 3 (006000-007FFFh) not write-protected
 11431  30000A                     	org	3145738
 11432  30000A  0F                 	db	15
 11433                           
 11434                           ;Config register CONFIG6H @ 0x30000B
 11435                           ;	Configuration Register Write Protection bit
 11436                           ;	WRTC = OFF, Configuration registers (300000-3000FFh) not write-protected
 11437                           ;	Boot Block Write Protection bit
 11438                           ;	WRTB = OFF, Boot block (000000-0007FFh) not write-protected
 11439                           ;	Data EEPROM Write Protection bit
 11440                           ;	WRTD = OFF, Data EEPROM not write-protected
 11441  30000B                     	org	3145739
 11442  30000B  E0                 	db	224
 11443                           
 11444                           ;Config register CONFIG7L @ 0x30000C
 11445                           ;	Table Read Protection bit
 11446                           ;	EBTR0 = OFF, Block 0 (000800-001FFFh) not protected from table reads executed in other
      +                           blocks
 11447                           ;	Table Read Protection bit
 11448                           ;	EBTR1 = OFF, Block 1 (002000-003FFFh) not protected from table reads executed in other
      +                           blocks
 11449                           ;	Table Read Protection bit
 11450                           ;	EBTR2 = OFF, Block 2 (004000-005FFFh) not protected from table reads executed in other
      +                           blocks
 11451                           ;	Table Read Protection bit
 11452                           ;	EBTR3 = OFF, Block 3 (006000-007FFFh) not protected from table reads executed in other
      +                           blocks
 11453  30000C                     	org	3145740
 11454  30000C  0F                 	db	15
 11455                           
 11456                           ;Config register CONFIG7H @ 0x30000D
 11457                           ;	Boot Block Table Read Protection bit
 11458                           ;	EBTRB = OFF, Boot block (000000-0007FFh) not protected from table reads executed in ot
      +                          her blocks
 11459  30000D                     	org	3145741
 11460  30000D  40                 	db	64
 11461                           tosu	equ	0xFFF
 11462                           tosh	equ	0xFFE
 11463                           tosl	equ	0xFFD
 11464                           stkptr	equ	0xFFC
 11465                           pclatu	equ	0xFFB
 11466                           pclath	equ	0xFFA
 11467                           pcl	equ	0xFF9
 11468                           tblptru	equ	0xFF8
 11469                           tblptrh	equ	0xFF7
 11470                           tblptrl	equ	0xFF6
 11471                           tablat	equ	0xFF5
 11472                           prodh	equ	0xFF4
 11473                           prodl	equ	0xFF3
 11474                           indf0	equ	0xFEF
 11475                           postinc0	equ	0xFEE
 11476                           postdec0	equ	0xFED
 11477                           preinc0	equ	0xFEC
 11478                           plusw0	equ	0xFEB
 11479                           fsr0h	equ	0xFEA
 11480                           fsr0l	equ	0xFE9
 11481                           wreg	equ	0xFE8
 11482                           indf1	equ	0xFE7
 11483                           postinc1	equ	0xFE6
 11484                           postdec1	equ	0xFE5
 11485                           preinc1	equ	0xFE4
 11486                           plusw1	equ	0xFE3
 11487                           fsr1h	equ	0xFE2
 11488                           fsr1l	equ	0xFE1
 11489                           bsr	equ	0xFE0
 11490                           indf2	equ	0xFDF
 11491                           postinc2	equ	0xFDE
 11492                           postdec2	equ	0xFDD
 11493                           preinc2	equ	0xFDC
 11494                           plusw2	equ	0xFDB
 11495                           fsr2h	equ	0xFDA
 11496                           fsr2l	equ	0xFD9
 11497                           status	equ	0xFD8

Data Sizes:
    Strings     592
    Constant    0
    Data        319
    BSS         77
    Persistent  32
    Stack       0

Auto Spaces:
    Space          Size  Autos    Used
    COMRAM          126    126     126
    BANK0           128     69     127
    BANK1           256      0     255
    BANK2           256      0     115
    BANK3           256      0       0
    BANK4           256      0       0
    BANK5           256      0       0

Pointer List with Targets:

    strlen@s	PTR const unsigned char  size(2) Largest target is 32
		 -> dbuf(BANK1[32]), 

    strlen@a	PTR const unsigned char  size(2) Largest target is 32
		 -> dbuf(BANK1[32]), 

    fputs@s	PTR const unsigned char  size(2) Largest target is 32
		 -> dbuf(BANK1[32]), 

    fputs@fp	PTR struct _IO_FILE size(2) Largest target is 7
		 -> sprintf@f(COMRAM[6]), 

    fputc@fp.buffer	PTR unsigned char  size(2) Largest target is 5
		 -> txt(BANK0[5]), 

    fputc@fp	PTR struct _IO_FILE size(2) Largest target is 7
		 -> sprintf@f(COMRAM[6]), 

    atoi@s	PTR const unsigned char  size(2) Largest target is 5
		 -> STR_45(CODE[5]), STR_43(CODE[5]), STR_41(CODE[5]), STR_39(CODE[5]), 
		 -> STR_37(CODE[5]), STR_35(CODE[5]), STR_32(CODE[5]), STR_30(CODE[5]), 
		 -> STR_28(CODE[5]), STR_26(CODE[5]), STR_24(CODE[5]), 

    vfprintf@ap	PTR PTR void  size(2) Largest target is 2
		 -> sprintf@ap(COMRAM[2]), 

    vfprintf@fp	PTR struct _IO_FILE size(2) Largest target is 7
		 -> sprintf@f(COMRAM[6]), 

    vfprintf@fmt	PTR const unsigned char  size(2) Largest target is 5
		 -> STR_45(CODE[5]), STR_43(CODE[5]), STR_41(CODE[5]), STR_39(CODE[5]), 
		 -> STR_37(CODE[5]), STR_35(CODE[5]), STR_32(CODE[5]), STR_30(CODE[5]), 
		 -> STR_28(CODE[5]), STR_26(CODE[5]), STR_24(CODE[5]), 

    vfprintf@cfmt	PTR unsigned char  size(2) Largest target is 5
		 -> STR_45(CODE[5]), STR_43(CODE[5]), STR_41(CODE[5]), STR_39(CODE[5]), 
		 -> STR_37(CODE[5]), STR_35(CODE[5]), STR_32(CODE[5]), STR_30(CODE[5]), 
		 -> STR_28(CODE[5]), STR_26(CODE[5]), STR_24(CODE[5]), 

    vfpfcnvrt@fp	PTR struct _IO_FILE size(2) Largest target is 7
		 -> sprintf@f(COMRAM[6]), 

    vfpfcnvrt@ap	PTR PTR void  size(2) Largest target is 2
		 -> sprintf@ap(COMRAM[2]), 

    vfpfcnvrt@fmt	PTR PTR unsigned char  size(2) Largest target is 2
		 -> vfprintf@cfmt(COMRAM[2]), 

    xtoa@fp	PTR struct _IO_FILE size(2) Largest target is 7
		 -> sprintf@f(COMRAM[6]), 

    utoa@fp	PTR struct _IO_FILE size(2) Largest target is 7
		 -> sprintf@f(COMRAM[6]), 

    pad@fp	PTR struct _IO_FILE size(2) Largest target is 7
		 -> sprintf@f(COMRAM[6]), 

    pad@buf	PTR unsigned char  size(2) Largest target is 32
		 -> dbuf(BANK1[32]), 

    sprintf@fmt	PTR const unsigned char  size(2) Largest target is 5
		 -> STR_45(CODE[5]), STR_43(CODE[5]), STR_41(CODE[5]), STR_39(CODE[5]), 
		 -> STR_37(CODE[5]), STR_35(CODE[5]), STR_32(CODE[5]), STR_30(CODE[5]), 
		 -> STR_28(CODE[5]), STR_26(CODE[5]), STR_24(CODE[5]), 

    sprintf@s	PTR unsigned char  size(2) Largest target is 5
		 -> txt(BANK0[5]), 

    sprintf@ap	PTR void [1] size(2) Largest target is 2
		 -> ?_sprintf(COMRAM[2]), 

    S861_IO_FILE$buffer	PTR unsigned char  size(2) Largest target is 5
		 -> txt(BANK0[5]), 

    f.buffer	PTR unsigned char  size(2) Largest target is 5
		 -> txt(BANK0[5]), 

    USART_EnviaMsg@msgout	PTR unsigned char  size(2) Largest target is 107
		 -> STR_48(CODE[5]), STR_47(CODE[7]), STR_46(CODE[43]), MsgAyuda(BANK2[107]), 
		 -> STR_44(CODE[15]), STR_42(CODE[16]), STR_40(CODE[7]), STR_38(CODE[7]), 
		 -> STR_36(CODE[7]), STR_34(CODE[14]), STR_33(CODE[3]), STR_31(CODE[7]), 
		 -> STR_29(CODE[7]), STR_27(CODE[10]), STR_25(CODE[14]), txt(BANK0[5]), 
		 -> STR_23(CODE[13]), MsgPersonalidad2(BANK1[29]), MsgPersonalidad1(BANK1[26]), MsgVersion(BANK1[20]), 
		 -> STR_22(CODE[44]), STR_21(CODE[20]), STR_20(CODE[24]), STR_19(CODE[29]), 
		 -> STR_18(CODE[11]), STR_17(CODE[30]), STR_16(CODE[12]), STR_15(CODE[12]), 
		 -> STR_14(CODE[43]), STR_13(CODE[43]), STR_12(CODE[29]), STR_11(CODE[12]), 
		 -> STR_10(CODE[12]), STR_9(CODE[22]), STR_8(CODE[22]), STR_7(CODE[22]), 
		 -> STR_6(CODE[20]), STR_5(CODE[15]), STR_4(CODE[24]), STR_3(CODE[30]), 
		 -> CRLF(BANK0[3]), STR_2(CODE[12]), STR_1(CODE[2]), 


Critical Paths under _main in COMRAM

    None.

Critical Paths under _isr in COMRAM

    _isr->_sprintf
    _sprintf->_vfprintf
    _vfprintf->_vfpfcnvrt
    _vfpfcnvrt->_xtoa
    _xtoa->_pad
    _toupper->_islower
    _utoa->_pad
    _pad->_fputs
    _fputs->_fputc
    _atoi->_isspace

Critical Paths under _main in BANK0

    _main->_USART_Init
    _USART_Init->___fladd
    ___fldiv->___xxtofl
    ___fladd->___fldiv

Critical Paths under _isr in BANK0

    None.

Critical Paths under _main in BANK1

    None.

Critical Paths under _isr in BANK1

    None.

Critical Paths under _main in BANK2

    None.

Critical Paths under _isr in BANK2

    None.

Critical Paths under _main in BANK3

    None.

Critical Paths under _isr in BANK3

    None.

Critical Paths under _main in BANK4

    None.

Critical Paths under _isr in BANK4

    None.

Critical Paths under _main in BANK5

    None.

Critical Paths under _isr in BANK5

    None.

Call Graph Tables:

 ---------------------------------------------------------------------------------
 (Depth) Function   	        Calls       Base Space   Used Autos Params    Refs
 ---------------------------------------------------------------------------------
 (0) _main                                                 6     6      0    9579
                                             63 BANK0      6     6      0
                     _USART_EnviaMsg
                         _USART_Init
 ---------------------------------------------------------------------------------
 (1) _USART_Init                                           8     4      4    4611
                                             55 BANK0      8     4      4
                            ___fladd
                            ___fldiv
                            ___fltol
                           ___xxtofl
 ---------------------------------------------------------------------------------
 (2) ___xxtofl                                            14    10      4     398
                                              0 BANK0     14    10      4
 ---------------------------------------------------------------------------------
 (2) ___fltol                                             10     6      4     305
                                              0 BANK0     10     6      4
 ---------------------------------------------------------------------------------
 (2) ___fldiv                                             25    17      8    1399
                                             14 BANK0     25    17      8
                           ___xxtofl (ARG)
 ---------------------------------------------------------------------------------
 (2) ___fladd                                             16     8      8    2388
                                             39 BANK0     16     8      8
                            ___fldiv (ARG)
                           ___xxtofl (ARG)
 ---------------------------------------------------------------------------------
 (1) _USART_EnviaMsg                                       3     1      2    4922
                                              0 BANK0      3     1      2
 ---------------------------------------------------------------------------------
 Estimated maximum stack depth 2
 ---------------------------------------------------------------------------------
 (Depth) Function   	        Calls       Base Space   Used Autos Params    Refs
 ---------------------------------------------------------------------------------
 (3) _isr                                                 15    15      0   15636
                                            113 COMRAM    13    13      0
                            _sprintf
                   i2_USART_EnviaMsg
 ---------------------------------------------------------------------------------
 (4) i2_USART_EnviaMsg                                     3     1      2    1446
                                              0 COMRAM     3     1      2
 ---------------------------------------------------------------------------------
 (4) _sprintf                                             16    10      6   14156
                                             97 COMRAM    16    10      6
                           _vfprintf
 ---------------------------------------------------------------------------------
 (5) _vfprintf                                             8     2      6   12265
                                             89 COMRAM     8     2      6
                          _vfpfcnvrt
 ---------------------------------------------------------------------------------
 (6) _vfpfcnvrt                                           46    40      6   11888
                                             66 COMRAM    23    17      6
                               _atoi
                              _fputc
                            _isdigit
                               _utoa
                               _xtoa
 ---------------------------------------------------------------------------------
 (7) _xtoa                                                39    28     11    4491
                                             27 COMRAM    39    28     11
                            _isalpha
                            _isupper
                                _pad
                            _toupper
 ---------------------------------------------------------------------------------
 (8) _toupper                                              8     6      2     412
                                              6 COMRAM     8     6      2
                            _islower
 ---------------------------------------------------------------------------------
 (9) _islower                                              6     4      2     161
                                              0 COMRAM     6     4      2
 ---------------------------------------------------------------------------------
 (8) _isupper                                              6     4      2     161
                                              0 COMRAM     6     4      2
 ---------------------------------------------------------------------------------
 (8) _isalpha                                              6     4      2     161
                                              0 COMRAM     6     4      2
 ---------------------------------------------------------------------------------
 (7) _utoa                                                32    22     10    3987
                                             27 COMRAM    32    22     10
                            ___lodiv
                            ___lomod
                                _pad
 ---------------------------------------------------------------------------------
 (8) _pad                                                 11     5      6    2937
                                             16 COMRAM    11     5      6
                              _fputc
                              _fputs
                             _strlen
 ---------------------------------------------------------------------------------
 (9) _strlen                                               4     2      2     166
                                              0 COMRAM     4     2      2
 ---------------------------------------------------------------------------------
 (9) _fputs                                                7     3      4    1235
                                              9 COMRAM     7     3      4
                              _fputc
 ---------------------------------------------------------------------------------
 (10) _fputc                                               9     5      4     834
                                              0 COMRAM     9     5      4
                              _putch
 ---------------------------------------------------------------------------------
 (11) _putch                                               1     1      0       0
 ---------------------------------------------------------------------------------
 (8) ___lomod                                             17     1     16     311
                                              0 COMRAM    17     1     16
 ---------------------------------------------------------------------------------
 (8) ___lodiv                                             25     9     16     314
                                              0 COMRAM    25     9     16
 ---------------------------------------------------------------------------------
 (7) _atoi                                                15    13      2    1290
                                              7 COMRAM    15    13      2
                             ___wmul
                            _isdigit
                            _isspace
 ---------------------------------------------------------------------------------
 (8) _isspace                                              7     5      2     207
                                              0 COMRAM     7     5      2
 ---------------------------------------------------------------------------------
 (7) _isdigit                                              6     4      2     237
                                              0 COMRAM     6     4      2
 ---------------------------------------------------------------------------------
 (8) ___wmul                                               6     2      4     449
                                              0 COMRAM     6     2      4
 ---------------------------------------------------------------------------------
 Estimated maximum stack depth 11
 ---------------------------------------------------------------------------------

 Call Graph Graphs:

 _main (ROOT)
   _USART_EnviaMsg
   _USART_Init
     ___fladd
       ___fldiv (ARG)
         ___xxtofl (ARG)
       ___xxtofl (ARG)
     ___fldiv
     ___fltol
     ___xxtofl

 _isr (ROOT)
   _sprintf
     _vfprintf
       _vfpfcnvrt
         _atoi
           ___wmul
           _isdigit
           _isspace
         _fputc
           _putch
         _isdigit
         _utoa
           ___lodiv
           ___lomod
           _pad
             _fputc
             _fputs
               _fputc
             _strlen
         _xtoa
           _isalpha
           _isupper
           _pad
           _toupper
             _islower
   i2_USART_EnviaMsg

 Address spaces:
Name               Size   Autos  Total    Cost      Usage
BIGRAM             5FF      0       0      17        0.0%
EEDATA             100      0       0       0        0.0%
BITBANK5           100      0       0      16        0.0%
BANK5              100      0       0      14        0.0%
BITBANK4           100      0       0      12        0.0%
BANK4              100      0       0      13        0.0%
BITBANK3           100      0       0      10        0.0%
BANK3              100      0       0      11        0.0%
BITBANK2           100      0       0       8        0.0%
BANK2              100      0      73       9       44.9%
BITBANK1           100      0       0       6        0.0%
BANK1              100      0      FF       7       99.6%
BITBANK0            80      0       0       4        0.0%
BANK0               80     45      7F       5       99.2%
BITCOMRAM           7E      0       0       0        0.0%
COMRAM              7E     7E      7E       1      100.0%
BITSFR               0      0       0     200        0.0%
SFR                  0      0       0     200        0.0%
STACK                0      0       0       2        0.0%
NULL                 0      0       0       0        0.0%
ABS                  0      0     26F      15        0.0%
DATA                 0      0     26F       3        0.0%
CODE                 0      0       0       0        0.0%


Microchip Technology PIC18 Macro Assembler V2.32 build 20210201212658 
Symbol Table                                                                                   Mon Apr  5 12:30:57 2021

             ___fldiv@aexp 00A6               ___fldiv@bexp 00A5               ___fldiv@sign 009E  
                       _J1 01FD                         _J2 01FB                         _J3 01F9  
                       _J4 01F7                         _J5 00F8                         _J6 00F6  
                       _J7 0271                         _J8 00F4                         _J9 01F5  
 __end_ofi2_USART_EnviaMsg 34FA        ___wmul@multiplicand 0003                        _J10 026F  
                      _J11 026D                        _J12 00F2                        _J13 00F0  
                      _J14 026B                        l246 0836                        l352 3448  
                      l354 3456                        l356 348A                        l297 3396  
                      l904 1C26                        l656 2EDE                        l913 1CF6  
                      l914 1CE4                        l941 25B0                        l943 2410  
                      l952 2456                        l954 24CE                        l946 23D4  
                      l955 24BC                        l887 1B0C                        l896 1DDC  
                      l888 1AFA                        l889 1AC0                        _GIE 007F97  
                      _PR2 000FCB                        _pad 323C                        _isr 0008  
                      _txt 00EB                        wreg 000FE8               ___fltol@exp1 0089  
                     l1021 2B82                       l1014 2AEA                       l1017 2C46  
                     l1028 2BDE                       l4000 04DC                       l4010 0510  
                     l4002 04E8                       l4100 07E8                       l4012 0512  
                     l4004 04F6                       l4020 0530                       l4110 083E  
                     l4102 07FA                       l4030 05DA                       l4022 0544  
                     l4014 0514                       l4006 0504                       l3400 199E  
                     l4200 0B7A                       l4120 08FE                       l4104 080C  
                     l4040 0620                       l4032 05EC                       l4024 05AE  
                     l4112 084C                       l4016 0516                       l4008 050E  
                     l3410 19D4                       l3402 19A4                       l4210 0BE0  
                     l4202 0B96                       l4130 094E                       l4122 0910  
                     l4114 08D2                       l4106 0816                       l4050 066C  
                     l4042 0632                       l4034 05F4                       l4026 05C0  
                     l4018 0522                       l3500 1B9A                       l3420 1A10  
                     l3412 19E4                       l3404 19B2                       l4300 0E86  
                     l4220 0C26                       l4212 0BE8                       l4204 0BAA  
                     l4140 099E                       l4132 0960                       l4124 0922  
                     l4116 08E4                       l4108 0828                       l4060 06B6  
                     l4052 0686                       l4044 0644                       l4036 0606  
                     l4028 05C8                       l3502 1BC0                       l3510 1C16  
                     l3430 1A2E                       l3422 1A1E                       l3414 19E6  
                     l3406 19B4                       l4310 0ED2                       l4302 0E9A  
                     l4230 0C78                       l4222 0C38                       l4214 0BFA  
                     l4206 0BBC                       l4150 09EE                       l4142 09B0  
                     l4134 0972                       l4126 0934                       l4118 08F6  
                     l4062 06C4                       l4070 070A                       l4054 0694  
                     l4046 064C                       l4038 0618                       l3520 1C6A  
                     l3512 1C3C                       l3504 1BF4                       l3440 1A42  
                     l3432 1A32                       l3424 1A22                       l3408 19C4  
                     l3416 19EE                       l3600 228A                       l4320 0F22  
                     l4312 0EE4                       l4304 0EA2                       l4232 0C8A  
                     l4240 0CBE                       l4224 0C4A                       l4216 0C0C  
                     l4208 0BCE                       l4160 0A34                       l4152 09F6  
                     l4144 09B8                       l4136 097A                       l4128 093C  
                     l4080 0750                       l4072 0718                       l4064 06D8  
                     l4048 065A                       l4056 069E                       l3530 1C94  
                     l3522 1C78                       l3514 1C4C                       l3506 1BF6  
                     l3450 1A56                       l3442 1A46                       l3434 1A36  
                     l3426 1A26                       l3418 19FE                       l3610 22CA  
                     l3602 2298                       l4330 0F72                       l4322 0F34  
                     l4314 0EF6                       l4306 0EAE                       l4250 0D10  
                     l4242 0CD2                       l4234 0C9C                       l4218 0C14  
                     l4226 0C52                       l4170 0A84                       l4162 0A46  
                     l4154 0A08                       l4146 09CA                       l4138 098C  
                     l4090 07A0                       l4082 0762                       l4074 0722  
                     l4066 06F2                       l4058 06AC                       l3540 1CC6  
                     l3532 1CA4                       l3524 1C7A                       l3508 1C06  
                     l3460 1AA8                       l3452 1A5A                       l3444 1A4A  
                     l3436 1A3A                       l3428 1A2A                       l3380 1938  
                     l3700 258C                       l3620 230A                       l3612 22CC  
                     l3604 229A                       l4340 0FC2                       l4332 0F84  
                     l4324 0F46                       l4316 0F08                       l4308 0EBC  
                     l4260 0D60                       l4252 0D22                       l4244 0CE4  
                     l4236 0CA4                       l4228 0C66                       l4180 0AD6  
                     l4172 0A96                       l4164 0A58                       l4156 0A1A  
                     l4148 09DC                       l4092 07A8                       l4084 0774  
                     l4076 0736                       l4068 0700                       l3550 1D20  
                     l3542 1CDC                       l3526 1C88                       l3518 1C60  
                     l3534 1CA6                       l3470 1AEC                       l3462 1AB8  
                     l3446 1A4E                       l3438 1A3E                       l3454 1A5E  
                     l3390 196C                       l3382 193A                       l3702 2590  
                     l3630 233A                       l3622 2312                       l3606 22AA  
                     l3614 22D4                       l4350 1014                       l4334 0F8C  
                     l4326 0F4E                       l4318 0F10                       l4342 0FCA  
                     l4270 0DA6                       l4262 0D68                       l4254 0D2A  
                     l4246 0CEC                       l4238 0CB0                       l4190 0B20  
                     l4182 0AE8                       l4174 0AA8                       l4166 0A6A  
                     l4158 0A2C                       l4094 07BA                       l4086 077C  
                     l4078 0748                       l3560 1D9C                       l3552 1D5A  
                     l3528 1C90                       l3536 1CB4                       l3472 1AEE  
                     l3464 1ACE                       l3456 1A62                       l3448 1A52  
                     l3384 194A                       l3392 1974                       l3376 191C  
                     l3704 259E                       l3640 2378                       l3632 233A  
                     l3624 2316                       l3616 22E4                       l3608 22BA  
                     l3800 2C34                       l4360 105A                       l4352 101C  
                     l4344 0FDE                       l4336 0F9E                       l4328 0F60  
                     l4280 0DFA                       l4272 0DB2                       l4264 0D7A  
                     l4256 0D3C                       l4248 0CFE                       l4192 0B32  
                     l4184 0AFA                       l4176 0AB0                       l4168 0A72  
                     l4096 07CC                       l4088 078E                       l3570 1DBC  
                     l3562 1DA0                       l3546 1D06                       l3554 1D5C  
                     l3538 1CB8                       l3490 1B76                       l3482 1B3E  
                     l3474 1AF8                       l3466 1ADA                       l3458 1A8C  
                     l3394 1984                       l3386 195A                       l3378 192A  
                     l3706 25A4                       l3650 23C4                       l3642 2388  
                     l3618 22FA                       l3730 2E44                       l3722 2E04  
                     l3802 2C36                       l4370 10AA                       l4362 106C  
                     l4354 102E                       l4346 0FF0                       l4338 0FB0  
                     l4290 0E4A                       l4282 0E0C                       l4266 0D8C  
                     l4258 0D4E                       l4274 0DC0                       l4194 0B44  
                     l4186 0B06                       l4178 0AC4                       l4098 07D4  
                     l3820 341C                       l3572 1DCA                       l3564 1DAE  
                     l3556 1D6C                       l3548 1D12                       l3492 1B7A  
                     l3484 1B4E                       l3476 1B1A                       l3468 1ADE  
                     l3396 198A                       l3388 196A                       l3708 25A6  
                     l3660 240E                       l3652 23D2                       l3644 2398  
                     l3636 234E                       l3628 232A                       l3580 2224  
                     l3740 2E74                       l3732 2E52                       l3724 2E2E  
                     l3716 2DD8                       l4372 10BC                       l4364 107E  
                     l4356 1040                       l4348 1002                       l4380 10F0  
                     l4292 0E52                       l4284 0E14                       l4276 0DD6  
                     l4268 0D9E                       l4196 0B56                       l4188 0B0E  
                     l3900 020A                       l3822 3420                       l3574 1DCC  
                     l3566 1DB4                       l3558 1D7C                       l3494 1B88  
                     l3486 1B5C                       l3478 1B2A                       l3398 199C  
                     l3670 2454                       l3662 2420                       l3654 23DE  
                     l3646 23A0                       l3638 2368                       l3590 2264  
                     l3582 2232                       l3750 2E9E                       l3742 2E7E  
                     l3726 2E30                       l3718 2DF0                       l3814 3302  
                     l4382 1106                       l4374 10CE                       l4366 1090  
                     l4358 1052                       l4294 0E64                       l4286 0E26  
                     l4278 0DE8                       l4198 0B66                       l3910 0258  
                     l3902 0216                       ?_pad 0011                       l3824 3444  
                     l3568 1DB6                       l3496 1B8A                       l3488 1B6A  
                     l3680 24B4                       l3664 2436                       l3672 2466  
                     l3656 23FC                       l3648 23B0                       l3592 2266  
                     l3584 2234                       l3752 2EAE                       l3728 2E40  
                     l3760 2A94                       l3816 338E                       l4376 10D6  
                     l4368 1098                       l4296 0E6C                       l4288 0E38  
                     l3920 02A6                       l3912 0260                       l3904 0224  
                     l3826 345A                       l3498 1B94                       l3690 2522  
                     l3674 2474                       l3666 243C                       l3658 23FE  
                     l3586 2244                       l3594 226E                       l3578 2216  
                     l3754 2EBE                       l3738 2E6A                       l3762 2AA6  
                     l3818 3392                       l4386 111C                       l4378 10E2  
                     l4298 0E78                       l3930 02FA                       l3922 02BA  
                     l3914 026C                       l3906 0232                       l3850 0012  
                     l3684 24DE                       l3692 2526                       l3676 2478  
                     l3668 2446                       l3596 227E                       l3588 2254  
                     l3756 2ECE                       l3748 2E92                       l3780 2B6C  
                     l3772 2B24                       l3764 2AB4                       l3940 034E  
                     l3932 0304                       l3924 02D4                       l3916 027E  
                     l3908 024A                       l3860 004E                       l3852 001E  
                     l3694 2540                       l3686 24EA                       l3678 2486  
                     l3598 2284                       l3790 2BEC                       l3782 2B78  
                     l3774 2B2C                       l3766 2AFA                       l3950 0392  
                     l3934 0312                       l3942 0358                       l3926 02E2  
                     l3918 0298                       l3870 0194                       l3862 0050  
                     l3854 0024                       l3696 2556                       l3688 24F8  
                     l3792 2BEE                       l3784 2BB4                       l3776 2B38  
                     l3768 2B10                       l3960 03DC                       l3952 03AC  
                     l3944 0366                       l3936 0326                       l3928 02EC  
                     l3880 01C2                       l3872 0196                       l3864 0052  
                     l3856 0036                       l3698 2570                       l3794 2BF2  
                     l3786 2BC0                       l3778 2B6A                       l3970 0432  
                     l3962 03F0                       l3954 03BA                       l3946 0370  
                     l3938 0340                       l3890 01F0                       l3882 01CE  
                     l3874 0198                       l3866 017E                       l3858 0038  
                     l3796 2C16                       l3788 2BCE                       l3980 0466  
                     l3972 043E                       l3964 0402                       l3948 037E  
                     l3956 03C4                       l3892 01F2                       l3884 01DE  
                     l3876 01A2                       l3868 0192                       l3798 2C26  
                     l3982 0468                       l3974 044C                       l3966 0416  
                     l3990 0486                       l3958 03D2                       l3894 01F4  
                     l3992 049A                       l3984 046A                       l3976 045A  
                     l3968 042A                       l3896 0206                       l3888 01E8  
                     l3994 04AC                       l3986 046C                       l3978 0464  
                     l3898 0208                       l3996 04C0                       l3988 0478  
                     ?_isr 0001                       l3998 04D4                       STR_1 7FFD  
                     STR_2 7FA7                       STR_3 7E5C                       STR_4 7ECC  
                     STR_5 7F48                       STR_6 7F24                       STR_7 7EE4  
                     STR_8 7EFA                       STR_9 7EE4                       _CRLF 00FC  
                     u4100 195A                       u4101 1956                       u4110 199C  
                     u4111 1998                       u4200 1ACE                       u4120 19B2  
                     u5000 02A6                       u4201 1ACA                       u4121 19AE  
                     u5001 02A2                       u4210 1AEC                       u4130 19C4  
                     u5010 02BA                       u4211 1AE8                       u4131 19C0  
                     u5011 02B6                       u4300 1C3C                       u4220 1B0C  
                     u4140 19D4                       u5100 03BA                       u5020 02E2  
                     u4301 1C38                       u4221 1B08                       u4141 19D0  
                     u5101 03B6                       u5021 02DE                       u4310 1C4C  
                     u4230 1B1A                       u4150 1A10                       u5110 03D2  
                     u5030 02FA                       u4311 1C48                       u4231 1B16  
                     u4151 1A0C                       u5111 03CE                       u5031 02F6  
                     u4400 1D20                       u4320 1C78                       u4240 1B2A  
                     u4160 1A1E                       u4080 1938                       u6000 0D10  
                     u5200 04D4                       u5120 03F0                       u5040 0312  
                     u4401 1D1C                       u4321 1C74                       u4241 1B26  
                     u4161 1A1A                       u4081 1934                       u6001 0D0C  
                     u5201 04D0                       u5121 03EC                       u5041 030E  
                     u4410 1D5A                       u4330 1C88                       u4250 1B5C  
                     u4170 1A8C                       u4090 194A                       u6010 0D22  
                     u5210 0504                       u5130 0402                       u5050 0326  
                     u4411 1D56                       u4331 1C84                       u4251 1B58  
                     u4171 1A88                       u4091 1946                       u6011 0D1E  
                     u5211 0500                       u5131 03FE                       u5051 0322  
                     u4420 1D6C                       u4340 1CA4                       u4260 1B6A  
                     u4180 1AA4                       u4500 2298                       u6100 0DFA  
                     u6020 0D3C                       u5300 0644                       u5220 0544  
                     u5140 0416                       u5060 034E                       u4421 1D68  
                     u4341 1CA0                       u4261 1B66                       u4181 1A9E  
                     u4501 2294                       u6101 0DF6                       u6021 0D38  
                     u5301 0640                       u5221 0540                       u5141 0412  
                     u5061 034A                       u4430 1D7C                       u4350 1CB4  
                     u4270 1B88                       u4190 1AA6                       u4510 22AA  
                     u6110 0E0C                       u6030 0D4E                       u5310 065A  
                     u5230 05AE                       u5150 042A                       u5070 0366  
                     u4431 1D78                       u4351 1CB0                       u4271 1B84  
                     u4511 22A6                       u6111 0E08                       u6031 0D4A  
                     u5311 0656                       u5231 05AA                       u5151 0426  
                     u5071 0362                       u4440 1D9C                       u4360 1CC6  
                     u4280 1BC0                       u4600 2454                       u4520 22BA  
                     u6200 0F08                       u6120 0E26                       u6040 0D60  
                     u5400 0748                       u5320 066C                       u5240 05C0  
                     u5160 045A                       u5080 037E                       u4441 1D98  
                     u4361 1CC2                       u4281 1BBC                       u4601 2450  
                     u4521 22B6                       u6201 0F04                       u6121 0E22  
                     u6041 0D5C                       u5401 0744                       u5321 0668  
                     u5241 05BC                       u5161 0456                       u5081 037A  
                     u4450 1DAE                       u4370 1CDC                       u4290 1C06  
                     u4610 2474                       u4530 22FA                       u6210 0F22  
                     u6130 0E38                       u6050 0D7A                       u5410 0762  
                     u5330 0694                       u5250 05DA                       u5170 049A  
                     u5090 0392                       u4451 1DAA                       u4371 1CD8  
                     u4291 1C02                       u4611 2470                       u4531 22F6  
                     u6211 0F1E                       u6131 0E34                       u6051 0D76  
                     u5411 075E                       u5331 0690                       u5251 05D6  
                     u5171 0496                       u5091 038E                       _PEIE 007F96  
                     u4460 1DCA                       u4380 1CF2                       u4620 2486  
                     u4540 233A                       u4700 2DF0                       u6300 0FDE  
                     u6220 0F34                       u6140 0E4A                       u6060 0D8C  
                     u5500 0828                       u5420 0774                       u5340 06AC  
                     u5260 05EC                       u5180 04AC                       u4461 1DC6  
                     u4381 1CEE                       u4621 2482                       u4541 2336  
                     u4701 2DEC                       u6301 0FDA                       u6221 0F30  
                     u6141 0E46                       u6061 0D88                       u5501 0824  
                     u5421 0770                       u5341 06A8                       u5261 05E8  
                     u5181 04A8                       u4390 1D06                       u4630 24B4  
                     u4550 23B0                       u4470 2232                       u4710 2E24  
                     u6310 0FF0                       u6230 0F46                       u6150 0E64  
                     u6070 0D9E                       u5510 08D2                       u5430 078E  
                     u5350 06C4                       u5270 0606                       u5190 04C0  
                     u4391 1D02                       u4631 24B0                       u4551 23AC  
                     u4471 222E                       u6311 0FEC                       u6231 0F42  
                     u6151 0E60                       u6071 0D9A                       u5511 08CE  
                     u5431 078A                       u5351 06C0                       u5271 0602  
                     u5191 04BC                       u4640 24CA                       u4560 23D2  
                     u4480 2244                       u4720 2E52                       u4800 2B66  
                     u6400 10AA                       u6320 1002                       u6240 0F60  
                     u6160 0E9A                       u6080 0DD6                       u5600 098C  
                     u5520 08E4                       u5440 07A0                       u5360 06D8  
                     u5280 0618                       u4641 24C6                       u4561 23CE  
                     u4481 2240                       u4721 2E4E                       u4801 2B62  
                     u6401 10A6                       u6321 0FFE                       u6241 0F5C  
                     u6161 0E96                       u6081 0DD2                       u5601 0988  
                     u5521 08E0                       u5441 079C                       u5361 06D4  
                     u5281 0614                       u4650 24DE                       u4570 23FC  
                     u4490 2254                       u4730 2E66                       u4810 2BB0  
                     u6410 10BC                       u6330 1014                       u6250 0F72  
                     u6170 0ED2                       u6090 0DE8                       u5610 099E  
                     u5530 08F6                       u5450 07BA                       u5370 0700  
                     u5290 0632                       u4651 24DA                       u4571 23F8  
                     u4491 2250                       u4731 2E62                       u4715 2E1A  
                     u4811 2BAC                       u6411 10B8                       u6331 1010  
                     u6251 0F6E                       u6171 0ECE                       u6091 0DE4  
                     u5611 099A                       u5531 08F2                       u5451 07B6  
                     u5371 06FC                       u5291 062E                       _RCIE 007CED  
                     u4900 347A                       u4660 24F8                       u4580 2420  
                     u4740 2E8E                       u4820 2BCE                       u6420 10CE  
                     u6340 102E                       u6260 0F84                       u6180 0EE4  
                     u5700 0A58                       u5620 09B0                       u5540 0910  
                     u5460 07CC                       u5380 0718                       _RCIF 007CF5  
                     u4661 24F4                       u4581 241C                       u4741 2E8A  
                     u4821 2BCA                       u6421 10CA                       u6341 102A  
                     u6261 0F80                       u6181 0EE0                       u5701 0A54  
                     u5621 09AC                       u5541 090C                       u5461 07C8  
                     u5381 0714                       u4910 348A                       u4670 2540  
                     u4590 2436                       u4750 2EAE                       u4830 2BDE  
                     u6430 1106                       u6350 1040                       u6270 0F9E  
                     u6190 0EF6                       u5710 0A6A                       u5630 09CA  
                     u5550 0922                       u5470 07E8                       u5390 0736  
                     u4911 3486                       u4671 253C                       u4591 2432  
                     u4751 2EAA                       u4831 2BDA                       u6431 1102  
                     u6351 103C                       u6271 0F9A                       u6191 0EF2  
                     u5711 0A66                       u5631 09C6                       u5551 091E  
                     u5471 07E4                       u5391 0732                       u4680 2570  
                     u4760 2EBE                       u4840 2BEC                       u6440 1118  
                     u6360 1052                       u6280 0FB0                       u5800 0B32  
                     u5720 0A84                       u5640 09DC                       u5560 0934  
                     u5480 07FA                       u4681 256C                       u4761 2EBA  
                     u4841 2BE8                       u6441 1114                       u6361 104E  
                     u6281 0FAC                       u5801 0B2E                       u5721 0A80  
                     u5641 09D8                       u5561 0930                       u5481 07F6  
                     u4690 259E                       u4850 2C26                       u4770 2AA6  
                     u6450 112E                       u6370 106C                       u6290 0FC2  
                     u5810 0B44                       u5730 0A96                       u5650 09EE  
                     u5570 094E                       u5490 080C                       u4907 3470  
                     u4691 259A                       u4851 2C22                       u4771 2AA2  
                     u6451 112A                       u6371 1068                       u6291 0FBE  
                     u5811 0B40                       u5731 0A92                       u5651 09EA  
                     u5571 094A                       u5491 0808                       u4860 2C34  
                     u4780 2AB4                       u6380 107E                       u5900 0C26  
                     u5820 0B56                       u5740 0AA8                       u5660 0A08  
                     u5580 0960                       u4861 2C30                       u4781 2AB0  
                     u6381 107A                       u5901 0C22                       u5821 0B52  
                     u5741 0AA4                       u5661 0A04                       u5581 095C  
                     u4790 2B10                       u6390 1090                       u5910 0C38  
                     u5830 0B7A                       u5750 0AC4                       u5670 0A1A  
                     u5590 0972                       u4791 2B0C                       u6391 108C  
                     u5911 0C34                       u5831 0B76                       u5751 0AC0  
                     u5671 0A16                       u5591 096E                       u4880 3440  
                     u5920 0C4A                       u5840 0BAA                       u5760 0AD6  
                     u5680 0A2C                       u4960 00E8                       u5921 0C46  
                     u5841 0BA6                       u5761 0AD2                       u5681 0A28  
                     u4961 00DE                       u4890 3456                       u5930 0C66  
                     u5850 0BBC                       u5770 0AE8                       u5690 0A46  
                     u4970 0104                       u4891 3452                       u5931 0C62  
                     u5851 0BB8                       u5771 0AE4                       u5691 0A42  
                     u6707 02C6                       u4971 00FC                       u5940 0C78  
                     u5860 0BCE                       u5780 0AFA                       u4980 01BE  
                     u5941 0C74                       u5861 0BCA                       u5781 0AF6  
                     u6717 0332                       u4981 01BA                       u5950 0C8A  
                     u5870 0BE0                       u5790 0B20                       u4990 0258  
                     u4887 3436                       u5951 0C86                       u5871 0BDC  
                     u5791 0B1C                       u6727 039E                       u4991 0254  
                     u5960 0C9C                       u5880 0BFA                       u4968 00EC  
                     u5961 0C98                       u5881 0BF6                       u6737 0678  
                     u5970 0CD2                       u5890 0C0C                       u4978 0108  
                     u5971 0CCE                       u5891 0C08                       u6747 06E4  
                     u5980 0CE4                       u5981 0CE0                       u5990 0CFE  
                     u5991 0CFA                       u6697 01D6                       _TXIF 007CF4  
                     _dbuf 01D3                       _atoi 2C48                       _main 0012  
                     _prec 00C9                       _nout 00C5                       pad@i 0018  
                     pad@p 0015                       fsr1h 000FE2                       fsr2h 000FDA  
                     indf1 000FE7                       indf2 000FDF                       fsr1l 000FE1  
                     pad@w 001A                       fsr2l 000FD9                       btemp 007F  
                     _utoa 288C                       _xtoa 25B2          _ValorStateShutter 00E7  
                     prodh 000FF4                       prodl 000FF3                       start 000E  
          ___fldiv@new_exp 009F            ?_USART_EnviaMsg 0080               ___param_bank 000000  
    _EstadoAprobacionBolsa 00DD                      ??_pad 0017                      ??_isr 0072  
            ___fltol@sign1 0088                      ?_atoi 0008            __end_of___fladd 1DDE  
                    ?_main 0001            __end_of___fldiv 25B2                      STR_10 7F8F  
                    STR_11 7F9B                      STR_20 7EB4                      STR_12 7E97  
                    STR_21 7F10                      STR_13 7DDB                      STR_30 7FF0  
                    STR_14 7E06                      STR_22 7DAF                      STR_15 7F8F  
                    STR_31 7FC8                      STR_23 7F82                      STR_16 7FA7  
                    STR_32 7FF0                      STR_24 7FF5                      STR_40 7FE4  
                    STR_17 7E5C                      STR_41 7FEB                      STR_33 7FFA  
                    STR_25 7F66                      STR_26 7FF0                      STR_18 7FB3  
                    STR_34 7F74                      STR_42 7F38                      STR_43 7FEB  
                    STR_35 7FEB                      STR_27 7FBE                      STR_19 7E7A  
                    STR_28 7FEB                      STR_36 7FD6                      STR_44 7F57  
                    STR_45 7FEB                      STR_37 7FEB                      STR_29 7FCF  
                    STR_38 7FDD                      STR_46 7E31                      STR_47 7EAD  
                    STR_39 7FEB                      STR_48 7FB9            __end_of___fltol 2EE0  
                    ?_utoa 001C                      _T0CON 000FD5            __end_of___lodiv 2FD0  
                    ?_xtoa 001C                      _T1CON 000FCD                      _T2CON 000FCA  
                    _LATA0 007C48                      _LATA1 007C49                      _LATA2 007C4A  
                    _LATA3 007C4B                      _LATA4 007C4C                      _LATC1 007C59  
                    _LATA5 007C4D                      _LATC2 007C5A                      _LATE0 007C68  
                    _LATE1 007C69                      _LATE2 007C6A            __end_of___lomod 3172  
                    i2l302 1658                      i2l333 16DE                      i2l343 18B4  
                    i2l352 34B6                      i2l354 34C4                      i2l347 18F0  
                    i2l356 34F8                      i2l359 3858                      i2l804 2FCE  
                    i2l814 3170                      i2l807 3150                      i2l797 2FAE  
                    _RCREG 000FAE                      _RCSTA 000FAB               vfpfcnvrt@fmt 0045  
                    _TMR0H 000FD7               vfpfcnvrt@llu 0052                      _TMR1H 000FCF  
                    _TMR0L 000FD6                      _TMR1L 000FCE                      _SPBRG 000FAF  
                    _PORTA 000F80                      _PORTB 000F81                      _PORTC 000F82  
                    _PORTD 000F83                      _TRISA 000F92                      _TRISB 000F93  
                    _TRISC 000F94                      _TRISD 000F95                      _TRISE 000F96  
                    _TXREG 000FAD                      _TXSTA 000FAC                      _flags 00CB  
                    _fputc 3172            __end_of_isalpha 3756                      _fputs 36D6  
          __end_of_isdigit 37FE                      atoi@n 0015                      pad@fp 0011  
                    atoi@s 0008                      _width 00C7                      _putch 385E  
                    main@i 00C3            __end_of_islower 378E            __end_of_isspace 36D6  
              _DelaySensor 0184            __end_of_isupper 37C6                      tablat 000FF5  
                    ttemp5 0080                      ttemp6 0083                      ttemp7 0087  
                    utoa@d 001E                      utoa@i 003A                      utoa@n 0032  
                    utoa@p 002E                      utoa@w 0030                      status 000FD8  
                    wtemp8 0080            __end_of_sprintf 3626                      xtoa@c 0041  
                    xtoa@d 001E                      xtoa@i 003F                      xtoa@n 0037  
                    xtoa@p 0033                      xtoa@w 0035                      xtoa@x 0026  
          __end_of_toupper 3684           ___lodiv@dividend 0001                ?_USART_Init 00B7  
             _toupper$1079 000D            __initialization 3398             _ValorBagSensor 00E3  
             __end_of_atoi 2DD8               __end_of_main 1136               __end_of_utoa 2A90  
           _ValorBagStatus 00E1               __end_of_xtoa 288C                     ??_atoi 000A  
                   ??_main 00BF                     ??_utoa 0026                     ??_xtoa 0027  
            __activetblptr 000002           ___lodiv@quotient 0011                 _MsgVersion 01BD  
        _PulsoArribaBuzzer 00D7                     _ADCON1 000FC1                     ?_fputc 0001  
                   ?_fputs 000A                     ?_putch 0001                     i2l1120 2826  
                   i2l1122 288A                     i2l1106 2688                     i2l1213 37C4  
                   i2l1037 3624                     i2l1207 36D4                     i2l3000 36D6  
                   i2l1072 3282                     i2l1136 1EDA                     i2l3002 36E2  
                   i2l3010 380A                     i2l1082 28C4                     i2l1250 367A  
                   i2l1075 32C4                     i2l1228 323A                     i2l1236 3718  
                   i2l3004 36F4                     i2l3012 380E                     i2l1092 2A8E  
                   i2l1084 28CC                     i2l3100 365C                     i2l1245 3832  
                   i2l1077 3300                     i2l1261 378C                     i2l1149 2214  
                   i2l3022 3834                     i2l3110 3684                     i2l1190 2DD6  
                   i2l3030 2EEC                     i2l3006 36F8                     i2l3014 3826  
                   i2l3102 366E                     i2l1158 35BE                     i2l1239 385E  
                   i2l1255 3682                     i2l1159 35C6                     i2l3024 3850  
                   i2l3112 3688                     i2l3040 2F46                     i2l3032 2F0A  
                   i2l3008 37FE                     i2l3200 2744                     i2l1193 3754  
                   i2l1097 25EA                     i2l3106 37C6                     i2l3114 369C  
                   i2l3042 2F74                     i2l3034 2F12                     i2l3050 30A2  
                   i2l3130 28F4                     i2l3122 288C                     i2l3018 3756  
                   i2l3210 27FC                     i2l3202 274A                     i2l1187 2DCE  
                   i2l1099 25F2                     i2l3116 36CA                     i2l3044 2F94  
                   i2l3036 2F26                     i2l3028 2EE0                     i2l3060 3118  
                   i2l3052 30C0                     i2l3140 2988                     i2l3132 28FC  
                   i2l3124 289C                     i2l3220 2862                     i2l3212 2816  
                   i2l3204 27A8                     i2l3300 1E74                     i2l3118 36CE  
                   i2l3230 2C64                     i2l3046 2F96                     i2l3038 2F34  
                   i2l3062 3138                     i2l3054 30C8                     i2l3070 3260  
                   i2l3150 2A3C                     i2l3142 298E                     i2l3134 2906  
                   i2l3126 289E                     i2l3214 2836                     i2l3206 27C4  
                   i2l3310 1F46                     i2l3302 1EC8                     i2l1199 37FC  
                   i2l3240 2CC0                     i2l3232 2C80                     i2l3224 2C48  
                   i2l3048 2FA8                     i2l3064 314A                     i2l3056 30DC  
                   i2l3080 32A6                     i2l3072 326E                     i2l3152 2A56  
                   i2l3136 290C                     i2l3144 29F2                     i2l3128 28B8  
                   i2l3216 283C                     i2l3208 27E2                     i2l3160 25C2  
                   i2l3312 1F54                     i2l3304 1EEA                     i2l3242 2CD6  
                   i2l3234 2CB6                     i2l3226 2C5C                     i2l3058 30EA  
                   i2l3082 32D4                     i2l3074 327A                     i2l3066 323C  
                   i2l3146 2A04                     i2l3154 2A66                     i2l3138 2982  
                   i2l3218 284C                     i2l3170 2630                     i2l3162 25C4  
                   i2l3322 1FD6                     i2l3314 1F62                     i2l3306 1EEC  
                   i2l3260 2DB2                     i2l3252 2D50                     i2l3244 2CDE  
                   i2l3236 2CBA                     i2l3228 2C60                     i2l3084 32E8  
                   i2l3076 328E                     i2l3068 324C                     i2l3148 2A22  
                   i2l3092 371A                     i2l3180 266C                     i2l3172 2638  
                   i2l3164 25DE                     i2l3340 20FA                     i2l3332 208E  
                   i2l3316 1F82                     i2l3324 1FE8                     i2l3308 1F10  
                   i2l3246 2CE6                     i2l3078 32A2                     i2l3182 267C  
                   i2l3174 2642                     i2l3166 2608                     i2l3158 25B2  
                   i2l3350 21A4                     i2l3342 2136                     i2l3334 20B2  
                   i2l3326 200C                     i2l3318 1F90                     i2l3270 1E10  
                   i2l3256 2D8E                     i2l3248 2D1A                     i2l3088 378E  
                   i2l3096 3626                     i2l3192 2708                     i2l3176 2648  
                   i2l3168 2610                     i2l3352 21B8                     i2l3336 20D6  
                   i2l3328 2056                     i2l3280 1E48                     i2l3272 1E22  
                   i2l4400 119C                     i2l3258 2DA0                     i2l3194 271A  
                   i2l3186 26BC                     i2l3178 2650                     i2l3338 20EC  
                   i2l3346 2172                     i2l3274 1E26                     i2l3362 21DE  
                   i2l3266 1DDE                     i2l4410 11BC                     i2l4402 11A4  
                   i2l3188 26CE                     i2l3196 272E                     i2l3364 2202  
                   i2l3348 2196                     i2l3356 21C4                     i2l3292 1E60  
                   i2l3284 1E50                     i2l3276 1E32                     i2l3268 1E02  
                   i2l4500 1386                     i2l4420 11F2                     i2l4412 11BE  
                   i2l4404 11A6                     i2l3198 273E                     i2l3358 21D2  
                   i2l3278 1E36                     i2l4510 13FA                     i2l4502 1392  
                   i2l4430 1226                     i2l4422 1208                     i2l4414 11CA  
                   i2l4406 11A8                     i2l3296 1E68                     i2l3288 1E58  
                   i2l4600 1790                     i2l4520 146E                     i2l4512 142E  
                   i2l4504 13C6                     i2l4432 1228                     i2l4424 1210  
                   i2l4416 11D6                     i2l4408 11BA                     i2l3810 357C  
                   i2l4610 17C6                     i2l4602 179E                     i2l4530 14DE  
                   i2l4522 147A                     i2l4514 144A                     i2l4506 13E2  
                   i2l4450 1272                     i2l4442 1252                     i2l4434 122A  
                   i2l4426 1212                     i2l4418 11E2                     i2l3812 35A2  
                   i2l4620 1800                     i2l4612 17C8                     i2l4604 17BA  
                   i2l4540 1576                     i2l4532 1510                     i2l4524 14AC  
                   i2l4516 1456                     i2l4508 13EE                     i2l4452 1274  
                   i2l4444 1266                     i2l4436 1236                     i2l4428 1214  
                   i2l3806 3566                     i2l3830 35D8                     i2l4630 1852  
                   i2l4622 1814                     i2l4614 17CA                     i2l4606 17C2  
                   i2l4542 1592                     i2l4534 152A                     i2l4526 14C6  
                   i2l4518 1462                     i2l4462 12A2                     i2l4454 1276  
                   i2l4446 126E                     i2l4438 1242                     i2l4550 15BE  
                   i2l4720 1E9A                     i2l3808 356E                     i2l3832 35E0  
                   i2l4640 18B8                     i2l4632 1854                     i2l4624 182C  
                   i2l4616 17DE                     i2l4608 17C4                     i2l4560 168C  
                   i2l4552 1666                     i2l4536 1536                     i2l4528 14D2  
                   i2l4480 12D2                     i2l4456 1290                     i2l4448 1270  
                   i2l4392 1160                     i2l4722 2D04                     i2l3834 35E8  
                   i2l3842 348C                     i2l4642 18E0                     i2l4634 1874  
                   i2l4618 17F6                     i2l4626 1836                     i2l4570 170A  
                   i2l4562 169E                     i2l4554 1674                     i2l4546 15A2  
                   i2l4538 1542                     i2l4490 131A                     i2l4482 12DA  
                   i2l4458 1292                     i2l4394 116E                     i2l3836 360C  
                   i2l3828 35C8                     i2l3844 3490                     i2l4636 1878  
                   i2l4628 1844                     i2l4580 174A                     i2l4572 171A  
                   i2l4564 16A2                     i2l4556 1676                     i2l4492 1336  
                   i2l4476 12B0                     i2l4396 117C                     i2l2990 3196  
                   i2l3838 361C                     i2l3846 34B2                     i2l4638 18A0  
                   i2l4590 175E                     i2l4582 174C                     i2l4574 1736  
                   i2l4566 16CA                     i2l4558 167E                     i2l4718 15D2  
                   i2l4494 1352                     i2l4486 12EA                     i2l4478 12C6  
                   i2l4398 1186                     i2l2992 31A0                     i2l3848 34C8  
                   i2l4584 174E                     i2l4576 1746                     i2l4568 16E2  
                   i2l4592 176A                     i2l4496 135E                     i2l4488 1306  
                   i2l2994 31BE                     i2l2986 3172                     i2l4594 1778  
                   i2l4586 1750                     i2l4578 1748                     i2l4498 137A  
                   i2l2996 31F4                     i2l2988 3184                     i2l4596 1786  
                   i2l4588 1752                     i2l4598 1788                     _OSCCON 000FD3  
            vfpfcnvrt@done 004D                     _TMR0IE 007F95                     _TMR0IF 007F92  
                   _TMR1IE 007CE8                     _TMR1IF 007CF0                     _TMR2IE 007CE9  
                   _TMR2IF 007CF1           __end_of___xxtofl 2C48               vfprintf@cfmt 0060  
                ??___fladd 00AF                     ___wmul 3834                  ??___fldiv 0096  
                ??___fltol 0084                  ??___lodiv 0011                  ??___lomod 0011  
                   clear_0 33FC                     clear_1 3408                     isa$std 000001  
            _MsgCritical_0 0143              _MsgCritical_1 0122              _MsgCritical_2 0164  
            _MsgCritical_3 0100                     pad@buf 0013                     _strlen 37FE  
                   fputc@c 0001                     fputs@c 000E                     fputs@i 000F  
                   fputs@s 000A                  ??_isalpha 0003                  ??_isdigit 0003  
                ??_islower 0003               __mediumconst 7DAE                  ??_isspace 0003  
                   tblptrh 000FF7                  ??_isupper 0003                     tblptrl 000FF6  
                   tblptru 000FF8        __size_of_USART_Init 0096                     putch@c 0001  
         __end_of_vfprintf 35C8                     utoa@fp 001C                  ??_sprintf 0068  
                   xtoa@fp 001C                  ??_toupper 0009               ___xxtofl@arg 008A  
             ___xxtofl@exp 0089               ___xxtofl@val 0080                 __accesstop 0080  
  __end_of__initialization 340E             _ValorStateLock 00E5              ___rparam_used 000001  
               ___fltol@f1 0080             __pcstackCOMRAM 0001               __pidataBANK0 385A  
             __pidataBANK1 2FD0               __pidataBANK2 34FA              __end_of_fputc 323C  
            __end_of_fputs 371A              __end_of_putch 3860          ?i2_USART_EnviaMsg 0001  
       ??i2_USART_EnviaMsg 0003                    ??_fputc 0005                    ??_fputs 000E  
                  ??_putch 0001                 __pbssBANK0 00C5                 __pbssBANK1 01D1  
         ??_USART_EnviaMsg 0082                _ModoTrabajo 00D3                    ?___wmul 0001  
                  ?_strlen 0001                  ?___xxtofl 0080         __size_of_vfpfcnvrt 0438  
         ___lomod@dividend 0001           _MsgPersonalidad1 01A3           _MsgPersonalidad2 0186  
                  _Counter 01D1     USART_EnviaMsg@letraout 0082               ??_USART_Init 00BB  
                  __Hparam 0000                    __Lparam 0000                    _Tiempo0 00D1  
                  _Tiempo1 00CF                    _Tiempo2 00CD                    _StartUp 01F3  
                  ___fladd 191C                    ___fldiv 2216                _ValorStateE 00E9  
                  ___fltol 2DD8            __size_of___wmul 0026                    ___lodiv 2EE0  
                  ___lomod 30A2                  ?_vfprintf 005A                _TiempoPulso 00D9  
                  __pcinit 3398                    __ramtop 0600                    __ptext0 0012  
                  __ptext1 3302                    __ptext2 2A90                    __ptext3 2DD8  
                  __ptext4 2216                    __ptext5 191C                    __ptext6 341C  
                  __ptext8 348C                    __ptext9 35C8            __size_of_strlen 0036  
           USART_Init@temp 00BB               __size_of_pad 00C6                    _isalpha 371A  
                  _isdigit 37C6               __size_of_isr 1914                 ??___xxtofl 0084  
                  _islower 3756                    _isspace 3684                    _isupper 378E  
        _TiempoPulsoBuzzer 00D5                    atoi@neg 000E         __end_of_USART_Init 3398  
                  _sprintf 35C8             __pintcode_body 1136                    _toupper 3626  
     end_of_initialization 340E     i2USART_EnviaMsg@msgout 0001                    fputc@fp 0003  
            __Lmediumconst 7DAE                    int_func 1136                    fputs@fp 000C  
        __end_of_vfpfcnvrt 2216                _PulsoArriba 00DB                    postdec1 000FE5  
                  postdec2 000FDD                    postinc0 000FEE                    postinc1 000FE6  
                  postinc2 000FDE                 ??_vfprintf 0060                    strlen@a 0003  
                  strlen@s 0001                  _PORTBbits 000F81                  _PORTDbits 000F83  
              ___fladd@grs 00B6              ___xxtofl@sign 0088                ___fldiv@grs 00A1  
              ___fldiv@rem 009A        USART_Init@baud_rate 00B7                vfpfcnvrt@ap 0047  
              vfpfcnvrt@fp 0043             __end_of___wmul 385A             __end_of_strlen 3834  
      start_initialization 3398            ___lodiv@divisor 0009            ___lodiv@counter 0019  
              __end_of_pad 3302                __end_of_isr 191C  __size_ofi2_USART_EnviaMsg 006E  
               isr@letrain 007E                vfprintf@fmt 005C                   ??___wmul 0005  
              __pdataBANK0 00FC                __pdataBANK1 0100                __pdataBANK2 0200  
                 ??_strlen 0003                  ___fladd@a 00AB                  ___fladd@b 00A7  
                ___fldiv@a 0092                  ___fldiv@b 008E              __pcstackBANK0 0080  
        __size_of___xxtofl 01B8                  __pnvBANK0 00F0                  __pnvBANK1 01F3  
                __pnvBANK2 026B                  __pintcode 0008              __pmediumconst 7DAE  
                 ?___fladd 00A7                   ?___fldiv 008E                   ?___fltol 0080  
                 ?___lodiv 0001                   ?___lomod 0001          __size_of_vfprintf 0062  
          ___lomod@divisor 0009            ___lomod@counter 0011                   ?_isalpha 0001  
                 ?_isdigit 0001                   ?_islower 0001                   ?_isspace 0001  
                 ?_isupper 0001                   ?_sprintf 0062             __size_of_fputc 00CA  
           __size_of_fputs 0044                   ?_toupper 0007             __size_of_putch 0002  
           ___wmul@product 0005                   _PIE1bits 000F9D                   i2u400_40 1F54  
                 i2u400_41 1F50                   i2u401_40 1FD0                   i2u401_41 1FCA  
                 i2u402_40 1FD2                   i2u403_40 1FE8                   i2u403_41 1FE4  
                 i2u340_40 3826                   i2u404_40 200C                   i2u340_41 3822  
                 i2u404_41 2008                   i2u341_40 3786                   i2u405_40 20B2  
                 i2u341_41 3780                   i2u405_41 20AE                   i2u350_40 324C  
                 i2u342_40 3788                   i2u406_40 20D6                   i2u350_41 3248  
                 i2u406_41 20D2                   i2u335_40 3184                   i2u351_40 326E  
                 i2u407_40 2196                   i2u343_41 2EE6                   i2u335_41 3180  
                 i2u351_41 326A                   i2u407_41 2192                   i2u344_40 2F0A  
                 i2u336_40 3196                   i2u352_40 32C4                   i2u360_40 366E  
                 i2u344_41 2F06                   i2u336_41 3192                   i2u352_41 32C0  
                 i2u360_41 366A                   i2u361_40 37F6                   i2u345_40 2F34  
                 i2u337_40 31BE                   i2u353_40 32D4                   i2u361_41 37F0  
                 i2u345_41 2F30                   i2u337_41 31BA                   i2u353_41 32D0  
                 _PIR1bits 000F9E                   i2u362_40 37F8                   i2u346_40 2F74  
                 i2u338_40 31F4                   i2u370_40 2A56                   i2u354_40 37BE  
                 i2u346_41 2F70                   i2u338_41 31F0                   i2u370_41 2A52  
                 i2u354_41 37B8                   i2u363_40 369C                   i2u347_40 30C0  
                 i2u339_40 3718                   i2u371_40 2A66                   i2u355_40 37C0  
                 i2u363_41 3698                   i2u347_41 30BC                   i2u339_41 3714  
                 i2u371_41 2A62                   i2u364_40 36CA                   i2u348_40 30EA  
                 i2u356_40 374E                   i2u380_40 2704                   i2u372_40 25C2  
                 i2u364_41 36C6                   i2u348_41 30E6                   i2u356_41 3748  
                 i2u372_41 25BE                   i2u349_40 3118                   i2u365_40 289C  
                 i2u357_40 3750                   i2u381_40 271A                   i2u373_40 25DE  
                 i2u349_41 3114                   i2u365_41 2898                   i2u381_41 2716  
                 i2u373_41 25DA                   i2u390_40 2CB6                   i2u366_40 28B8  
                 i2u358_40 3656                   i2u382_40 2782                   i2u374_40 2608  
                 i2u390_41 2CB2                   i2u366_41 28B4                   i2u358_41 3650  
                 i2u374_41 2604                   i2u382_45 2770                   i2u391_40 2CD2  
                 i2u367_40 2A04                   i2u359_40 3658                   i2u383_40 27C4  
                 i2u375_40 266C                   i2u391_41 2CCE                   i2u367_41 2A00  
                 i2u383_41 27C0                   i2u375_41 2668                   i2u392_40 2D88  
                 i2u368_40 2A22                   i2u384_40 27E2                   i2u376_40 26B6  
                 i2u392_41 2D82                   i2u368_41 2A1E                   i2u384_41 27DE  
                 i2u376_41 26B0                   i2u393_40 2D8A                   i2u369_40 2A3C  
                 i2u385_40 27FC                   i2u377_40 26B8                   i2u369_41 2A38  
                 i2u385_41 27F8                   i2u394_40 2DA0                   i2u386_40 2816  
                 i2u378_40 26CE                   i2u650_40 1266                   i2u394_41 2D9C  
                 i2u386_41 2812                   i2u378_41 26CA                   i2u650_41 1262  
                 i2u395_40 2DB2                   i2u387_40 2826                   i2u379_40 2702  
                 i2u651_40 12C6                   i2u395_41 2DAE                   i2u387_41 2822  
                 i2u379_41 26FC                   i2u651_41 12C2                   i2u388_40 2836  
                 i2u396_40 1E02                   i2u492_40 34B0                   i2u660_40 1786  
                 i2u652_40 131A                   i2u388_41 2832                   i2u396_41 1DFE  
                 i2u660_41 1782                   i2u652_41 1316                   i2u492_47 34A6  
                 i2u389_40 2C80                   i2u397_40 1EDA                   i2u493_40 34C4  
                 i2u661_40 17BA                   i2u653_40 1666                   i2u389_41 2C7C  
                 i2u397_41 1ED6                   i2u493_41 34C0                   i2u661_41 17B6  
                 i2u653_41 1662                   i2u398_40 1EEA                   i2u494_40 34E8  
                 i2u662_40 17DE                   i2u654_40 1674                   i2u646_40 116E  
                 i2u398_41 1EE6                   i2u662_41 17DA                   i2u654_41 1670  
                 i2u646_41 116A                   i2u494_47 34DE                   i2u399_40 1F10  
                 i2u487_40 35BE                   i2u495_40 34F8                   i2u663_40 1814  
                 i2u655_40 169E                   i2u647_40 117C                   i2u399_41 1F0C  
                 i2u487_41 35BA                   i2u495_41 34F4                   i2u663_41 1810  
                 i2u655_41 169A                   i2u647_41 1178                   i2u664_40 1844  
                 i2u656_40 16CA                   i2u648_40 119C                   i2u664_41 1840  
                 i2u656_41 16C6                   i2u648_41 1198                   i2u665_40 1852  
                 i2u657_40 170A                   i2u649_40 1208                   i2u665_41 184E  
                 i2u657_41 1706                   i2u649_41 1204                   i2u666_40 1874  
                 i2u658_40 1736                   i2u666_41 1870                   i2u658_41 1732  
                 i2u667_40 18A0                   i2u659_40 1778                   i2u667_41 189C  
                 i2u659_41 1774                   i2u668_40 18E0                   i2u668_41 18DC  
  __size_of_USART_EnviaMsg 0070                  _vfpfcnvrt 1DDE          ___wmul@multiplier 0001  
             _isspace$1024 0007                 vfpfcnvrt@c 0051                  copy_data0 33AC  
                copy_data1 33CC           i2_USART_EnviaMsg 348C   i2USART_EnviaMsg@letraout 0003  
                 _MsgAyuda 0200              _PuertaAbierta 00DF                   __Hrparam 0000  
                 _ValorBag 00FA                 vfprintf@ap 005E                   __Lrparam 0000  
               vfprintf@fp 005A           __size_of___fladd 04C2           __size_of___fldiv 039C  
         __size_of___fltol 0108           __size_of___lodiv 00F0           __size_of___lomod 00D0  
               ?_vfpfcnvrt 0043                 sprintf@fmt 0064                 sprintf@ret 0068  
                 ___xxtofl 2A90                   _atoi$997 0010                   _atoi$998 0014  
                 _atoi$999 0012           __size_of_isalpha 003C           __size_of_isdigit 0038  
         __size_of_islower 0038           __size_of_isspace 0052                   __ptext10 3566  
                 __ptext11 1DDE                   __ptext20 36D6                   __ptext12 25B2  
                 __ptext21 3172                   __ptext13 3626                   __ptext22 385E  
                 __ptext14 3756                   __ptext23 30A2                   __ptext15 378E  
                 __ptext24 2EE0                   __ptext16 371A                   __ptext25 2C48  
                 __ptext17 288C                   __ptext26 3684                   __ptext18 323C  
                 __ptext27 37C6                   __ptext19 37FE                   __ptext28 3834  
         __size_of_isupper 0038           __size_of_sprintf 005E           __size_of_toupper 005E  
     USART_EnviaMsg@msgout 0080              __size_of_atoi 0190              __size_of_main 1124  
            __size_of_utoa 0204              __size_of_xtoa 02DA                   isa$xinst 000000  
                 int$flags 007F                   _xtoa$963 002F                   _xtoa$964 0031  
                 _vfprintf 3566                   isalpha@c 0001                   isdigit@c 0001  
                 intlevel2 0000                  sprintf@ap 006A                   islower@c 0001  
                 isspace@c 0001                   isupper@c 0001             _USART_EnviaMsg 341C  
              ??_vfpfcnvrt 0049              _vfpfcnvrt$978 004F                   sprintf@f 006C  
                 sprintf@s 0062                   toupper@c 0007              ___fladd@signs 00B3  
             ___fladd@aexp 00B4               ___fladd@bexp 00B5                 _USART_Init 3302  
   __end_of_USART_EnviaMsg 348C  
