

Microchip MPLAB XC8 Assembler V2.32 build 20210201212658 
                                                                                               Thu Apr 22 16:11:31 2021

Microchip MPLAB XC8 C Compiler v2.32 (Free license) build 20210201212658 Og1 
     1                           	processor	18F4520
     2                           	fnconf	rparam,??,?,0
     3                           	pagewidth 120
     4                           	opt	flic
     5                           	psect	idataBANK0,global,class=CODE,delta=1,noexec
     6                           	psect	idataBANK1,global,class=CODE,delta=1,noexec
     7                           	psect	idataBANK2,global,class=CODE,delta=1,noexec
     8                           	psect	nvBANK0,global,class=BANK0,space=1,delta=1,lowdata,noexec
     9                           	psect	nvBANK1,global,class=BANK1,space=1,delta=1,lowdata,noexec
    10                           	psect	nvBANK2,global,class=BANK2,space=1,delta=1,lowdata,noexec
    11                           	psect	mediumconst,global,reloc=2,class=MEDIUMCONST,delta=1,noexec
    12                           	psect	cinit,global,reloc=2,class=CODE,delta=1
    13                           	psect	bssBANK0,global,class=BANK0,space=1,delta=1,lowdata,noexec
    14                           	psect	dataBANK0,global,class=BANK0,space=1,delta=1,lowdata,noexec
    15                           	psect	bssBANK1,global,class=BANK1,space=1,delta=1,lowdata,noexec
    16                           	psect	dataBANK1,global,class=BANK1,space=1,delta=1,lowdata,noexec
    17                           	psect	dataBANK2,global,class=BANK2,space=1,delta=1,lowdata,noexec
    18                           	psect	cstackBANK0,global,class=BANK0,space=1,delta=1,lowdata,noexec
    19                           	psect	cstackCOMRAM,global,class=COMRAM,space=1,delta=1,lowdata,noexec
    20                           	psect	text0,global,reloc=2,class=CODE,delta=1
    21                           	psect	text1,global,reloc=2,class=CODE,delta=1
    22                           	psect	text2,global,reloc=2,class=CODE,delta=1,group=2
    23                           	psect	text3,global,reloc=2,class=CODE,delta=1,group=2
    24                           	psect	text4,global,reloc=2,class=CODE,delta=1,group=2
    25                           	psect	text5,global,reloc=2,class=CODE,delta=1,group=2
    26                           	psect	text6,global,reloc=2,class=CODE,delta=1
    27                           	psect	intcode,global,reloc=2,class=CODE,delta=1
    28                           	psect	intcode_body,global,reloc=2,class=CODE,delta=1
    29                           	psect	text8,global,reloc=2,class=CODE,delta=1
    30                           	psect	text9,global,reloc=2,class=CODE,delta=1,group=3
    31                           	psect	text10,global,reloc=2,class=CODE,delta=1,group=1
    32                           	psect	text11,global,reloc=2,class=CODE,delta=1,group=1
    33                           	psect	text12,global,reloc=2,class=CODE,delta=1,group=1
    34                           	psect	text13,global,reloc=2,class=CODE,delta=1,group=3
    35                           	psect	text14,global,reloc=2,class=CODE,delta=1,group=3
    36                           	psect	text15,global,reloc=2,class=CODE,delta=1,group=3
    37                           	psect	text16,global,reloc=2,class=CODE,delta=1,group=3
    38                           	psect	text17,global,reloc=2,class=CODE,delta=1,group=1
    39                           	psect	text18,global,reloc=2,class=CODE,delta=1,group=1
    40                           	psect	text19,global,reloc=2,class=CODE,delta=1,group=3
    41                           	psect	text20,global,reloc=2,class=CODE,delta=1,group=3
    42                           	psect	text21,global,reloc=2,class=CODE,delta=1,group=3
    43                           	psect	text22,global,reloc=2,class=CODE,delta=1,group=3
    44                           	psect	text23,global,reloc=2,class=CODE,delta=1,group=2
    45                           	psect	text24,global,reloc=2,class=CODE,delta=1,group=2
    46                           	psect	text25,global,reloc=2,class=CODE,delta=1,group=3
    47                           	psect	text26,global,reloc=2,class=CODE,delta=1,group=3
    48                           	psect	text27,global,reloc=2,class=CODE,delta=1,group=3
    49                           	psect	text28,global,reloc=2,class=CODE,delta=1,group=2
    50                           	psect	intsave_regs,global,class=BIGRAM,space=1,delta=1,noexec
    51                           	psect	rparam,global,class=COMRAM,space=1,delta=1,noexec
    52                           	psect	temp,global,ovrld,common,class=COMRAM,space=1,delta=1
    53                           	psect	idloc,global,abs,ovrld,class=IDLOC,space=5,delta=1,noexec
    54                           	psect	config,global,abs,ovrld,class=CONFIG,space=4,delta=1,noexec
    55  0000                     
    56                           ; Version 2.32
    57                           ; Generated 02/02/2021 GMT
    58                           ; 
    59                           ; Copyright © 2021, Microchip Technology Inc. and its subsidiaries ("Microchip")
    60                           ; All rights reserved.
    61                           ; 
    62                           ; This software is developed by Microchip Technology Inc. and its subsidiaries ("Microch
      +                          ip").
    63                           ; 
    64                           ; Redistribution and use in source and binary forms, with or without modification, are
    65                           ; permitted provided that the following conditions are met:
    66                           ; 
    67                           ;     1. Redistributions of source code must retain the above copyright notice, this lis
      +                          t of
    68                           ;        conditions and the following disclaimer.
    69                           ; 
    70                           ;     2. Redistributions in binary form must reproduce the above copyright notice, this 
      +                          list
    71                           ;        of conditions and the following disclaimer in the documentation and/or other
    72                           ;        materials provided with the distribution. Publication is not required when
    73                           ;        this file is used in an embedded application.
    74                           ; 
    75                           ;     3. Microchip's name may not be used to endorse or promote products derived from th
      +                          is
    76                           ;        software without specific prior written permission.
    77                           ; 
    78                           ; THIS SOFTWARE IS PROVIDED BY MICROCHIP "AS IS" AND ANY EXPRESS OR IMPLIED WARRANTIES,
    79                           ; INCLUDING, BUT NOT LIMITED TO, THE IMPLIED WARRANTIES OF MERCHANTABILITY AND FITNESS F
      +                          OR
    80                           ; PURPOSE ARE DISCLAIMED.  IN NO EVENT SHALL MICROCHIP BE LIABLE FOR ANY DIRECT, INDIREC
      +                          T,
    81                           ; INCIDENTAL, SPECIAL, EXEMPLARY, OR CONSEQUENTIAL DAMAGES (INCLUDING BUT NOT LIMITED TO
    82                           ; PROCUREMENT OF SUBSTITUTE GOODS OR SERVICES; LOSS OF USE, DATA OR PROFITS; OR BUSINESS
    83                           ; INTERRUPTION) HOWSOEVER CAUSED AND ON ANY THEORY OF LIABILITY, WHETHER IN CONTRACT, ST
      +                          RICT
    84                           ; LIABILITY, OR TORT (INCLUDING NEGLIGENCE OR OTHERWISE) ARISING IN ANY WAY OUT OF THE U
      +                          SE OF
    85                           ; THIS SOFTWARE, EVEN IF ADVISED OF THE POSSIBILITY OF SUCH DAMAGE.
    86                           ; 
    87                           ; 
    88                           ; Code-generator required, PIC18F4520 Definitions
    89                           ; 
    90                           ; SFR Addresses
    91  0000                     
    92                           	psect	idataBANK0
    93  002EBE                     __pidataBANK0:
    94                           	callstack 0
    95                           
    96                           ;initializer for _DelaySensor
    97  002EBE  0014               	dw	20
    98                           
    99                           ;initializer for _CRLF
   100  002EC0  0D                 	db	13
   101  002EC1  0A                 	db	10
   102  002EC2  00                 	db	0
   103                           
   104                           	psect	idataBANK1
   105  002704                     __pidataBANK1:
   106                           	callstack 0
   107                           
   108                           ;initializer for _MsgCritical_3
   109  002704  43                 	db	67
   110  002705  52                 	db	82
   111  002706  49                 	db	73
   112  002707  54                 	db	84
   113  002708  49                 	db	73
   114  002709  43                 	db	67
   115  00270A  41                 	db	65
   116  00270B  4C                 	db	76
   117  00270C  20                 	db	32
   118  00270D  3A                 	db	58
   119  00270E  20                 	db	32
   120  00270F  42                 	db	66
   121  002710  41                 	db	65
   122  002711  47                 	db	71
   123  002712  20                 	db	32
   124  002713  42                 	db	66
   125  002714  41                 	db	65
   126  002715  47                 	db	71
   127  002716  5F                 	db	95
   128  002717  53                 	db	83
   129  002718  54                 	db	84
   130  002719  41                 	db	65
   131  00271A  54                 	db	84
   132  00271B  45                 	db	69
   133  00271C  5F                 	db	95
   134  00271D  49                 	db	73
   135  00271E  4E                 	db	78
   136  00271F  5F                 	db	95
   137  002720  50                 	db	80
   138  002721  4C                 	db	76
   139  002722  41                 	db	65
   140  002723  43                 	db	67
   141  002724  45                 	db	69
   142  002725  00                 	db	0
   143                           
   144                           ;initializer for _MsgCritical_1
   145  002726  43                 	db	67
   146  002727  52                 	db	82
   147  002728  49                 	db	73
   148  002729  54                 	db	84
   149  00272A  49                 	db	73
   150  00272B  43                 	db	67
   151  00272C  41                 	db	65
   152  00272D  4C                 	db	76
   153  00272E  20                 	db	32
   154  00272F  3A                 	db	58
   155  002730  20                 	db	32
   156  002731  42                 	db	66
   157  002732  41                 	db	65
   158  002733  47                 	db	71
   159  002734  20                 	db	32
   160  002735  42                 	db	66
   161  002736  41                 	db	65
   162  002737  47                 	db	71
   163  002738  5F                 	db	95
   164  002739  53                 	db	83
   165  00273A  54                 	db	84
   166  00273B  41                 	db	65
   167  00273C  54                 	db	84
   168  00273D  45                 	db	69
   169  00273E  5F                 	db	95
   170  00273F  50                 	db	80
   171  002740  55                 	db	85
   172  002741  54                 	db	84
   173  002742  54                 	db	84
   174  002743  49                 	db	73
   175  002744  4E                 	db	78
   176  002745  47                 	db	71
   177  002746  00                 	db	0
   178                           
   179                           ;initializer for _MsgCritical_0
   180  002747  43                 	db	67
   181  002748  52                 	db	82
   182  002749  49                 	db	73
   183  00274A  54                 	db	84
   184  00274B  49                 	db	73
   185  00274C  43                 	db	67
   186  00274D  41                 	db	65
   187  00274E  4C                 	db	76
   188  00274F  20                 	db	32
   189  002750  3A                 	db	58
   190  002751  20                 	db	32
   191  002752  42                 	db	66
   192  002753  41                 	db	65
   193  002754  47                 	db	71
   194  002755  20                 	db	32
   195  002756  42                 	db	66
   196  002757  41                 	db	65
   197  002758  47                 	db	71
   198  002759  5F                 	db	95
   199  00275A  53                 	db	83
   200  00275B  54                 	db	84
   201  00275C  41                 	db	65
   202  00275D  54                 	db	84
   203  00275E  45                 	db	69
   204  00275F  5F                 	db	95
   205  002760  52                 	db	82
   206  002761  45                 	db	69
   207  002762  4D                 	db	77
   208  002763  4F                 	db	79
   209  002764  56                 	db	86
   210  002765  45                 	db	69
   211  002766  44                 	db	68
   212  002767  00                 	db	0
   213                           
   214                           ;initializer for _MsgCritical_2
   215  002768  43                 	db	67
   216  002769  52                 	db	82
   217  00276A  49                 	db	73
   218  00276B  54                 	db	84
   219  00276C  49                 	db	73
   220  00276D  43                 	db	67
   221  00276E  41                 	db	65
   222  00276F  4C                 	db	76
   223  002770  20                 	db	32
   224  002771  3A                 	db	58
   225  002772  20                 	db	32
   226  002773  42                 	db	66
   227  002774  41                 	db	65
   228  002775  47                 	db	71
   229  002776  20                 	db	32
   230  002777  42                 	db	66
   231  002778  41                 	db	65
   232  002779  47                 	db	71
   233  00277A  5F                 	db	95
   234  00277B  53                 	db	83
   235  00277C  54                 	db	84
   236  00277D  41                 	db	65
   237  00277E  54                 	db	84
   238  00277F  45                 	db	69
   239  002780  5F                 	db	95
   240  002781  54                 	db	84
   241  002782  41                 	db	65
   242  002783  4B                 	db	75
   243  002784  49                 	db	73
   244  002785  4E                 	db	78
   245  002786  47                 	db	71
   246  002787  00                 	db	0
   247                           
   248                           ;initializer for _MsgPersonalidad2
   249  002788  6E                 	db	110
   250  002789  65                 	db	101
   251  00278A  77                 	db	119
   252  00278B  20                 	db	32
   253  00278C  62                 	db	98
   254  00278D  61                 	db	97
   255  00278E  67                 	db	103
   256  00278F  20                 	db	32
   257  002790  6D                 	db	109
   258  002791  6F                 	db	111
   259  002792  64                 	db	100
   260  002793  65                 	db	101
   261  002794  20                 	db	32
   262  002795  47                 	db	71
   263  002796  4C                 	db	76
   264  002797  4F                 	db	79
   265  002798  52                 	db	82
   266  002799  59                 	db	89
   267  00279A  20                 	db	32
   268  00279B  67                 	db	103
   269  00279C  6C                 	db	108
   270  00279D  6F                 	db	111
   271  00279E  72                 	db	114
   272  00279F  79                 	db	121
   273  0027A0  5F                 	db	95
   274  0027A1  32                 	db	50
   275  0027A2  2E                 	db	46
   276  0027A3  31                 	db	49
   277  0027A4  00                 	db	0
   278                           
   279                           ;initializer for _MsgPersonalidad1
   280  0027A5  62                 	db	98
   281  0027A6  61                 	db	97
   282  0027A7  67                 	db	103
   283  0027A8  20                 	db	32
   284  0027A9  6D                 	db	109
   285  0027AA  6F                 	db	111
   286  0027AB  64                 	db	100
   287  0027AC  65                 	db	101
   288  0027AD  20                 	db	32
   289  0027AE  47                 	db	71
   290  0027AF  4C                 	db	76
   291  0027B0  4F                 	db	79
   292  0027B1  52                 	db	82
   293  0027B2  59                 	db	89
   294  0027B3  20                 	db	32
   295  0027B4  67                 	db	103
   296  0027B5  6C                 	db	108
   297  0027B6  6F                 	db	111
   298  0027B7  72                 	db	114
   299  0027B8  79                 	db	121
   300  0027B9  5F                 	db	95
   301  0027BA  32                 	db	50
   302  0027BB  2E                 	db	46
   303  0027BC  30                 	db	48
   304  0027BD  31                 	db	49
   305  0027BE  00                 	db	0
   306                           
   307                           ;initializer for _MsgVersion
   308  0027BF  56                 	db	86
   309  0027C0  65                 	db	101
   310  0027C1  72                 	db	114
   311  0027C2  73                 	db	115
   312  0027C3  69                 	db	105
   313  0027C4  6F                 	db	111
   314  0027C5  6E                 	db	110
   315  0027C6  20                 	db	32
   316  0027C7  3A                 	db	58
   317  0027C8  20                 	db	32
   318  0027C9  67                 	db	103
   319  0027CA  6C                 	db	108
   320  0027CB  6F                 	db	111
   321  0027CC  72                 	db	114
   322  0027CD  79                 	db	121
   323  0027CE  5F                 	db	95
   324  0027CF  32                 	db	50
   325  0027D0  2E                 	db	46
   326  0027D1  33                 	db	51
   327  0027D2  00                 	db	0
   328                           
   329                           	psect	idataBANK2
   330  002B5E                     __pidataBANK2:
   331                           	callstack 0
   332                           
   333                           ;initializer for _MsgAyuda
   334  002B5E  50                 	db	80
   335  002B5F  72                 	db	114
   336  002B60  65                 	db	101
   337  002B61  73                 	db	115
   338  002B62  73                 	db	115
   339  002B63  20                 	db	32
   340  002B64  4F                 	db	79
   341  002B65  20                 	db	32
   342  002B66  6F                 	db	111
   343  002B67  70                 	db	112
   344  002B68  65                 	db	101
   345  002B69  6E                 	db	110
   346  002B6A  20                 	db	32
   347  002B6B  2F                 	db	47
   348  002B6C  20                 	db	32
   349  002B6D  43                 	db	67
   350  002B6E  20                 	db	32
   351  002B6F  63                 	db	99
   352  002B70  6C                 	db	108
   353  002B71  6F                 	db	111
   354  002B72  73                 	db	115
   355  002B73  65                 	db	101
   356  002B74  20                 	db	32
   357  002B75  2F                 	db	47
   358  002B76  20                 	db	32
   359  002B77  53                 	db	83
   360  002B78  20                 	db	32
   361  002B79  73                 	db	115
   362  002B7A  74                 	db	116
   363  002B7B  61                 	db	97
   364  002B7C  74                 	db	116
   365  002B7D  75                 	db	117
   366  002B7E  73                 	db	115
   367  002B7F  20                 	db	32
   368  002B80  2F                 	db	47
   369  002B81  20                 	db	32
   370  002B82  55                 	db	85
   371  002B83  20                 	db	32
   372  002B84  55                 	db	85
   373  002B85  6E                 	db	110
   374  002B86  4C                 	db	76
   375  002B87  6F                 	db	111
   376  002B88  63                 	db	99
   377  002B89  6B                 	db	107
   378  002B8A  20                 	db	32
   379  002B8B  64                 	db	100
   380  002B8C  6F                 	db	111
   381  002B8D  6F                 	db	111
   382  002B8E  72                 	db	114
   383  002B8F  20                 	db	32
   384  002B90  2F                 	db	47
   385  002B91  20                 	db	32
   386  002B92  45                 	db	69
   387  002B93  20                 	db	32
   388  002B94  63                 	db	99
   389  002B95  6C                 	db	108
   390  002B96  65                 	db	101
   391  002B97  61                 	db	97
   392  002B98  72                 	db	114
   393  002B99  20                 	db	32
   394  002B9A  65                 	db	101
   395  002B9B  72                 	db	114
   396  002B9C  72                 	db	114
   397  002B9D  6F                 	db	111
   398  002B9E  72                 	db	114
   399  002B9F  73                 	db	115
   400  002BA0  20                 	db	32
   401  002BA1  2F                 	db	47
   402  002BA2  20                 	db	32
   403  002BA3  42                 	db	66
   404  002BA4  20                 	db	32
   405  002BA5  70                 	db	112
   406  002BA6  72                 	db	114
   407  002BA7  69                 	db	105
   408  002BA8  6E                 	db	110
   409  002BA9  74                 	db	116
   410  002BAA  20                 	db	32
   411  002BAB  62                 	db	98
   412  002BAC  61                 	db	97
   413  002BAD  67                 	db	103
   414  002BAE  20                 	db	32
   415  002BAF  6D                 	db	109
   416  002BB0  6F                 	db	111
   417  002BB1  64                 	db	100
   418  002BB2  65                 	db	101
   419  002BB3  20                 	db	32
   420  002BB4  2F                 	db	47
   421  002BB5  20                 	db	32
   422  002BB6  56                 	db	86
   423  002BB7  20                 	db	32
   424  002BB8  76                 	db	118
   425  002BB9  65                 	db	101
   426  002BBA  72                 	db	114
   427  002BBB  73                 	db	115
   428  002BBC  69                 	db	105
   429  002BBD  6F                 	db	111
   430  002BBE  6E                 	db	110
   431  002BBF  20                 	db	32
   432  002BC0  2F                 	db	47
   433  002BC1  20                 	db	32
   434  002BC2  48                 	db	72
   435  002BC3  20                 	db	32
   436  002BC4  68                 	db	104
   437  002BC5  65                 	db	101
   438  002BC6  6C                 	db	108
   439  002BC7  70                 	db	112
   440  002BC8  00                 	db	0
   441                           
   442                           	psect	nvBANK0
   443  0000F2                     __pnvBANK0:
   444                           	callstack 0
   445  0000F2                     _J13:
   446                           	callstack 0
   447  0000F2                     	ds	2
   448  0000F4                     _J8:
   449                           	callstack 0
   450  0000F4                     	ds	2
   451  0000F6                     _J6:
   452                           	callstack 0
   453  0000F6                     	ds	2
   454  0000F8                     _ValorBag:
   455                           	callstack 0
   456  0000F8                     	ds	2
   457                           
   458                           	psect	nvBANK1
   459  0001EF                     __pnvBANK1:
   460                           	callstack 0
   461  0001EF                     _StartUp:
   462                           	callstack 0
   463  0001EF                     	ds	2
   464  0001F1                     _J9:
   465                           	callstack 0
   466  0001F1                     	ds	2
   467  0001F3                     _J7:
   468                           	callstack 0
   469  0001F3                     	ds	2
   470  0001F5                     _J5:
   471                           	callstack 0
   472  0001F5                     	ds	2
   473  0001F7                     _J4:
   474                           	callstack 0
   475  0001F7                     	ds	2
   476  0001F9                     _J3:
   477                           	callstack 0
   478  0001F9                     	ds	2
   479  0001FB                     _J2:
   480                           	callstack 0
   481  0001FB                     	ds	2
   482  0001FD                     _J1:
   483                           	callstack 0
   484  0001FD                     	ds	2
   485                           
   486                           	psect	nvBANK2
   487  00026B                     __pnvBANK2:
   488                           	callstack 0
   489  00026B                     _J14:
   490                           	callstack 0
   491  00026B                     	ds	2
   492  00026D                     _J12:
   493                           	callstack 0
   494  00026D                     	ds	2
   495  00026F                     _J11:
   496                           	callstack 0
   497  00026F                     	ds	2
   498  000271                     _J10:
   499                           	callstack 0
   500  000271                     	ds	2
   501  0000                     _TXREG	set	4013
   502  0000                     _RCREG	set	4014
   503  0000                     _PIE1bits	set	3997
   504  0000                     _PIR1bits	set	3998
   505  0000                     _RCSTA	set	4011
   506  0000                     _TXSTA	set	4012
   507  0000                     _SPBRG	set	4015
   508  0000                     _PORTBbits	set	3969
   509  0000                     _PORTDbits	set	3971
   510  0000                     _PR2	set	4043
   511  0000                     _T2CON	set	4042
   512  0000                     _TMR1L	set	4046
   513  0000                     _TMR1H	set	4047
   514  0000                     _T1CON	set	4045
   515  0000                     _TMR0L	set	4054
   516  0000                     _TMR0H	set	4055
   517  0000                     _T0CON	set	4053
   518  0000                     _TRISE	set	3990
   519  0000                     _TRISD	set	3989
   520  0000                     _TRISC	set	3988
   521  0000                     _TRISB	set	3987
   522  0000                     _TRISA	set	3986
   523  0000                     _ADCON1	set	4033
   524  0000                     _OSCCON	set	4051
   525  0000                     _TXIF	set	31988
   526  0000                     _LATA3	set	31819
   527  0000                     _LATA4	set	31820
   528  0000                     _RCIF	set	31989
   529  0000                     _LATE1	set	31849
   530  0000                     _LATE2	set	31850
   531  0000                     _TMR2IE	set	31977
   532  0000                     _TMR2IF	set	31985
   533  0000                     _LATA0	set	31816
   534  0000                     _LATA1	set	31817
   535  0000                     _TMR1IE	set	31976
   536  0000                     _TMR1IF	set	31984
   537  0000                     _LATA5	set	31821
   538  0000                     _LATE0	set	31848
   539  0000                     _RCIE	set	31981
   540  0000                     _PEIE	set	32662
   541  0000                     _GIE	set	32663
   542  0000                     _LATC2	set	31834
   543  0000                     _LATC1	set	31833
   544  0000                     _LATA2	set	31818
   545  0000                     _TMR0IE	set	32661
   546  0000                     _TMR0IF	set	32658
   547                           
   548                           	psect	mediumconst
   549  007E3A                     __pmediumconst:
   550                           	callstack 0
   551  007E3A  00                 	db	0
   552  007E3B                     STR_23:
   553  007E3B  43                 	db	67	;'C'
   554  007E3C  52                 	db	82	;'R'
   555  007E3D  49                 	db	73	;'I'
   556  007E3E  54                 	db	84	;'T'
   557  007E3F  49                 	db	73	;'I'
   558  007E40  43                 	db	67	;'C'
   559  007E41  41                 	db	65	;'A'
   560  007E42  4C                 	db	76	;'L'
   561  007E43  20                 	db	32
   562  007E44  3A                 	db	58	;':'
   563  007E45  20                 	db	32
   564  007E46  42                 	db	66	;'B'
   565  007E47  41                 	db	65	;'A'
   566  007E48  47                 	db	71	;'G'
   567  007E49  20                 	db	32
   568  007E4A  49                 	db	73	;'I'
   569  007E4B  53                 	db	83	;'S'
   570  007E4C  20                 	db	32
   571  007E4D  4E                 	db	78	;'N'
   572  007E4E  4F                 	db	79	;'O'
   573  007E4F  54                 	db	84	;'T'
   574  007E50  20                 	db	32
   575  007E51  49                 	db	73	;'I'
   576  007E52  4E                 	db	78	;'N'
   577  007E53  20                 	db	32
   578  007E54  50                 	db	80	;'P'
   579  007E55  4C                 	db	76	;'L'
   580  007E56  41                 	db	65	;'A'
   581  007E57  43                 	db	67	;'C'
   582  007E58  45                 	db	69	;'E'
   583  007E59  20                 	db	32
   584  007E5A  43                 	db	67	;'C'
   585  007E5B  41                 	db	65	;'A'
   586  007E5C  4E                 	db	78	;'N'
   587  007E5D  27                 	db	39
   588  007E5E  54                 	db	84	;'T'
   589  007E5F  20                 	db	32
   590  007E60  41                 	db	65	;'A'
   591  007E61  50                 	db	80	;'P'
   592  007E62  52                 	db	82	;'R'
   593  007E63  4F                 	db	79	;'O'
   594  007E64  56                 	db	86	;'V'
   595  007E65  45                 	db	69	;'E'
   596  007E66  00                 	db	0
   597  007E67                     STR_32:
   598  007E67  43                 	db	67	;'C'
   599  007E68  52                 	db	82	;'R'
   600  007E69  49                 	db	73	;'I'
   601  007E6A  54                 	db	84	;'T'
   602  007E6B  49                 	db	73	;'I'
   603  007E6C  43                 	db	67	;'C'
   604  007E6D  41                 	db	65	;'A'
   605  007E6E  4C                 	db	76	;'L'
   606  007E6F  3A                 	db	58	;':'
   607  007E70  20                 	db	32
   608  007E71  74                 	db	116	;'t'
   609  007E72  69                 	db	105	;'i'
   610  007E73  6D                 	db	109	;'m'
   611  007E74  65                 	db	101	;'e'
   612  007E75  6F                 	db	111	;'o'
   613  007E76  75                 	db	117	;'u'
   614  007E77  74                 	db	116	;'t'
   615  007E78  20                 	db	32
   616  007E79  77                 	db	119	;'w'
   617  007E7A  61                 	db	97	;'a'
   618  007E7B  69                 	db	105	;'i'
   619  007E7C  74                 	db	116	;'t'
   620  007E7D  69                 	db	105	;'i'
   621  007E7E  6E                 	db	110	;'n'
   622  007E7F  67                 	db	103	;'g'
   623  007E80  20                 	db	32
   624  007E81  66                 	db	102	;'f'
   625  007E82  6F                 	db	111	;'o'
   626  007E83  72                 	db	114	;'r'
   627  007E84  20                 	db	32
   628  007E85  64                 	db	100	;'d'
   629  007E86  6F                 	db	111	;'o'
   630  007E87  6F                 	db	111	;'o'
   631  007E88  72                 	db	114	;'r'
   632  007E89  2C                 	db	44
   633  007E8A  20                 	db	32
   634  007E8B  6C                 	db	108	;'l'
   635  007E8C  6F                 	db	111	;'o'
   636  007E8D  63                 	db	99	;'c'
   637  007E8E  6B                 	db	107	;'k'
   638  007E8F  65                 	db	101	;'e'
   639  007E90  64                 	db	100	;'d'
   640  007E91  00                 	db	0
   641  007E92                     STR_4:
   642  007E92  2A                 	db	42
   643  007E93  2A                 	db	42
   644  007E94  2A                 	db	42
   645  007E95  2A                 	db	42
   646  007E96  2A                 	db	42
   647  007E97  2A                 	db	42
   648  007E98  2A                 	db	42
   649  007E99  2A                 	db	42
   650  007E9A  2A                 	db	42
   651  007E9B  2A                 	db	42
   652  007E9C  2A                 	db	42
   653  007E9D  2A                 	db	42
   654  007E9E  2A                 	db	42
   655  007E9F  2A                 	db	42
   656  007EA0  2A                 	db	42
   657  007EA1  2A                 	db	42
   658  007EA2  2A                 	db	42
   659  007EA3  2A                 	db	42
   660  007EA4  2A                 	db	42
   661  007EA5  2A                 	db	42
   662  007EA6  2A                 	db	42
   663  007EA7  2A                 	db	42
   664  007EA8  2A                 	db	42
   665  007EA9  2A                 	db	42
   666  007EAA  2A                 	db	42
   667  007EAB  2A                 	db	42
   668  007EAC  2A                 	db	42
   669  007EAD  2A                 	db	42
   670  007EAE  2A                 	db	42
   671  007EAF  2A                 	db	42
   672  007EB0  2A                 	db	42
   673  007EB1  2A                 	db	42
   674  007EB2  00                 	db	0
   675  007EB3                     STR_12:
   676  007EB3  57                 	db	87	;'W'
   677  007EB4  41                 	db	65	;'A'
   678  007EB5  52                 	db	82	;'R'
   679  007EB6  4E                 	db	78	;'N'
   680  007EB7  49                 	db	73	;'I'
   681  007EB8  4E                 	db	78	;'N'
   682  007EB9  47                 	db	71	;'G'
   683  007EBA  20                 	db	32
   684  007EBB  43                 	db	67	;'C'
   685  007EBC  4C                 	db	76	;'L'
   686  007EBD  4F                 	db	79	;'O'
   687  007EBE  53                 	db	83	;'S'
   688  007EBF  45                 	db	69	;'E'
   689  007EC0  20                 	db	32
   690  007EC1  53                 	db	83	;'S'
   691  007EC2  45                 	db	69	;'E'
   692  007EC3  4E                 	db	78	;'N'
   693  007EC4  53                 	db	83	;'S'
   694  007EC5  4F                 	db	79	;'O'
   695  007EC6  52                 	db	82	;'R'
   696  007EC7  20                 	db	32
   697  007EC8  44                 	db	68	;'D'
   698  007EC9  49                 	db	73	;'I'
   699  007ECA  53                 	db	83	;'S'
   700  007ECB  41                 	db	65	;'A'
   701  007ECC  42                 	db	66	;'B'
   702  007ECD  4C                 	db	76	;'L'
   703  007ECE  45                 	db	69	;'E'
   704  007ECF  44                 	db	68	;'D'
   705  007ED0  00                 	db	0
   706  007ED1                     STR_20:
   707  007ED1  57                 	db	87	;'W'
   708  007ED2  41                 	db	65	;'A'
   709  007ED3  52                 	db	82	;'R'
   710  007ED4  4E                 	db	78	;'N'
   711  007ED5  49                 	db	73	;'I'
   712  007ED6  4E                 	db	78	;'N'
   713  007ED7  47                 	db	71	;'G'
   714  007ED8  20                 	db	32
   715  007ED9  4F                 	db	79	;'O'
   716  007EDA  50                 	db	80	;'P'
   717  007EDB  45                 	db	69	;'E'
   718  007EDC  4E                 	db	78	;'N'
   719  007EDD  20                 	db	32
   720  007EDE  53                 	db	83	;'S'
   721  007EDF  45                 	db	69	;'E'
   722  007EE0  4E                 	db	78	;'N'
   723  007EE1  53                 	db	83	;'S'
   724  007EE2  4F                 	db	79	;'O'
   725  007EE3  52                 	db	82	;'R'
   726  007EE4  20                 	db	32
   727  007EE5  44                 	db	68	;'D'
   728  007EE6  49                 	db	73	;'I'
   729  007EE7  53                 	db	83	;'S'
   730  007EE8  41                 	db	65	;'A'
   731  007EE9  42                 	db	66	;'B'
   732  007EEA  4C                 	db	76	;'L'
   733  007EEB  45                 	db	69	;'E'
   734  007EEC  44                 	db	68	;'D'
   735  007EED  00                 	db	0
   736  007EEE                     STR_21:
   737  007EEE  43                 	db	67	;'C'
   738  007EEF  52                 	db	82	;'R'
   739  007EF0  49                 	db	73	;'I'
   740  007EF1  54                 	db	84	;'T'
   741  007EF2  49                 	db	73	;'I'
   742  007EF3  43                 	db	67	;'C'
   743  007EF4  41                 	db	65	;'A'
   744  007EF5  4C                 	db	76	;'L'
   745  007EF6  3A                 	db	58	;':'
   746  007EF7  20                 	db	32
   747  007EF8  64                 	db	100	;'d'
   748  007EF9  6F                 	db	111	;'o'
   749  007EFA  6F                 	db	111	;'o'
   750  007EFB  72                 	db	114	;'r'
   751  007EFC  20                 	db	32
   752  007EFD  75                 	db	117	;'u'
   753  007EFE  6E                 	db	110	;'n'
   754  007EFF  6C                 	db	108	;'l'
   755  007F00  6F                 	db	111	;'o'
   756  007F01  63                 	db	99	;'c'
   757  007F02  6B                 	db	107	;'k'
   758  007F03  65                 	db	101	;'e'
   759  007F04  64                 	db	100	;'d'
   760  007F05  00                 	db	0
   761  007F06                     STR_14:
   762  007F06  43                 	db	67	;'C'
   763  007F07  52                 	db	82	;'R'
   764  007F08  49                 	db	73	;'I'
   765  007F09  54                 	db	84	;'T'
   766  007F0A  49                 	db	73	;'I'
   767  007F0B  43                 	db	67	;'C'
   768  007F0C  41                 	db	65	;'A'
   769  007F0D  4C                 	db	76	;'L'
   770  007F0E  3A                 	db	58	;':'
   771  007F0F  20                 	db	32
   772  007F10  64                 	db	100	;'d'
   773  007F11  6F                 	db	111	;'o'
   774  007F12  6F                 	db	111	;'o'
   775  007F13  72                 	db	114	;'r'
   776  007F14  20                 	db	32
   777  007F15  6C                 	db	108	;'l'
   778  007F16  6F                 	db	111	;'o'
   779  007F17  63                 	db	99	;'c'
   780  007F18  6B                 	db	107	;'k'
   781  007F19  65                 	db	101	;'e'
   782  007F1A  64                 	db	100	;'d'
   783  007F1B  00                 	db	0
   784  007F1C                     STR_15:
   785  007F1C  43                 	db	67	;'C'
   786  007F1D  52                 	db	82	;'R'
   787  007F1E  49                 	db	73	;'I'
   788  007F1F  54                 	db	84	;'T'
   789  007F20  49                 	db	73	;'I'
   790  007F21  43                 	db	67	;'C'
   791  007F22  41                 	db	65	;'A'
   792  007F23  4C                 	db	76	;'L'
   793  007F24  3A                 	db	58	;':'
   794  007F25  20                 	db	32
   795  007F26  64                 	db	100	;'d'
   796  007F27  6F                 	db	111	;'o'
   797  007F28  6F                 	db	111	;'o'
   798  007F29  72                 	db	114	;'r'
   799  007F2A  20                 	db	32
   800  007F2B  63                 	db	99	;'c'
   801  007F2C  6C                 	db	108	;'l'
   802  007F2D  6F                 	db	111	;'o'
   803  007F2E  73                 	db	115	;'s'
   804  007F2F  65                 	db	101	;'e'
   805  007F30  64                 	db	100	;'d'
   806  007F31  00                 	db	0
   807  007F32                     STR_3:
   808  007F32  20                 	db	32
   809  007F33  20                 	db	32
   810  007F34  20                 	db	32
   811  007F35  49                 	db	73	;'I'
   812  007F36  4F                 	db	79	;'O'
   813  007F37  42                 	db	66	;'B'
   814  007F38  4F                 	db	79	;'O'
   815  007F39  41                 	db	65	;'A'
   816  007F3A  52                 	db	82	;'R'
   817  007F3B  44                 	db	68	;'D'
   818  007F3C  20                 	db	32
   819  007F3D  53                 	db	83	;'S'
   820  007F3E  43                 	db	67	;'C'
   821  007F3F  52                 	db	82	;'R'
   822  007F40  45                 	db	69	;'E'
   823  007F41  57                 	db	87	;'W'
   824  007F42  20                 	db	32
   825  007F43  21                 	db	33
   826  007F44  21                 	db	33
   827  007F45  21                 	db	33
   828  007F46  00                 	db	0
   829  007F47                     STR_5:
   830  007F47  20                 	db	32
   831  007F48  20                 	db	32
   832  007F49  2D                 	db	45
   833  007F4A  42                 	db	66	;'B'
   834  007F4B  79                 	db	121	;'y'
   835  007F4C  20                 	db	32
   836  007F4D  50                 	db	80	;'P'
   837  007F4E  45                 	db	69	;'E'
   838  007F4F  52                 	db	82	;'R'
   839  007F50  4D                 	db	77	;'M'
   840  007F51  41                 	db	65	;'A'
   841  007F52  51                 	db	81	;'Q'
   842  007F53  55                 	db	85	;'U'
   843  007F54  49                 	db	73	;'I'
   844  007F55  4D                 	db	77	;'M'
   845  007F56  20                 	db	32
   846  007F57  53                 	db	83	;'S'
   847  007F58  50                 	db	80	;'P'
   848  007F59  41                 	db	65	;'A'
   849  007F5A  00                 	db	0
   850  007F5B                     STR_7:
   851  007F5B  20                 	db	32
   852  007F5C  20                 	db	32
   853  007F5D  2D                 	db	45
   854  007F5E  46                 	db	70	;'F'
   855  007F5F  6F                 	db	111	;'o'
   856  007F60  72                 	db	114	;'r'
   857  007F61  20                 	db	32
   858  007F62  42                 	db	66	;'B'
   859  007F63  52                 	db	82	;'R'
   860  007F64  49                 	db	73	;'I'
   861  007F65  4E                 	db	78	;'N'
   862  007F66  4B                 	db	75	;'K'
   863  007F67  53                 	db	83	;'S'
   864  007F68  20                 	db	32
   865  007F69  43                 	db	67	;'C'
   866  007F6A  48                 	db	72	;'H'
   867  007F6B  49                 	db	73	;'I'
   868  007F6C  4C                 	db	76	;'L'
   869  007F6D  45                 	db	69	;'E'
   870  007F6E  00                 	db	0
   871  007F6F  57                 	db	87	;'W'
   872  007F70  41                 	db	65	;'A'
   873  007F71  52                 	db	82	;'R'
   874  007F72  4E                 	db	78	;'N'
   875  007F73  49                 	db	73	;'I'
   876  007F74  4E                 	db	78	;'N'
   877  007F75  47                 	db	71	;'G'
   878  007F76  20                 	db	32
   879  007F77  3A                 	db	58	;':'
   880  007F78  20                 	db	32
   881  007F79  42                 	db	66	;'B'
   882  007F7A  41                 	db	65	;'A'
   883  007F7B  47                 	db	71	;'G'
   884  007F7C  20                 	db	32
   885  007F7D  49                 	db	73	;'I'
   886  007F7E  4E                 	db	78	;'N'
   887  007F7F  20                 	db	32
   888  007F80  49                 	db	73	;'I'
   889  007F81  54                 	db	84	;'T'
   890  007F82  00                 	db	0
   891  007F83                     STR_13:
   892  007F83  43                 	db	67	;'C'
   893  007F84  52                 	db	82	;'R'
   894  007F85  49                 	db	73	;'I'
   895  007F86  54                 	db	84	;'T'
   896  007F87  49                 	db	73	;'I'
   897  007F88  43                 	db	67	;'C'
   898  007F89  41                 	db	65	;'A'
   899  007F8A  4C                 	db	76	;'L'
   900  007F8B  3A                 	db	58	;':'
   901  007F8C  20                 	db	32
   902  007F8D  64                 	db	100	;'d'
   903  007F8E  6F                 	db	111	;'o'
   904  007F8F  6F                 	db	111	;'o'
   905  007F90  72                 	db	114	;'r'
   906  007F91  20                 	db	32
   907  007F92  6F                 	db	111	;'o'
   908  007F93  70                 	db	112	;'p'
   909  007F94  65                 	db	101	;'e'
   910  007F95  6E                 	db	110	;'n'
   911  007F96  00                 	db	0
   912  007F97                     STR_9:
   913  007F97  20                 	db	32
   914  007F98  20                 	db	32
   915  007F99  20                 	db	32
   916  007F9A  2D                 	db	45
   917  007F9B  56                 	db	86	;'V'
   918  007F9C  65                 	db	101	;'e'
   919  007F9D  72                 	db	114	;'r'
   920  007F9E  73                 	db	115	;'s'
   921  007F9F  69                 	db	105	;'i'
   922  007FA0  6F                 	db	111	;'o'
   923  007FA1  6E                 	db	110	;'n'
   924  007FA2  3A                 	db	58	;':'
   925  007FA3  20                 	db	32
   926  007FA4  32                 	db	50	;'2'
   927  007FA5  2E                 	db	46
   928  007FA6  33                 	db	51	;'3'
   929  007FA7  2E                 	db	46
   930  007FA8  31                 	db	49	;'1'
   931  007FA9  00                 	db	0
   932  007FAA                     STR_24:
   933  007FAA  53                 	db	83	;'S'
   934  007FAB  54                 	db	84	;'T'
   935  007FAC  41                 	db	65	;'A'
   936  007FAD  54                 	db	84	;'T'
   937  007FAE  45                 	db	69	;'E'
   938  007FAF  20                 	db	32
   939  007FB0  3A                 	db	58	;':'
   940  007FB1  20                 	db	32
   941  007FB2  42                 	db	66	;'B'
   942  007FB3  41                 	db	65	;'A'
   943  007FB4  47                 	db	71	;'G'
   944  007FB5  20                 	db	32
   945  007FB6  00                 	db	0
   946  007FB7                     STR_11:
   947  007FB7  53                 	db	83	;'S'
   948  007FB8  54                 	db	84	;'T'
   949  007FB9  41                 	db	65	;'A'
   950  007FBA  52                 	db	82	;'R'
   951  007FBB  54                 	db	84	;'T'
   952  007FBC  20                 	db	32
   953  007FBD  43                 	db	67	;'C'
   954  007FBE  4C                 	db	76	;'L'
   955  007FBF  4F                 	db	79	;'O'
   956  007FC0  53                 	db	83	;'S'
   957  007FC1  45                 	db	69	;'E'
   958  007FC2  00                 	db	0
   959  007FC3                     STR_19:
   960  007FC3  53                 	db	83	;'S'
   961  007FC4  54                 	db	84	;'T'
   962  007FC5  41                 	db	65	;'A'
   963  007FC6  52                 	db	82	;'R'
   964  007FC7  54                 	db	84	;'T'
   965  007FC8  20                 	db	32
   966  007FC9  4F                 	db	79	;'O'
   967  007FCA  50                 	db	80	;'P'
   968  007FCB  45                 	db	69	;'E'
   969  007FCC  4E                 	db	78	;'N'
   970  007FCD  00                 	db	0
   971  007FCE                     STR_26:
   972  007FCE  20                 	db	32
   973  007FCF  53                 	db	83	;'S'
   974  007FD0  48                 	db	72	;'H'
   975  007FD1  55                 	db	85	;'U'
   976  007FD2  54                 	db	84	;'T'
   977  007FD3  54                 	db	84	;'T'
   978  007FD4  45                 	db	69	;'E'
   979  007FD5  52                 	db	82	;'R'
   980  007FD6  20                 	db	32
   981  007FD7  00                 	db	0
   982  007FD8                     STR_30:
   983  007FD8  20                 	db	32
   984  007FD9  47                 	db	71	;'G'
   985  007FDA  41                 	db	65	;'A'
   986  007FDB  54                 	db	84	;'T'
   987  007FDC  45                 	db	69	;'E'
   988  007FDD  20                 	db	32
   989  007FDE  00                 	db	0
   990  007FDF                     STR_28:
   991  007FDF  20                 	db	32
   992  007FE0  4C                 	db	76	;'L'
   993  007FE1  4F                 	db	79	;'O'
   994  007FE2  43                 	db	67	;'C'
   995  007FE3  4B                 	db	75	;'K'
   996  007FE4  20                 	db	32
   997  007FE5  00                 	db	0
   998  007FE6                     STR_33:
   999  007FE6  43                 	db	67	;'C'
  1000  007FE7  4C                 	db	76	;'L'
  1001  007FE8  4F                 	db	79	;'O'
  1002  007FE9  53                 	db	83	;'S'
  1003  007FEA  45                 	db	69	;'E'
  1004  007FEB  44                 	db	68	;'D'
  1005  007FEC  00                 	db	0
  1006  007FED                     STR_27:
  1007  007FED  25                 	db	37
  1008  007FEE  30                 	db	48	;'0'
  1009  007FEF  32                 	db	50	;'2'
  1010  007FF0  58                 	db	88	;'X'
  1011  007FF1  00                 	db	0
  1012  007FF2                     STR_29:
  1013  007FF2  25                 	db	37
  1014  007FF3  30                 	db	48	;'0'
  1015  007FF4  31                 	db	49	;'1'
  1016  007FF5  75                 	db	117	;'u'
  1017  007FF6  00                 	db	0
  1018  007FF7                     STR_25:
  1019  007FF7  25                 	db	37
  1020  007FF8  30                 	db	48	;'0'
  1021  007FF9  32                 	db	50	;'2'
  1022  007FFA  75                 	db	117	;'u'
  1023  007FFB  00                 	db	0
  1024  007FFC                     STR_1:
  1025  007FFC  2E                 	db	46
  1026  007FFD  00                 	db	0
  1027  007FFE  00                 	db	0	; dummy byte at the end
  1028  0000                     
  1029                           ; #config settings
  1030                           
  1031                           	psect	cinit
  1032  0029FA                     __pcinit:
  1033                           	callstack 0
  1034  0029FA                     start_initialization:
  1035                           	callstack 0
  1036  0029FA                     __initialization:
  1037                           	callstack 0
  1038                           
  1039                           ; Initialize objects allocated to BANK2 (107 bytes)
  1040                           ; load TBLPTR registers with __pidataBANK2
  1041  0029FA  0E5E               	movlw	low __pidataBANK2
  1042  0029FC  6EF6               	movwf	tblptrl,c
  1043  0029FE  0E2B               	movlw	high __pidataBANK2
  1044  002A00  6EF7               	movwf	tblptrh,c
  1045  002A02  0E00               	movlw	low (__pidataBANK2 shr (0+16))
  1046  002A04  6EF8               	movwf	tblptru,c
  1047  002A06  EE02  F000         	lfsr	0,__pdataBANK2
  1048  002A0A  EE10 F06B          	lfsr	1,107
  1049  002A0E                     copy_data0:
  1050  002A0E  0009               	tblrd		*+
  1051  002A10  CFF5 FFEE          	movff	tablat,postinc0
  1052  002A14  50E5               	movf	postdec1,w,c
  1053  002A16  50E1               	movf	fsr1l,w,c
  1054  002A18  E1FA               	bnz	copy_data0
  1055                           
  1056                           ; Initialize objects allocated to BANK1 (207 bytes)
  1057                           ; load TBLPTR registers with __pidataBANK1
  1058  002A1A  0E04               	movlw	low __pidataBANK1
  1059  002A1C  6EF6               	movwf	tblptrl,c
  1060  002A1E  0E27               	movlw	high __pidataBANK1
  1061  002A20  6EF7               	movwf	tblptrh,c
  1062  002A22  0E00               	movlw	low (__pidataBANK1 shr (0+16))
  1063  002A24  6EF8               	movwf	tblptru,c
  1064  002A26  EE01  F000         	lfsr	0,__pdataBANK1
  1065  002A2A  EE10 F0CF          	lfsr	1,207
  1066  002A2E                     copy_data1:
  1067  002A2E  0009               	tblrd		*+
  1068  002A30  CFF5 FFEE          	movff	tablat,postinc0
  1069  002A34  50E5               	movf	postdec1,w,c
  1070  002A36  50E1               	movf	fsr1l,w,c
  1071  002A38  E1FA               	bnz	copy_data1
  1072                           
  1073                           ; Initialize objects allocated to BANK0 (5 bytes)
  1074                           ; load TBLPTR registers with __pidataBANK0
  1075  002A3A  0EBE               	movlw	low __pidataBANK0
  1076  002A3C  6EF6               	movwf	tblptrl,c
  1077  002A3E  0E2E               	movlw	high __pidataBANK0
  1078  002A40  6EF7               	movwf	tblptrh,c
  1079  002A42  0E00               	movlw	low (__pidataBANK0 shr (0+16))
  1080  002A44  6EF8               	movwf	tblptru,c
  1081  002A46  EE00  F0FA         	lfsr	0,__pdataBANK0
  1082  002A4A  EE10 F005          	lfsr	1,5
  1083  002A4E                     copy_data2:
  1084  002A4E  0009               	tblrd		*+
  1085  002A50  CFF5 FFEE          	movff	tablat,postinc0
  1086  002A54  50E5               	movf	postdec1,w,c
  1087  002A56  50E1               	movf	fsr1l,w,c
  1088  002A58  E1FA               	bnz	copy_data2
  1089                           
  1090                           ; Clear objects allocated to BANK1 (32 bytes)
  1091  002A5A  EE01  F0CF         	lfsr	0,__pbssBANK1
  1092  002A5E  0E20               	movlw	32
  1093  002A60                     clear_0:
  1094  002A60  6AEE               	clrf	postinc0,c
  1095  002A62  06E8               	decf	wreg,f,c
  1096  002A64  E1FD               	bnz	clear_0
  1097                           
  1098                           ; Clear objects allocated to BANK0 (45 bytes)
  1099  002A66  EE00  F0C5         	lfsr	0,__pbssBANK0
  1100  002A6A  0E2D               	movlw	45
  1101  002A6C                     clear_1:
  1102  002A6C  6AEE               	clrf	postinc0,c
  1103  002A6E  06E8               	decf	wreg,f,c
  1104  002A70  E1FD               	bnz	clear_1
  1105  002A72                     end_of_initialization:
  1106                           	callstack 0
  1107  002A72                     __end_of__initialization:
  1108                           	callstack 0
  1109  002A72  907F               	bcf	int$flags,0,c	;clear compiler interrupt flag (level 1)
  1110  002A74  927F               	bcf	int$flags,1,c	;clear compiler interrupt flag (level 2)
  1111  002A76  0E00               	movlw	low (__Lmediumconst shr (0+16))
  1112  002A78  6EF8               	movwf	tblptru,c
  1113  002A7A  0100               	movlb	0
  1114  002A7C  EF09  F000         	goto	_main	;jump to C main() function
  1115                           
  1116                           	psect	bssBANK0
  1117  0000C5                     __pbssBANK0:
  1118                           	callstack 0
  1119  0000C5                     _nout:
  1120                           	callstack 0
  1121  0000C5                     	ds	2
  1122  0000C7                     _width:
  1123                           	callstack 0
  1124  0000C7                     	ds	2
  1125  0000C9                     _prec:
  1126                           	callstack 0
  1127  0000C9                     	ds	2
  1128  0000CB                     _flags:
  1129                           	callstack 0
  1130  0000CB                     	ds	2
  1131  0000CD                     _Tiempo2:
  1132                           	callstack 0
  1133  0000CD                     	ds	2
  1134  0000CF                     _Tiempo1:
  1135                           	callstack 0
  1136  0000CF                     	ds	2
  1137  0000D1                     _Tiempo0:
  1138                           	callstack 0
  1139  0000D1                     	ds	2
  1140  0000D3                     _ModoTrabajo:
  1141                           	callstack 0
  1142  0000D3                     	ds	2
  1143  0000D5                     _TiempoPulsoBuzzer:
  1144                           	callstack 0
  1145  0000D5                     	ds	2
  1146  0000D7                     _PulsoArribaBuzzer:
  1147                           	callstack 0
  1148  0000D7                     	ds	2
  1149  0000D9                     _TiempoPulso:
  1150                           	callstack 0
  1151  0000D9                     	ds	2
  1152  0000DB                     _PulsoArriba:
  1153                           	callstack 0
  1154  0000DB                     	ds	2
  1155  0000DD                     _EstadoAprobacionBolsa:
  1156                           	callstack 0
  1157  0000DD                     	ds	2
  1158  0000DF                     _PuertaAbierta:
  1159                           	callstack 0
  1160  0000DF                     	ds	2
  1161  0000E1                     _Counter:
  1162                           	callstack 0
  1163  0000E1                     	ds	2
  1164  0000E3                     _ValorBagStatus:
  1165                           	callstack 0
  1166  0000E3                     	ds	2
  1167  0000E5                     _ValorBagSensor:
  1168                           	callstack 0
  1169  0000E5                     	ds	2
  1170  0000E7                     _ValorStateLock:
  1171                           	callstack 0
  1172  0000E7                     	ds	2
  1173  0000E9                     _ValorStateShutter:
  1174                           	callstack 0
  1175  0000E9                     	ds	2
  1176  0000EB                     _ValorStateE:
  1177                           	callstack 0
  1178  0000EB                     	ds	2
  1179  0000ED                     _txt:
  1180                           	callstack 0
  1181  0000ED                     	ds	5
  1182                           
  1183                           	psect	dataBANK0
  1184  0000FA                     __pdataBANK0:
  1185                           	callstack 0
  1186  0000FA                     _DelaySensor:
  1187                           	callstack 0
  1188  0000FA                     	ds	2
  1189  0000FC                     _CRLF:
  1190                           	callstack 0
  1191  0000FC                     	ds	3
  1192                           
  1193                           	psect	bssBANK1
  1194  0001CF                     __pbssBANK1:
  1195                           	callstack 0
  1196  0001CF                     _dbuf:
  1197                           	callstack 0
  1198  0001CF                     	ds	32
  1199                           
  1200                           	psect	dataBANK1
  1201  000100                     __pdataBANK1:
  1202                           	callstack 0
  1203  000100                     _MsgCritical_3:
  1204                           	callstack 0
  1205  000100                     	ds	34
  1206  000122                     _MsgCritical_1:
  1207                           	callstack 0
  1208  000122                     	ds	33
  1209  000143                     _MsgCritical_0:
  1210                           	callstack 0
  1211  000143                     	ds	33
  1212  000164                     _MsgCritical_2:
  1213                           	callstack 0
  1214  000164                     	ds	32
  1215  000184                     _MsgPersonalidad2:
  1216                           	callstack 0
  1217  000184                     	ds	29
  1218  0001A1                     _MsgPersonalidad1:
  1219                           	callstack 0
  1220  0001A1                     	ds	26
  1221  0001BB                     _MsgVersion:
  1222                           	callstack 0
  1223  0001BB                     	ds	20
  1224                           
  1225                           	psect	dataBANK2
  1226  000200                     __pdataBANK2:
  1227                           	callstack 0
  1228  000200                     _MsgAyuda:
  1229                           	callstack 0
  1230  000200                     	ds	107
  1231                           
  1232                           	psect	cstackBANK0
  1233  000080                     __pcstackBANK0:
  1234                           	callstack 0
  1235  000080                     ?___fltol:
  1236                           	callstack 0
  1237  000080                     ?___xxtofl:
  1238                           	callstack 0
  1239  000080                     USART_EnviaMsg@msgout:
  1240                           	callstack 0
  1241  000080                     ___fltol@f1:
  1242                           	callstack 0
  1243  000080                     ___xxtofl@val:
  1244                           	callstack 0
  1245                           
  1246                           ; 4 bytes @ 0x0
  1247  000080                     	ds	2
  1248  000082                     USART_EnviaMsg@letraout:
  1249                           	callstack 0
  1250                           
  1251                           ; 1 bytes @ 0x2
  1252  000082                     	ds	2
  1253  000084                     ??___fltol:
  1254  000084                     ??___xxtofl:
  1255                           
  1256                           ; 1 bytes @ 0x4
  1257  000084                     	ds	4
  1258  000088                     ___fltol@sign1:
  1259                           	callstack 0
  1260  000088                     ___xxtofl@sign:
  1261                           	callstack 0
  1262                           
  1263                           ; 1 bytes @ 0x8
  1264  000088                     	ds	1
  1265  000089                     ___fltol@exp1:
  1266                           	callstack 0
  1267  000089                     ___xxtofl@exp:
  1268                           	callstack 0
  1269                           
  1270                           ; 1 bytes @ 0x9
  1271  000089                     	ds	1
  1272  00008A                     ___xxtofl@arg:
  1273                           	callstack 0
  1274                           
  1275                           ; 4 bytes @ 0xA
  1276  00008A                     	ds	4
  1277  00008E                     ?___fldiv:
  1278                           	callstack 0
  1279  00008E                     ___fldiv@b:
  1280                           	callstack 0
  1281                           
  1282                           ; 4 bytes @ 0xE
  1283  00008E                     	ds	4
  1284  000092                     ___fldiv@a:
  1285                           	callstack 0
  1286                           
  1287                           ; 4 bytes @ 0x12
  1288  000092                     	ds	4
  1289  000096                     ??___fldiv:
  1290                           
  1291                           ; 1 bytes @ 0x16
  1292  000096                     	ds	4
  1293  00009A                     ___fldiv@rem:
  1294                           	callstack 0
  1295                           
  1296                           ; 4 bytes @ 0x1A
  1297  00009A                     	ds	4
  1298  00009E                     ___fldiv@sign:
  1299                           	callstack 0
  1300                           
  1301                           ; 1 bytes @ 0x1E
  1302  00009E                     	ds	1
  1303  00009F                     ___fldiv@new_exp:
  1304                           	callstack 0
  1305                           
  1306                           ; 2 bytes @ 0x1F
  1307  00009F                     	ds	2
  1308  0000A1                     ___fldiv@grs:
  1309                           	callstack 0
  1310                           
  1311                           ; 4 bytes @ 0x21
  1312  0000A1                     	ds	4
  1313  0000A5                     ___fldiv@bexp:
  1314                           	callstack 0
  1315                           
  1316                           ; 1 bytes @ 0x25
  1317  0000A5                     	ds	1
  1318  0000A6                     ___fldiv@aexp:
  1319                           	callstack 0
  1320                           
  1321                           ; 1 bytes @ 0x26
  1322  0000A6                     	ds	1
  1323  0000A7                     ?___fladd:
  1324                           	callstack 0
  1325  0000A7                     ___fladd@b:
  1326                           	callstack 0
  1327                           
  1328                           ; 4 bytes @ 0x27
  1329  0000A7                     	ds	4
  1330  0000AB                     ___fladd@a:
  1331                           	callstack 0
  1332                           
  1333                           ; 4 bytes @ 0x2B
  1334  0000AB                     	ds	4
  1335  0000AF                     ??___fladd:
  1336                           
  1337                           ; 1 bytes @ 0x2F
  1338  0000AF                     	ds	4
  1339  0000B3                     ___fladd@signs:
  1340                           	callstack 0
  1341                           
  1342                           ; 1 bytes @ 0x33
  1343  0000B3                     	ds	1
  1344  0000B4                     ___fladd@aexp:
  1345                           	callstack 0
  1346                           
  1347                           ; 1 bytes @ 0x34
  1348  0000B4                     	ds	1
  1349  0000B5                     ___fladd@bexp:
  1350                           	callstack 0
  1351                           
  1352                           ; 1 bytes @ 0x35
  1353  0000B5                     	ds	1
  1354  0000B6                     ___fladd@grs:
  1355                           	callstack 0
  1356                           
  1357                           ; 1 bytes @ 0x36
  1358  0000B6                     	ds	1
  1359  0000B7                     USART_Init@baud_rate:
  1360                           	callstack 0
  1361                           
  1362                           ; 4 bytes @ 0x37
  1363  0000B7                     	ds	4
  1364  0000BB                     USART_Init@temp:
  1365                           	callstack 0
  1366                           
  1367                           ; 4 bytes @ 0x3B
  1368  0000BB                     	ds	4
  1369  0000BF                     ??_main:
  1370                           
  1371                           ; 1 bytes @ 0x3F
  1372  0000BF                     	ds	4
  1373  0000C3                     main@i:
  1374                           	callstack 0
  1375                           
  1376                           ; 2 bytes @ 0x43
  1377  0000C3                     	ds	2
  1378                           
  1379                           	psect	cstackCOMRAM
  1380  000001                     __pcstackCOMRAM:
  1381                           	callstack 0
  1382  000001                     ?_strlen:
  1383                           	callstack 0
  1384  000001                     ?_isupper:
  1385                           	callstack 0
  1386  000001                     ?_isalpha:
  1387                           	callstack 0
  1388  000001                     ?_isdigit:
  1389                           	callstack 0
  1390  000001                     ?_isspace:
  1391                           	callstack 0
  1392  000001                     ?_islower:
  1393                           	callstack 0
  1394  000001                     ?___wmul:
  1395                           	callstack 0
  1396  000001                     ?___lodiv:
  1397                           	callstack 0
  1398  000001                     ?___lomod:
  1399                           	callstack 0
  1400  000001                     ___wmul@multiplier:
  1401                           	callstack 0
  1402  000001                     isalpha@c:
  1403                           	callstack 0
  1404  000001                     isdigit@c:
  1405                           	callstack 0
  1406  000001                     isspace@c:
  1407                           	callstack 0
  1408  000001                     isupper@c:
  1409                           	callstack 0
  1410  000001                     fputc@c:
  1411                           	callstack 0
  1412  000001                     strlen@s:
  1413                           	callstack 0
  1414  000001                     islower@c:
  1415                           	callstack 0
  1416  000001                     i2USART_EnviaMsg@msgout:
  1417                           	callstack 0
  1418  000001                     ___lodiv@dividend:
  1419                           	callstack 0
  1420  000001                     ___lomod@dividend:
  1421                           	callstack 0
  1422                           
  1423                           ; 8 bytes @ 0x0
  1424  000001                     	ds	2
  1425  000003                     ??_isupper:
  1426  000003                     ??_isalpha:
  1427  000003                     ??_isdigit:
  1428  000003                     ??_isspace:
  1429  000003                     ??_islower:
  1430  000003                     i2USART_EnviaMsg@letraout:
  1431                           	callstack 0
  1432  000003                     ___wmul@multiplicand:
  1433                           	callstack 0
  1434  000003                     fputc@fp:
  1435                           	callstack 0
  1436  000003                     strlen@a:
  1437                           	callstack 0
  1438                           
  1439                           ; 2 bytes @ 0x2
  1440  000003                     	ds	2
  1441  000005                     ??_fputc:
  1442  000005                     ___wmul@product:
  1443                           	callstack 0
  1444                           
  1445                           ; 2 bytes @ 0x4
  1446  000005                     	ds	2
  1447  000007                     ?_toupper:
  1448                           	callstack 0
  1449  000007                     _isspace$1006:
  1450                           	callstack 0
  1451  000007                     toupper@c:
  1452                           	callstack 0
  1453                           
  1454                           ; 2 bytes @ 0x6
  1455  000007                     	ds	1
  1456  000008                     ?_atoi:
  1457                           	callstack 0
  1458  000008                     atoi@s:
  1459                           	callstack 0
  1460                           
  1461                           ; 2 bytes @ 0x7
  1462  000008                     	ds	1
  1463  000009                     ??_toupper:
  1464  000009                     ___lodiv@divisor:
  1465                           	callstack 0
  1466  000009                     ___lomod@divisor:
  1467                           	callstack 0
  1468                           
  1469                           ; 8 bytes @ 0x8
  1470  000009                     	ds	1
  1471  00000A                     ??_atoi:
  1472  00000A                     fputs@s:
  1473                           	callstack 0
  1474                           
  1475                           ; 2 bytes @ 0x9
  1476  00000A                     	ds	2
  1477  00000C                     fputs@fp:
  1478                           	callstack 0
  1479                           
  1480                           ; 2 bytes @ 0xB
  1481  00000C                     	ds	1
  1482  00000D                     _toupper$1061:
  1483                           	callstack 0
  1484                           
  1485                           ; 2 bytes @ 0xC
  1486  00000D                     	ds	1
  1487  00000E                     fputs@c:
  1488                           	callstack 0
  1489  00000E                     atoi@neg:
  1490                           	callstack 0
  1491                           
  1492                           ; 2 bytes @ 0xD
  1493  00000E                     	ds	1
  1494  00000F                     fputs@i:
  1495                           	callstack 0
  1496                           
  1497                           ; 2 bytes @ 0xE
  1498  00000F                     	ds	1
  1499  000010                     _atoi$979:
  1500                           	callstack 0
  1501                           
  1502                           ; 2 bytes @ 0xF
  1503  000010                     	ds	1
  1504  000011                     ?_pad:
  1505                           	callstack 0
  1506  000011                     ___lomod@counter:
  1507                           	callstack 0
  1508  000011                     pad@fp:
  1509                           	callstack 0
  1510  000011                     ___lodiv@quotient:
  1511                           	callstack 0
  1512                           
  1513                           ; 8 bytes @ 0x10
  1514  000011                     	ds	1
  1515  000012                     _atoi$981:
  1516                           	callstack 0
  1517                           
  1518                           ; 2 bytes @ 0x11
  1519  000012                     	ds	1
  1520  000013                     pad@buf:
  1521                           	callstack 0
  1522                           
  1523                           ; 2 bytes @ 0x12
  1524  000013                     	ds	1
  1525  000014                     _atoi$980:
  1526                           	callstack 0
  1527                           
  1528                           ; 1 bytes @ 0x13
  1529  000014                     	ds	1
  1530  000015                     pad@p:
  1531                           	callstack 0
  1532  000015                     atoi@n:
  1533                           	callstack 0
  1534                           
  1535                           ; 2 bytes @ 0x14
  1536  000015                     	ds	2
  1537  000017                     ??_pad:
  1538                           
  1539                           ; 1 bytes @ 0x16
  1540  000017                     	ds	1
  1541  000018                     pad@i:
  1542                           	callstack 0
  1543                           
  1544                           ; 2 bytes @ 0x17
  1545  000018                     	ds	1
  1546  000019                     ___lodiv@counter:
  1547                           	callstack 0
  1548                           
  1549                           ; 1 bytes @ 0x18
  1550  000019                     	ds	1
  1551  00001A                     pad@w:
  1552                           	callstack 0
  1553                           
  1554                           ; 2 bytes @ 0x19
  1555  00001A                     	ds	2
  1556  00001C                     ?_utoa:
  1557                           	callstack 0
  1558  00001C                     ?_xtoa:
  1559                           	callstack 0
  1560  00001C                     utoa@fp:
  1561                           	callstack 0
  1562  00001C                     xtoa@fp:
  1563                           	callstack 0
  1564                           
  1565                           ; 2 bytes @ 0x1B
  1566  00001C                     	ds	2
  1567  00001E                     utoa@d:
  1568                           	callstack 0
  1569  00001E                     xtoa@d:
  1570                           	callstack 0
  1571                           
  1572                           ; 8 bytes @ 0x1D
  1573  00001E                     	ds	8
  1574  000026                     ??_utoa:
  1575  000026                     xtoa@x:
  1576                           	callstack 0
  1577                           
  1578                           ; 1 bytes @ 0x25
  1579  000026                     	ds	1
  1580  000027                     ??_xtoa:
  1581                           
  1582                           ; 1 bytes @ 0x26
  1583  000027                     	ds	7
  1584  00002E                     utoa@p:
  1585                           	callstack 0
  1586                           
  1587                           ; 2 bytes @ 0x2D
  1588  00002E                     	ds	1
  1589  00002F                     _xtoa$945:
  1590                           	callstack 0
  1591                           
  1592                           ; 2 bytes @ 0x2E
  1593  00002F                     	ds	1
  1594  000030                     utoa@w:
  1595                           	callstack 0
  1596                           
  1597                           ; 2 bytes @ 0x2F
  1598  000030                     	ds	1
  1599  000031                     _xtoa$946:
  1600                           	callstack 0
  1601                           
  1602                           ; 2 bytes @ 0x30
  1603  000031                     	ds	1
  1604  000032                     utoa@n:
  1605                           	callstack 0
  1606                           
  1607                           ; 8 bytes @ 0x31
  1608  000032                     	ds	1
  1609  000033                     xtoa@p:
  1610                           	callstack 0
  1611                           
  1612                           ; 2 bytes @ 0x32
  1613  000033                     	ds	2
  1614  000035                     xtoa@w:
  1615                           	callstack 0
  1616                           
  1617                           ; 2 bytes @ 0x34
  1618  000035                     	ds	2
  1619  000037                     xtoa@n:
  1620                           	callstack 0
  1621                           
  1622                           ; 8 bytes @ 0x36
  1623  000037                     	ds	3
  1624  00003A                     utoa@i:
  1625                           	callstack 0
  1626                           
  1627                           ; 2 bytes @ 0x39
  1628  00003A                     	ds	5
  1629  00003F                     xtoa@i:
  1630                           	callstack 0
  1631                           
  1632                           ; 2 bytes @ 0x3E
  1633  00003F                     	ds	2
  1634  000041                     xtoa@c:
  1635                           	callstack 0
  1636                           
  1637                           ; 2 bytes @ 0x40
  1638  000041                     	ds	2
  1639  000043                     ?_vfpfcnvrt:
  1640                           	callstack 0
  1641  000043                     vfpfcnvrt@fp:
  1642                           	callstack 0
  1643                           
  1644                           ; 2 bytes @ 0x42
  1645  000043                     	ds	2
  1646  000045                     vfpfcnvrt@fmt:
  1647                           	callstack 0
  1648                           
  1649                           ; 2 bytes @ 0x44
  1650  000045                     	ds	2
  1651  000047                     vfpfcnvrt@ap:
  1652                           	callstack 0
  1653                           
  1654                           ; 2 bytes @ 0x46
  1655  000047                     	ds	2
  1656  000049                     ??_vfpfcnvrt:
  1657                           
  1658                           ; 1 bytes @ 0x48
  1659  000049                     	ds	4
  1660  00004D                     vfpfcnvrt@done:
  1661                           	callstack 0
  1662                           
  1663                           ; 2 bytes @ 0x4C
  1664  00004D                     	ds	2
  1665  00004F                     _vfpfcnvrt$960:
  1666                           	callstack 0
  1667                           
  1668                           ; 2 bytes @ 0x4E
  1669  00004F                     	ds	2
  1670  000051                     vfpfcnvrt@c:
  1671                           	callstack 0
  1672                           
  1673                           ; 1 bytes @ 0x50
  1674  000051                     	ds	1
  1675  000052                     vfpfcnvrt@llu:
  1676                           	callstack 0
  1677                           
  1678                           ; 8 bytes @ 0x51
  1679  000052                     	ds	8
  1680  00005A                     ?_vfprintf:
  1681                           	callstack 0
  1682  00005A                     vfprintf@fp:
  1683                           	callstack 0
  1684                           
  1685                           ; 2 bytes @ 0x59
  1686  00005A                     	ds	2
  1687  00005C                     vfprintf@fmt:
  1688                           	callstack 0
  1689                           
  1690                           ; 2 bytes @ 0x5B
  1691  00005C                     	ds	2
  1692  00005E                     vfprintf@ap:
  1693                           	callstack 0
  1694                           
  1695                           ; 2 bytes @ 0x5D
  1696  00005E                     	ds	2
  1697  000060                     vfprintf@cfmt:
  1698                           	callstack 0
  1699                           
  1700                           ; 2 bytes @ 0x5F
  1701  000060                     	ds	2
  1702  000062                     ?_sprintf:
  1703                           	callstack 0
  1704  000062                     sprintf@s:
  1705                           	callstack 0
  1706                           
  1707                           ; 2 bytes @ 0x61
  1708  000062                     	ds	2
  1709  000064                     sprintf@fmt:
  1710                           	callstack 0
  1711                           
  1712                           ; 2 bytes @ 0x63
  1713  000064                     	ds	4
  1714  000068                     sprintf@ret:
  1715                           	callstack 0
  1716                           
  1717                           ; 2 bytes @ 0x67
  1718  000068                     	ds	2
  1719  00006A                     sprintf@ap:
  1720                           	callstack 0
  1721                           
  1722                           ; 2 bytes @ 0x69
  1723  00006A                     	ds	2
  1724  00006C                     sprintf@f:
  1725                           	callstack 0
  1726                           
  1727                           ; 6 bytes @ 0x6B
  1728  00006C                     	ds	6
  1729  000072                     ??_isr:
  1730                           
  1731                           ; 1 bytes @ 0x71
  1732  000072                     	ds	12
  1733  00007E                     isr@letrain:
  1734                           	callstack 0
  1735                           
  1736                           ; 1 bytes @ 0x7D
  1737  00007E                     	ds	1
  1738                           
  1739 ;;
  1740 ;;Main: autosize = 0, tempsize = 4, incstack = 0, save=0
  1741 ;;
  1742 ;; *************** function _main *****************
  1743 ;; Defined at:
  1744 ;;		line 90 in file "glory.c"
  1745 ;; Parameters:    Size  Location     Type
  1746 ;;		None
  1747 ;; Auto vars:     Size  Location     Type
  1748 ;;  i               2   67[BANK0 ] int 
  1749 ;; Return value:  Size  Location     Type
  1750 ;;                  1    wreg      void 
  1751 ;; Registers used:
  1752 ;;		wreg, fsr1l, fsr1h, status,2, status,0, tblptrl, tblptrh, tblptru, cstack
  1753 ;; Tracked objects:
  1754 ;;		On entry : 0/0
  1755 ;;		On exit  : 0/0
  1756 ;;		Unchanged: 0/0
  1757 ;; Data sizes:     COMRAM   BANK0   BANK1   BANK2   BANK3   BANK4   BANK5
  1758 ;;      Params:         0       0       0       0       0       0       0
  1759 ;;      Locals:         0       2       0       0       0       0       0
  1760 ;;      Temps:          0       4       0       0       0       0       0
  1761 ;;      Totals:         0       6       0       0       0       0       0
  1762 ;;Total ram usage:        6 bytes
  1763 ;; Hardware stack levels required when called: 11
  1764 ;; This function calls:
  1765 ;;		_USART_EnviaMsg
  1766 ;;		_USART_Init
  1767 ;; This function is called by:
  1768 ;;		Startup code after reset
  1769 ;; This function uses a non-reentrant model
  1770 ;;
  1771                           
  1772                           	psect	text0
  1773  000012                     __ptext0:
  1774                           	callstack 0
  1775  000012                     _main:
  1776                           	callstack 20
  1777  000012                     
  1778                           ;glory.c: 91:     int i;;glory.c: 94:     OSCCON=0b01110010;
  1779  000012  0E72               	movlw	114
  1780  000014  6ED3               	movwf	211,c	;volatile
  1781                           
  1782                           ;glory.c: 95:     ADCON1=0b00001111;
  1783  000016  0E0F               	movlw	15
  1784  000018  6EC1               	movwf	193,c	;volatile
  1785                           
  1786                           ;glory.c: 96:     TRISA=0b00000000;
  1787  00001A  0E00               	movlw	0
  1788  00001C  6E92               	movwf	146,c	;volatile
  1789  00001E                     
  1790                           ;glory.c: 97:     TRISB=0b11111111;
  1791  00001E  6893               	setf	147,c	;volatile
  1792                           
  1793                           ;glory.c: 98:     TRISC=0b10010000;
  1794  000020  0E90               	movlw	144
  1795  000022  6E94               	movwf	148,c	;volatile
  1796  000024                     
  1797                           ;glory.c: 99:     TRISD=0b11111111;
  1798  000024  6895               	setf	149,c	;volatile
  1799                           
  1800                           ;glory.c: 100:     TRISE=0b00000000;
  1801  000026  0E00               	movlw	0
  1802  000028  6E96               	movwf	150,c	;volatile
  1803                           
  1804                           ;glory.c: 102:     T0CON=0x81;
  1805  00002A  0E81               	movlw	129
  1806  00002C  6ED5               	movwf	213,c	;volatile
  1807                           
  1808                           ;glory.c: 103:     TMR0H=0x3C;
  1809  00002E  0E3C               	movlw	60
  1810  000030  6ED7               	movwf	215,c	;volatile
  1811                           
  1812                           ;glory.c: 104:     TMR0L=0xB0;
  1813  000032  0EB0               	movlw	176
  1814  000034  6ED6               	movwf	214,c	;volatile
  1815  000036                     
  1816                           ;glory.c: 105:     TMR0IF=0;
  1817  000036  94F2               	bcf	4082,2,c	;volatile
  1818  000038                     
  1819                           ;glory.c: 106:     TMR0IE=0;
  1820  000038  9AF2               	bcf	4082,5,c	;volatile
  1821                           
  1822                           ;glory.c: 108:     T1CON=0x01;
  1823  00003A  0E01               	movlw	1
  1824  00003C  6ECD               	movwf	205,c	;volatile
  1825                           
  1826                           ;glory.c: 111:     TMR1H=0xB1;
  1827  00003E  0EB1               	movlw	177
  1828  000040  6ECF               	movwf	207,c	;volatile
  1829                           
  1830                           ;glory.c: 112:     TMR1L=0xE0;
  1831  000042  0EE0               	movlw	224
  1832  000044  6ECE               	movwf	206,c	;volatile
  1833                           
  1834                           ;glory.c: 114:     T2CON=0x26;
  1835  000046  0E26               	movlw	38
  1836  000048  6ECA               	movwf	202,c	;volatile
  1837                           
  1838                           ;glory.c: 115:     PR2=250;
  1839  00004A  0EFA               	movlw	250
  1840  00004C  6ECB               	movwf	203,c	;volatile
  1841  00004E                     
  1842                           ;glory.c: 118:     LATA2=0;
  1843  00004E  9489               	bcf	3977,2,c	;volatile
  1844  000050                     
  1845                           ;glory.c: 119:     LATC1=0;
  1846  000050  928B               	bcf	3979,1,c	;volatile
  1847  000052                     
  1848                           ;glory.c: 120:     LATC2=0;
  1849  000052  948B               	bcf	3979,2,c	;volatile
  1850                           
  1851                           ;glory.c: 123:     J1=1;
  1852  000054  0E00               	movlw	0
  1853  000056  0101               	movlb	1	; () banked
  1854  000058  6FFE               	movwf	(_J1+1)& (0+255),b
  1855  00005A  0E01               	movlw	1
  1856  00005C  6FFD               	movwf	_J1& (0+255),b
  1857                           
  1858                           ;glory.c: 124:     J2=1;
  1859  00005E  0E00               	movlw	0
  1860  000060  6FFC               	movwf	(_J2+1)& (0+255),b
  1861  000062  0E01               	movlw	1
  1862  000064  6FFB               	movwf	_J2& (0+255),b
  1863                           
  1864                           ;glory.c: 125:     J3=1;
  1865  000066  0E00               	movlw	0
  1866  000068  6FFA               	movwf	(_J3+1)& (0+255),b
  1867  00006A  0E01               	movlw	1
  1868  00006C  6FF9               	movwf	_J3& (0+255),b
  1869                           
  1870                           ;glory.c: 126:     J4=1;
  1871  00006E  0E00               	movlw	0
  1872  000070  6FF8               	movwf	(_J4+1)& (0+255),b
  1873  000072  0E01               	movlw	1
  1874  000074  6FF7               	movwf	_J4& (0+255),b
  1875                           
  1876                           ;glory.c: 127:     J5=1;
  1877  000076  0E00               	movlw	0
  1878  000078  6FF6               	movwf	(_J5+1)& (0+255),b
  1879  00007A  0E01               	movlw	1
  1880  00007C  6FF5               	movwf	_J5& (0+255),b
  1881                           
  1882                           ;glory.c: 128:     J6=1;
  1883  00007E  0E00               	movlw	0
  1884  000080  0100               	movlb	0	; () banked
  1885  000082  6FF7               	movwf	(_J6+1)& (0+255),b
  1886  000084  0E01               	movlw	1
  1887  000086  6FF6               	movwf	_J6& (0+255),b
  1888                           
  1889                           ;glory.c: 129:     J7=1;
  1890  000088  0E00               	movlw	0
  1891  00008A  0101               	movlb	1	; () banked
  1892  00008C  6FF4               	movwf	(_J7+1)& (0+255),b
  1893  00008E  0E01               	movlw	1
  1894  000090  6FF3               	movwf	_J7& (0+255),b
  1895                           
  1896                           ;glory.c: 130:     J8=1;
  1897  000092  0E00               	movlw	0
  1898  000094  0100               	movlb	0	; () banked
  1899  000096  6FF5               	movwf	(_J8+1)& (0+255),b
  1900  000098  0E01               	movlw	1
  1901  00009A  6FF4               	movwf	_J8& (0+255),b
  1902                           
  1903                           ;glory.c: 131:     J9=1;
  1904  00009C  0E00               	movlw	0
  1905  00009E  0101               	movlb	1	; () banked
  1906  0000A0  6FF2               	movwf	(_J9+1)& (0+255),b
  1907  0000A2  0E01               	movlw	1
  1908  0000A4  6FF1               	movwf	_J9& (0+255),b
  1909                           
  1910                           ;glory.c: 132:     J10=1;
  1911  0000A6  0E00               	movlw	0
  1912  0000A8  0102               	movlb	2	; () banked
  1913  0000AA  6F72               	movwf	(_J10+1)& (0+255),b
  1914  0000AC  0E01               	movlw	1
  1915  0000AE  6F71               	movwf	_J10& (0+255),b
  1916                           
  1917                           ;glory.c: 133:     J11=1;
  1918  0000B0  0E00               	movlw	0
  1919  0000B2  6F70               	movwf	(_J11+1)& (0+255),b
  1920  0000B4  0E01               	movlw	1
  1921  0000B6  6F6F               	movwf	_J11& (0+255),b
  1922                           
  1923                           ;glory.c: 134:     J12=1;
  1924  0000B8  0E00               	movlw	0
  1925  0000BA  6F6E               	movwf	(_J12+1)& (0+255),b
  1926  0000BC  0E01               	movlw	1
  1927  0000BE  6F6D               	movwf	_J12& (0+255),b
  1928                           
  1929                           ;glory.c: 135:     J13=1;
  1930  0000C0  0E00               	movlw	0
  1931  0000C2  0100               	movlb	0	; () banked
  1932  0000C4  6FF3               	movwf	(_J13+1)& (0+255),b
  1933  0000C6  0E01               	movlw	1
  1934  0000C8  6FF2               	movwf	_J13& (0+255),b
  1935                           
  1936                           ;glory.c: 136:     J14=1;
  1937  0000CA  0E00               	movlw	0
  1938  0000CC  0102               	movlb	2	; () banked
  1939  0000CE  6F6C               	movwf	(_J14+1)& (0+255),b
  1940  0000D0  0E01               	movlw	1
  1941  0000D2  6F6B               	movwf	_J14& (0+255),b
  1942                           
  1943                           ;glory.c: 137:     J6=PORTDbits.RD3;
  1944  0000D4  B683               	btfsc	131,3,c	;volatile
  1945  0000D6  EF6F  F000         	goto	u4001
  1946  0000DA  EF74  F000         	goto	u4000
  1947  0000DE                     u4001:
  1948  0000DE  0100               	movlb	0	; () banked
  1949  0000E0  6BBF               	clrf	??_main& (0+255),b
  1950  0000E2  2BBF               	incf	??_main& (0+255),f,b
  1951  0000E4  EF76  F000         	goto	u4008
  1952  0000E8                     u4000:
  1953  0000E8  0100               	movlb	0	; () banked
  1954  0000EA  6BBF               	clrf	??_main& (0+255),b
  1955  0000EC                     u4008:
  1956  0000EC  51BF               	movf	??_main& (0+255),w,b
  1957  0000EE  6FF6               	movwf	_J6& (0+255),b
  1958  0000F0  6BF7               	clrf	(_J6+1)& (0+255),b
  1959                           
  1960                           ;glory.c: 138:     J13=PORTDbits.RD2;
  1961  0000F2  B483               	btfsc	131,2,c	;volatile
  1962  0000F4  EF7E  F000         	goto	u4011
  1963  0000F8  EF82  F000         	goto	u4010
  1964  0000FC                     u4011:
  1965  0000FC  6BBF               	clrf	??_main& (0+255),b
  1966  0000FE  2BBF               	incf	??_main& (0+255),f,b
  1967  000100  EF84  F000         	goto	u4018
  1968  000104                     u4010:
  1969  000104  0100               	movlb	0	; () banked
  1970  000106  6BBF               	clrf	??_main& (0+255),b
  1971  000108                     u4018:
  1972  000108  51BF               	movf	??_main& (0+255),w,b
  1973  00010A  6FF2               	movwf	_J13& (0+255),b
  1974  00010C  6BF3               	clrf	(_J13+1)& (0+255),b
  1975                           
  1976                           ;glory.c: 140:     StartUp=1;
  1977  00010E  0E00               	movlw	0
  1978  000110  0101               	movlb	1	; () banked
  1979  000112  6FF0               	movwf	(_StartUp+1)& (0+255),b
  1980  000114  0E01               	movlw	1
  1981  000116  6FEF               	movwf	_StartUp& (0+255),b
  1982                           
  1983                           ;glory.c: 141:     ValorStateE=0;
  1984  000118  0E00               	movlw	0
  1985  00011A  0100               	movlb	0	; () banked
  1986  00011C  6FEC               	movwf	(_ValorStateE+1)& (0+255),b
  1987  00011E  0E00               	movlw	0
  1988  000120  6FEB               	movwf	_ValorStateE& (0+255),b
  1989                           
  1990                           ;glory.c: 142:     ValorStateShutter=0;
  1991  000122  0E00               	movlw	0
  1992  000124  6FEA               	movwf	(_ValorStateShutter+1)& (0+255),b
  1993  000126  0E00               	movlw	0
  1994  000128  6FE9               	movwf	_ValorStateShutter& (0+255),b
  1995                           
  1996                           ;glory.c: 143:     ValorStateLock=0;
  1997  00012A  0E00               	movlw	0
  1998  00012C  6FE8               	movwf	(_ValorStateLock+1)& (0+255),b
  1999  00012E  0E00               	movlw	0
  2000  000130  6FE7               	movwf	_ValorStateLock& (0+255),b
  2001                           
  2002                           ;glory.c: 144:     ValorBagSensor=0;
  2003  000132  0E00               	movlw	0
  2004  000134  6FE6               	movwf	(_ValorBagSensor+1)& (0+255),b
  2005  000136  0E00               	movlw	0
  2006  000138  6FE5               	movwf	_ValorBagSensor& (0+255),b
  2007                           
  2008                           ;glory.c: 145:     ValorBagStatus=0;
  2009  00013A  0E00               	movlw	0
  2010  00013C  6FE4               	movwf	(_ValorBagStatus+1)& (0+255),b
  2011  00013E  0E00               	movlw	0
  2012  000140  6FE3               	movwf	_ValorBagStatus& (0+255),b
  2013                           
  2014                           ;glory.c: 146:     ValorBag=99;
  2015  000142  0E00               	movlw	0
  2016  000144  6FF9               	movwf	(_ValorBag+1)& (0+255),b
  2017  000146  0E63               	movlw	99
  2018  000148  6FF8               	movwf	_ValorBag& (0+255),b
  2019                           
  2020                           ;glory.c: 147:     EstadoAprobacionBolsa=0;
  2021  00014A  0E00               	movlw	0
  2022  00014C  6FDE               	movwf	(_EstadoAprobacionBolsa+1)& (0+255),b
  2023  00014E  0E00               	movlw	0
  2024  000150  6FDD               	movwf	_EstadoAprobacionBolsa& (0+255),b
  2025                           
  2026                           ;glory.c: 148:     Counter=0;
  2027  000152  0E00               	movlw	0
  2028  000154  6FE2               	movwf	(_Counter+1)& (0+255),b
  2029  000156  0E00               	movlw	0
  2030  000158  6FE1               	movwf	_Counter& (0+255),b
  2031                           
  2032                           ;glory.c: 150:     PulsoArriba=0;
  2033  00015A  0E00               	movlw	0
  2034  00015C  6FDC               	movwf	(_PulsoArriba+1)& (0+255),b
  2035  00015E  0E00               	movlw	0
  2036  000160  6FDB               	movwf	_PulsoArriba& (0+255),b
  2037                           
  2038                           ;glory.c: 151:     TiempoPulso=0;
  2039  000162  0E00               	movlw	0
  2040  000164  6FDA               	movwf	(_TiempoPulso+1)& (0+255),b
  2041  000166  0E00               	movlw	0
  2042  000168  6FD9               	movwf	_TiempoPulso& (0+255),b
  2043                           
  2044                           ;glory.c: 152:     PulsoArribaBuzzer=0;
  2045  00016A  0E00               	movlw	0
  2046  00016C  6FD8               	movwf	(_PulsoArribaBuzzer+1)& (0+255),b
  2047  00016E  0E00               	movlw	0
  2048  000170  6FD7               	movwf	_PulsoArribaBuzzer& (0+255),b
  2049                           
  2050                           ;glory.c: 153:     TiempoPulsoBuzzer=0;
  2051  000172  0E00               	movlw	0
  2052  000174  6FD6               	movwf	(_TiempoPulsoBuzzer+1)& (0+255),b
  2053  000176  0E00               	movlw	0
  2054  000178  6FD5               	movwf	_TiempoPulsoBuzzer& (0+255),b
  2055  00017A                     
  2056                           ; BSR set to: 0
  2057                           ;glory.c: 156:     USART_Init(38400);
  2058  00017A  0E00               	movlw	0
  2059  00017C  6FB7               	movwf	USART_Init@baud_rate& (0+255),b
  2060  00017E  0E96               	movlw	150
  2061  000180  6FB8               	movwf	(USART_Init@baud_rate+1)& (0+255),b
  2062  000182  0E00               	movlw	0
  2063  000184  6FB9               	movwf	(USART_Init@baud_rate+2)& (0+255),b
  2064  000186  0E00               	movlw	0
  2065  000188  6FBA               	movwf	(USART_Init@baud_rate+3)& (0+255),b
  2066  00018A  ECB2  F014         	call	_USART_Init	;wreg free
  2067  00018E                     
  2068                           ;glory.c: 158:     GIE = 1;
  2069  00018E  8EF2               	bsf	4082,7,c	;volatile
  2070  000190                     
  2071                           ;glory.c: 159:     PEIE = 1;
  2072  000190  8CF2               	bsf	4082,6,c	;volatile
  2073  000192                     
  2074                           ;glory.c: 160:     RCIE = 1;
  2075  000192  8A9D               	bsf	3997,5,c	;volatile
  2076  000194                     
  2077                           ;glory.c: 163:     for(i=0;i<=50;i++)
  2078  000194  0E00               	movlw	0
  2079  000196  0100               	movlb	0	; () banked
  2080  000198  6FC4               	movwf	(main@i+1)& (0+255),b
  2081  00019A  0E00               	movlw	0
  2082  00019C  6FC3               	movwf	main@i& (0+255),b
  2083  00019E                     l3510:
  2084                           
  2085                           ; BSR set to: 0
  2086  00019E  BFC4               	btfsc	(main@i+1)& (0+255),7,b
  2087  0001A0  EFDB  F000         	goto	u4021
  2088  0001A4  51C4               	movf	(main@i+1)& (0+255),w,b
  2089  0001A6  E109               	bnz	u4020
  2090  0001A8  0E33               	movlw	51
  2091  0001AA  5DC3               	subwf	main@i& (0+255),w,b
  2092  0001AC  A0D8               	btfss	status,0,c
  2093  0001AE  EFDB  F000         	goto	u4021
  2094  0001B2  EFDD  F000         	goto	u4020
  2095  0001B6                     u4021:
  2096  0001B6  EFDF  F000         	goto	l3514
  2097  0001BA                     u4020:
  2098  0001BA  EFF2  F000         	goto	l3522
  2099  0001BE                     l3514:
  2100                           
  2101                           ; BSR set to: 0
  2102                           ;glory.c: 164:     {;glory.c: 165:         USART_EnviaMsg(".");
  2103  0001BE  0EFC               	movlw	low STR_1
  2104  0001C0  6F80               	movwf	USART_EnviaMsg@msgout& (0+255),b
  2105  0001C2  0E7F               	movlw	high STR_1
  2106  0001C4  6F81               	movwf	(USART_EnviaMsg@msgout+1)& (0+255),b
  2107  0001C6  EC40  F015         	call	_USART_EnviaMsg	;wreg free
  2108  0001CA                     
  2109                           ;glory.c: 166:         _delay((unsigned long)((30)*(8000000/4000.0)));
  2110  0001CA  0E4E               	movlw	78
  2111  0001CC  0100               	movlb	0	; () banked
  2112  0001CE  6FBF               	movwf	??_main& (0+255),b
  2113  0001D0  0EEB               	movlw	235
  2114  0001D2                     u4777:
  2115  0001D2  2EE8               	decfsz	wreg,f,c
  2116  0001D4  D7FE               	bra	u4777
  2117  0001D6  2FBF               	decfsz	??_main& (0+255),f,b
  2118  0001D8  D7FC               	bra	u4777
  2119  0001DA                     
  2120                           ;glory.c: 167:     }
  2121  0001DA  0100               	movlb	0	; () banked
  2122  0001DC  4BC3               	infsnz	main@i& (0+255),f,b
  2123  0001DE  2BC4               	incf	(main@i+1)& (0+255),f,b
  2124  0001E0  EFCF  F000         	goto	l3510
  2125  0001E4                     l3522:
  2126                           
  2127                           ; BSR set to: 0
  2128                           ;glory.c: 168:    USART_EnviaMsg(" ");
  2129  0001E4  0EDD               	movlw	low (STR_30+5)
  2130  0001E6  6F80               	movwf	USART_EnviaMsg@msgout& (0+255),b
  2131  0001E8  0E7F               	movlw	high (STR_30+5)
  2132  0001EA  6F81               	movwf	(USART_EnviaMsg@msgout+1)& (0+255),b
  2133  0001EC  EC40  F015         	call	_USART_EnviaMsg	;wreg free
  2134                           
  2135                           ;glory.c: 169:    USART_EnviaMsg(CRLF);
  2136  0001F0  0EFC               	movlw	low _CRLF
  2137  0001F2  0100               	movlb	0	; () banked
  2138  0001F4  6F80               	movwf	USART_EnviaMsg@msgout& (0+255),b
  2139  0001F6  0E00               	movlw	high _CRLF
  2140  0001F8  6F81               	movwf	(USART_EnviaMsg@msgout+1)& (0+255),b
  2141  0001FA  EC40  F015         	call	_USART_EnviaMsg	;wreg free
  2142                           
  2143                           ;glory.c: 170:    USART_EnviaMsg("   IOBOARD SCREW !!!");
  2144  0001FE  0E32               	movlw	low STR_3
  2145  000200  0100               	movlb	0	; () banked
  2146  000202  6F80               	movwf	USART_EnviaMsg@msgout& (0+255),b
  2147  000204  0E7F               	movlw	high STR_3
  2148  000206  6F81               	movwf	(USART_EnviaMsg@msgout+1)& (0+255),b
  2149  000208  EC40  F015         	call	_USART_EnviaMsg	;wreg free
  2150                           
  2151                           ;glory.c: 171:    USART_EnviaMsg(CRLF);
  2152  00020C  0EFC               	movlw	low _CRLF
  2153  00020E  0100               	movlb	0	; () banked
  2154  000210  6F80               	movwf	USART_EnviaMsg@msgout& (0+255),b
  2155  000212  0E00               	movlw	high _CRLF
  2156  000214  6F81               	movwf	(USART_EnviaMsg@msgout+1)& (0+255),b
  2157  000216  EC40  F015         	call	_USART_EnviaMsg	;wreg free
  2158                           
  2159                           ;glory.c: 172:    USART_EnviaMsg("********************************");
  2160  00021A  0E92               	movlw	low STR_4
  2161  00021C  0100               	movlb	0	; () banked
  2162  00021E  6F80               	movwf	USART_EnviaMsg@msgout& (0+255),b
  2163  000220  0E7E               	movlw	high STR_4
  2164  000222  6F81               	movwf	(USART_EnviaMsg@msgout+1)& (0+255),b
  2165  000224  EC40  F015         	call	_USART_EnviaMsg	;wreg free
  2166                           
  2167                           ;glory.c: 173:    USART_EnviaMsg(CRLF);
  2168  000228  0EFC               	movlw	low _CRLF
  2169  00022A  0100               	movlb	0	; () banked
  2170  00022C  6F80               	movwf	USART_EnviaMsg@msgout& (0+255),b
  2171  00022E  0E00               	movlw	high _CRLF
  2172  000230  6F81               	movwf	(USART_EnviaMsg@msgout+1)& (0+255),b
  2173  000232  EC40  F015         	call	_USART_EnviaMsg	;wreg free
  2174                           
  2175                           ;glory.c: 174:    USART_EnviaMsg("  -By PERMAQUIM SPA");
  2176  000236  0E47               	movlw	low STR_5
  2177  000238  0100               	movlb	0	; () banked
  2178  00023A  6F80               	movwf	USART_EnviaMsg@msgout& (0+255),b
  2179  00023C  0E7F               	movlw	high STR_5
  2180  00023E  6F81               	movwf	(USART_EnviaMsg@msgout+1)& (0+255),b
  2181  000240  EC40  F015         	call	_USART_EnviaMsg	;wreg free
  2182                           
  2183                           ;glory.c: 175:    USART_EnviaMsg(CRLF);
  2184  000244  0EFC               	movlw	low _CRLF
  2185  000246  0100               	movlb	0	; () banked
  2186  000248  6F80               	movwf	USART_EnviaMsg@msgout& (0+255),b
  2187  00024A  0E00               	movlw	high _CRLF
  2188  00024C  6F81               	movwf	(USART_EnviaMsg@msgout+1)& (0+255),b
  2189  00024E  EC40  F015         	call	_USART_EnviaMsg	;wreg free
  2190                           
  2191                           ;glory.c: 176:    USART_EnviaMsg(" ");
  2192  000252  0EDD               	movlw	low (STR_30+5)
  2193  000254  0100               	movlb	0	; () banked
  2194  000256  6F80               	movwf	USART_EnviaMsg@msgout& (0+255),b
  2195  000258  0E7F               	movlw	high (STR_30+5)
  2196  00025A  6F81               	movwf	(USART_EnviaMsg@msgout+1)& (0+255),b
  2197  00025C  EC40  F015         	call	_USART_EnviaMsg	;wreg free
  2198                           
  2199                           ;glory.c: 177:    USART_EnviaMsg(CRLF);
  2200  000260  0EFC               	movlw	low _CRLF
  2201  000262  0100               	movlb	0	; () banked
  2202  000264  6F80               	movwf	USART_EnviaMsg@msgout& (0+255),b
  2203  000266  0E00               	movlw	high _CRLF
  2204  000268  6F81               	movwf	(USART_EnviaMsg@msgout+1)& (0+255),b
  2205  00026A  EC40  F015         	call	_USART_EnviaMsg	;wreg free
  2206                           
  2207                           ;glory.c: 178:    USART_EnviaMsg("  -For BRINKS CHILE");
  2208  00026E  0E5B               	movlw	low STR_7
  2209  000270  0100               	movlb	0	; () banked
  2210  000272  6F80               	movwf	USART_EnviaMsg@msgout& (0+255),b
  2211  000274  0E7F               	movlw	high STR_7
  2212  000276  6F81               	movwf	(USART_EnviaMsg@msgout+1)& (0+255),b
  2213  000278  EC40  F015         	call	_USART_EnviaMsg	;wreg free
  2214                           
  2215                           ;glory.c: 179:    USART_EnviaMsg(CRLF);
  2216  00027C  0EFC               	movlw	low _CRLF
  2217  00027E  0100               	movlb	0	; () banked
  2218  000280  6F80               	movwf	USART_EnviaMsg@msgout& (0+255),b
  2219  000282  0E00               	movlw	high _CRLF
  2220  000284  6F81               	movwf	(USART_EnviaMsg@msgout+1)& (0+255),b
  2221  000286  EC40  F015         	call	_USART_EnviaMsg	;wreg free
  2222                           
  2223                           ;glory.c: 180:    USART_EnviaMsg(" ");
  2224  00028A  0EDD               	movlw	low (STR_30+5)
  2225  00028C  0100               	movlb	0	; () banked
  2226  00028E  6F80               	movwf	USART_EnviaMsg@msgout& (0+255),b
  2227  000290  0E7F               	movlw	high (STR_30+5)
  2228  000292  6F81               	movwf	(USART_EnviaMsg@msgout+1)& (0+255),b
  2229  000294  EC40  F015         	call	_USART_EnviaMsg	;wreg free
  2230                           
  2231                           ;glory.c: 181:    USART_EnviaMsg(CRLF);
  2232  000298  0EFC               	movlw	low _CRLF
  2233  00029A  0100               	movlb	0	; () banked
  2234  00029C  6F80               	movwf	USART_EnviaMsg@msgout& (0+255),b
  2235  00029E  0E00               	movlw	high _CRLF
  2236  0002A0  6F81               	movwf	(USART_EnviaMsg@msgout+1)& (0+255),b
  2237  0002A2  EC40  F015         	call	_USART_EnviaMsg	;wreg free
  2238                           
  2239                           ;glory.c: 182:    USART_EnviaMsg("   -Version: 2.3.1");
  2240  0002A6  0E97               	movlw	low STR_9
  2241  0002A8  0100               	movlb	0	; () banked
  2242  0002AA  6F80               	movwf	USART_EnviaMsg@msgout& (0+255),b
  2243  0002AC  0E7F               	movlw	high STR_9
  2244  0002AE  6F81               	movwf	(USART_EnviaMsg@msgout+1)& (0+255),b
  2245  0002B0  EC40  F015         	call	_USART_EnviaMsg	;wreg free
  2246                           
  2247                           ;glory.c: 183:    USART_EnviaMsg(CRLF);
  2248  0002B4  0EFC               	movlw	low _CRLF
  2249  0002B6  0100               	movlb	0	; () banked
  2250  0002B8  6F80               	movwf	USART_EnviaMsg@msgout& (0+255),b
  2251  0002BA  0E00               	movlw	high _CRLF
  2252  0002BC  6F81               	movwf	(USART_EnviaMsg@msgout+1)& (0+255),b
  2253  0002BE  EC40  F015         	call	_USART_EnviaMsg	;wreg free
  2254                           
  2255                           ;glory.c: 184:    USART_EnviaMsg("********************************");
  2256  0002C2  0E92               	movlw	low STR_4
  2257  0002C4  0100               	movlb	0	; () banked
  2258  0002C6  6F80               	movwf	USART_EnviaMsg@msgout& (0+255),b
  2259  0002C8  0E7E               	movlw	high STR_4
  2260  0002CA  6F81               	movwf	(USART_EnviaMsg@msgout+1)& (0+255),b
  2261  0002CC  EC40  F015         	call	_USART_EnviaMsg	;wreg free
  2262                           
  2263                           ;glory.c: 185:    USART_EnviaMsg(CRLF);
  2264  0002D0  0EFC               	movlw	low _CRLF
  2265  0002D2  0100               	movlb	0	; () banked
  2266  0002D4  6F80               	movwf	USART_EnviaMsg@msgout& (0+255),b
  2267  0002D6  0E00               	movlw	high _CRLF
  2268  0002D8  6F81               	movwf	(USART_EnviaMsg@msgout+1)& (0+255),b
  2269  0002DA  EC40  F015         	call	_USART_EnviaMsg	;wreg free
  2270  0002DE                     
  2271                           ;glory.c: 186:    _delay((unsigned long)((30)*(8000000/4000.0)));
  2272  0002DE  0E4E               	movlw	78
  2273  0002E0  0100               	movlb	0	; () banked
  2274  0002E2  6FBF               	movwf	??_main& (0+255),b
  2275  0002E4  0EEB               	movlw	235
  2276  0002E6                     u4787:
  2277  0002E6  2EE8               	decfsz	wreg,f,c
  2278  0002E8  D7FE               	bra	u4787
  2279  0002EA  2FBF               	decfsz	??_main& (0+255),f,b
  2280  0002EC  D7FC               	bra	u4787
  2281  0002EE                     
  2282                           ;glory.c: 190:     ValorStateShutter=3;
  2283  0002EE  0E00               	movlw	0
  2284  0002F0  0100               	movlb	0	; () banked
  2285  0002F2  6FEA               	movwf	(_ValorStateShutter+1)& (0+255),b
  2286  0002F4  0E03               	movlw	3
  2287  0002F6  6FE9               	movwf	_ValorStateShutter& (0+255),b
  2288  0002F8                     
  2289                           ; BSR set to: 0
  2290                           ;glory.c: 191:     LATE0=1;
  2291  0002F8  808D               	bsf	3981,0,c	;volatile
  2292  0002FA                     
  2293                           ; BSR set to: 0
  2294                           ;glory.c: 192:     LATA5=0;
  2295  0002FA  9A89               	bcf	3977,5,c	;volatile
  2296  0002FC                     
  2297                           ; BSR set to: 0
  2298                           ;glory.c: 193:     LATC1=1;
  2299  0002FC  828B               	bsf	3979,1,c	;volatile
  2300  0002FE                     
  2301                           ; BSR set to: 0
  2302                           ;glory.c: 194:     Tiempo1=0;
  2303  0002FE  0E00               	movlw	0
  2304  000300  6FD0               	movwf	(_Tiempo1+1)& (0+255),b
  2305  000302  0E00               	movlw	0
  2306  000304  6FCF               	movwf	_Tiempo1& (0+255),b
  2307  000306                     
  2308                           ; BSR set to: 0
  2309                           ;glory.c: 195:     TMR1H=0xB1;
  2310  000306  0EB1               	movlw	177
  2311  000308  6ECF               	movwf	207,c	;volatile
  2312  00030A                     
  2313                           ; BSR set to: 0
  2314                           ;glory.c: 196:     TMR1L=0xE0;
  2315  00030A  0EE0               	movlw	224
  2316  00030C  6ECE               	movwf	206,c	;volatile
  2317  00030E                     
  2318                           ; BSR set to: 0
  2319                           ;glory.c: 197:     TMR1IF=0;
  2320  00030E  909E               	bcf	3998,0,c	;volatile
  2321  000310                     
  2322                           ; BSR set to: 0
  2323                           ;glory.c: 198:     TMR1IE=1;
  2324  000310  809D               	bsf	3997,0,c	;volatile
  2325  000312                     
  2326                           ; BSR set to: 0
  2327                           ;glory.c: 199:     USART_EnviaMsg("START CLOSE");
  2328  000312  0EB7               	movlw	low STR_11
  2329  000314  6F80               	movwf	USART_EnviaMsg@msgout& (0+255),b
  2330  000316  0E7F               	movlw	high STR_11
  2331  000318  6F81               	movwf	(USART_EnviaMsg@msgout+1)& (0+255),b
  2332  00031A  EC40  F015         	call	_USART_EnviaMsg	;wreg free
  2333  00031E                     
  2334                           ;glory.c: 200:     USART_EnviaMsg(CRLF);
  2335  00031E  0EFC               	movlw	low _CRLF
  2336  000320  0100               	movlb	0	; () banked
  2337  000322  6F80               	movwf	USART_EnviaMsg@msgout& (0+255),b
  2338  000324  0E00               	movlw	high _CRLF
  2339  000326  6F81               	movwf	(USART_EnviaMsg@msgout+1)& (0+255),b
  2340  000328  EC40  F015         	call	_USART_EnviaMsg	;wreg free
  2341  00032C                     
  2342                           ;glory.c: 201:     USART_EnviaMsg("WARNING CLOSE SENSOR DISABLED");
  2343  00032C  0EB3               	movlw	low STR_12
  2344  00032E  0100               	movlb	0	; () banked
  2345  000330  6F80               	movwf	USART_EnviaMsg@msgout& (0+255),b
  2346  000332  0E7E               	movlw	high STR_12
  2347  000334  6F81               	movwf	(USART_EnviaMsg@msgout+1)& (0+255),b
  2348  000336  EC40  F015         	call	_USART_EnviaMsg	;wreg free
  2349  00033A                     
  2350                           ;glory.c: 202:     USART_EnviaMsg(CRLF);
  2351  00033A  0EFC               	movlw	low _CRLF
  2352  00033C  0100               	movlb	0	; () banked
  2353  00033E  6F80               	movwf	USART_EnviaMsg@msgout& (0+255),b
  2354  000340  0E00               	movlw	high _CRLF
  2355  000342  6F81               	movwf	(USART_EnviaMsg@msgout+1)& (0+255),b
  2356  000344  EC40  F015         	call	_USART_EnviaMsg	;wreg free
  2357  000348                     
  2358                           ;glory.c: 203:     ModoTrabajo = 0;
  2359  000348  0E00               	movlw	0
  2360  00034A  0100               	movlb	0	; () banked
  2361  00034C  6FD4               	movwf	(_ModoTrabajo+1)& (0+255),b
  2362  00034E  0E00               	movlw	0
  2363  000350  6FD3               	movwf	_ModoTrabajo& (0+255),b
  2364  000352                     l3554:
  2365                           
  2366                           ;glory.c: 215:     {;glory.c: 218:             if ((PORTBbits.RB4 == 0) && (J8 == 1))
  2367  000352  B881               	btfsc	129,4,c	;volatile
  2368  000354  EFAE  F001         	goto	u4031
  2369  000358  EFB0  F001         	goto	u4030
  2370  00035C                     u4031:
  2371  00035C  EFD3  F001         	goto	l3564
  2372  000360                     u4030:
  2373  000360  0100               	movlb	0	; () banked
  2374  000362  05F4               	decf	_J8& (0+255),w,b
  2375  000364  11F5               	iorwf	(_J8+1)& (0+255),w,b
  2376  000366  A4D8               	btfss	status,2,c
  2377  000368  EFB8  F001         	goto	u4041
  2378  00036C  EFBA  F001         	goto	u4040
  2379  000370                     u4041:
  2380  000370  EFD3  F001         	goto	l3564
  2381  000374                     u4040:
  2382  000374                     
  2383                           ; BSR set to: 0
  2384                           ;glory.c: 219:             {;glory.c: 220:                 _delay((unsigned long)((100)*
      +                          (8000000/4000.0)));
  2385  000374  0E02               	movlw	2
  2386  000376  0100               	movlb	0	; () banked
  2387  000378  6FC0               	movwf	(??_main+1)& (0+255),b
  2388  00037A  0E04               	movlw	4
  2389  00037C  6FBF               	movwf	??_main& (0+255),b
  2390  00037E  0EBA               	movlw	186
  2391  000380                     u4797:
  2392  000380  2EE8               	decfsz	wreg,f,c
  2393  000382  D7FE               	bra	u4797
  2394  000384  2FBF               	decfsz	??_main& (0+255),f,b
  2395  000386  D7FC               	bra	u4797
  2396  000388  2FC0               	decfsz	(??_main+1)& (0+255),f,b
  2397  00038A  D7FA               	bra	u4797
  2398  00038C  F000               	nop	
  2399  00038E                     
  2400                           ;glory.c: 221:                 if (PORTBbits.RB4 == 0)
  2401  00038E  B881               	btfsc	129,4,c	;volatile
  2402  000390  EFCC  F001         	goto	u4051
  2403  000394  EFCE  F001         	goto	u4050
  2404  000398                     u4051:
  2405  000398  EFD3  F001         	goto	l3564
  2406  00039C                     u4050:
  2407  00039C                     
  2408                           ;glory.c: 222:                 {;glory.c: 223:                     J8 = 0;
  2409  00039C  0E00               	movlw	0
  2410  00039E  0100               	movlb	0	; () banked
  2411  0003A0  6FF5               	movwf	(_J8+1)& (0+255),b
  2412  0003A2  0E00               	movlw	0
  2413  0003A4  6FF4               	movwf	_J8& (0+255),b
  2414  0003A6                     l3564:
  2415                           
  2416                           ;glory.c: 226:             if (PORTBbits.RB4 == 1)
  2417  0003A6  A881               	btfss	129,4,c	;volatile
  2418  0003A8  EFD8  F001         	goto	u4061
  2419  0003AC  EFDA  F001         	goto	u4060
  2420  0003B0                     u4061:
  2421  0003B0  EFDF  F001         	goto	l3568
  2422  0003B4                     u4060:
  2423  0003B4                     
  2424                           ;glory.c: 227:                 J8 = 1;
  2425  0003B4  0E00               	movlw	0
  2426  0003B6  0100               	movlb	0	; () banked
  2427  0003B8  6FF5               	movwf	(_J8+1)& (0+255),b
  2428  0003BA  0E01               	movlw	1
  2429  0003BC  6FF4               	movwf	_J8& (0+255),b
  2430  0003BE                     l3568:
  2431                           
  2432                           ;glory.c: 229:             if ((PORTDbits.RD3 == 0) && (J6 == 1))
  2433  0003BE  B683               	btfsc	131,3,c	;volatile
  2434  0003C0  EFE4  F001         	goto	u4071
  2435  0003C4  EFE6  F001         	goto	u4070
  2436  0003C8                     u4071:
  2437  0003C8  EF09  F002         	goto	l3578
  2438  0003CC                     u4070:
  2439  0003CC  0100               	movlb	0	; () banked
  2440  0003CE  05F6               	decf	_J6& (0+255),w,b
  2441  0003D0  11F7               	iorwf	(_J6+1)& (0+255),w,b
  2442  0003D2  A4D8               	btfss	status,2,c
  2443  0003D4  EFEE  F001         	goto	u4081
  2444  0003D8  EFF0  F001         	goto	u4080
  2445  0003DC                     u4081:
  2446  0003DC  EF09  F002         	goto	l3578
  2447  0003E0                     u4080:
  2448  0003E0                     
  2449                           ; BSR set to: 0
  2450                           ;glory.c: 230:             {;glory.c: 231:                 _delay((unsigned long)((100)*
      +                          (8000000/4000.0)));
  2451  0003E0  0E02               	movlw	2
  2452  0003E2  0100               	movlb	0	; () banked
  2453  0003E4  6FC0               	movwf	(??_main+1)& (0+255),b
  2454  0003E6  0E04               	movlw	4
  2455  0003E8  6FBF               	movwf	??_main& (0+255),b
  2456  0003EA  0EBA               	movlw	186
  2457  0003EC                     u4807:
  2458  0003EC  2EE8               	decfsz	wreg,f,c
  2459  0003EE  D7FE               	bra	u4807
  2460  0003F0  2FBF               	decfsz	??_main& (0+255),f,b
  2461  0003F2  D7FC               	bra	u4807
  2462  0003F4  2FC0               	decfsz	(??_main+1)& (0+255),f,b
  2463  0003F6  D7FA               	bra	u4807
  2464  0003F8  F000               	nop	
  2465  0003FA                     
  2466                           ;glory.c: 232:                 if (PORTDbits.RD3 == 0)
  2467  0003FA  B683               	btfsc	131,3,c	;volatile
  2468  0003FC  EF02  F002         	goto	u4091
  2469  000400  EF04  F002         	goto	u4090
  2470  000404                     u4091:
  2471  000404  EF09  F002         	goto	l3578
  2472  000408                     u4090:
  2473  000408                     
  2474                           ;glory.c: 233:                 {;glory.c: 234:                     J6 = 0;
  2475  000408  0E00               	movlw	0
  2476  00040A  0100               	movlb	0	; () banked
  2477  00040C  6FF7               	movwf	(_J6+1)& (0+255),b
  2478  00040E  0E00               	movlw	0
  2479  000410  6FF6               	movwf	_J6& (0+255),b
  2480  000412                     l3578:
  2481                           
  2482                           ;glory.c: 237:              if (PORTDbits.RD3 == 1)
  2483  000412  A683               	btfss	131,3,c	;volatile
  2484  000414  EF0E  F002         	goto	u4101
  2485  000418  EF10  F002         	goto	u4100
  2486  00041C                     u4101:
  2487  00041C  EF15  F002         	goto	l3582
  2488  000420                     u4100:
  2489  000420                     
  2490                           ;glory.c: 238:                J6 = 1;
  2491  000420  0E00               	movlw	0
  2492  000422  0100               	movlb	0	; () banked
  2493  000424  6FF7               	movwf	(_J6+1)& (0+255),b
  2494  000426  0E01               	movlw	1
  2495  000428  6FF6               	movwf	_J6& (0+255),b
  2496  00042A                     l3582:
  2497                           
  2498                           ;glory.c: 240:             if ((PORTDbits.RD2 == 0) && (J13 == 1))
  2499  00042A  B483               	btfsc	131,2,c	;volatile
  2500  00042C  EF1A  F002         	goto	u4111
  2501  000430  EF1C  F002         	goto	u4110
  2502  000434                     u4111:
  2503  000434  EF3F  F002         	goto	l3592
  2504  000438                     u4110:
  2505  000438  0100               	movlb	0	; () banked
  2506  00043A  05F2               	decf	_J13& (0+255),w,b
  2507  00043C  11F3               	iorwf	(_J13+1)& (0+255),w,b
  2508  00043E  A4D8               	btfss	status,2,c
  2509  000440  EF24  F002         	goto	u4121
  2510  000444  EF26  F002         	goto	u4120
  2511  000448                     u4121:
  2512  000448  EF3F  F002         	goto	l3592
  2513  00044C                     u4120:
  2514  00044C                     
  2515                           ; BSR set to: 0
  2516                           ;glory.c: 241:             {;glory.c: 242:                 _delay((unsigned long)((100)*
      +                          (8000000/4000.0)));
  2517  00044C  0E02               	movlw	2
  2518  00044E  0100               	movlb	0	; () banked
  2519  000450  6FC0               	movwf	(??_main+1)& (0+255),b
  2520  000452  0E04               	movlw	4
  2521  000454  6FBF               	movwf	??_main& (0+255),b
  2522  000456  0EBA               	movlw	186
  2523  000458                     u4817:
  2524  000458  2EE8               	decfsz	wreg,f,c
  2525  00045A  D7FE               	bra	u4817
  2526  00045C  2FBF               	decfsz	??_main& (0+255),f,b
  2527  00045E  D7FC               	bra	u4817
  2528  000460  2FC0               	decfsz	(??_main+1)& (0+255),f,b
  2529  000462  D7FA               	bra	u4817
  2530  000464  F000               	nop	
  2531  000466                     
  2532                           ;glory.c: 243:                 if (PORTDbits.RD2 == 0)
  2533  000466  B483               	btfsc	131,2,c	;volatile
  2534  000468  EF38  F002         	goto	u4131
  2535  00046C  EF3A  F002         	goto	u4130
  2536  000470                     u4131:
  2537  000470  EF3F  F002         	goto	l3592
  2538  000474                     u4130:
  2539  000474                     
  2540                           ;glory.c: 244:                 {;glory.c: 245:                     J13 = 0;
  2541  000474  0E00               	movlw	0
  2542  000476  0100               	movlb	0	; () banked
  2543  000478  6FF3               	movwf	(_J13+1)& (0+255),b
  2544  00047A  0E00               	movlw	0
  2545  00047C  6FF2               	movwf	_J13& (0+255),b
  2546  00047E                     l3592:
  2547                           
  2548                           ;glory.c: 248:             if (PORTDbits.RD2 == 1)
  2549  00047E  A483               	btfss	131,2,c	;volatile
  2550  000480  EF44  F002         	goto	u4141
  2551  000484  EF46  F002         	goto	u4140
  2552  000488                     u4141:
  2553  000488  EF4B  F002         	goto	l3596
  2554  00048C                     u4140:
  2555  00048C                     
  2556                           ;glory.c: 249:                 J13 = 1;
  2557  00048C  0E00               	movlw	0
  2558  00048E  0100               	movlb	0	; () banked
  2559  000490  6FF3               	movwf	(_J13+1)& (0+255),b
  2560  000492  0E01               	movlw	1
  2561  000494  6FF2               	movwf	_J13& (0+255),b
  2562  000496                     l3596:
  2563                           
  2564                           ;glory.c: 252:             if ((PuertaAbierta == 0 && J8 == 1) || (StartUp == 1 && J8 ==
      +                           1))
  2565  000496  0100               	movlb	0	; () banked
  2566  000498  51DF               	movf	_PuertaAbierta& (0+255),w,b
  2567  00049A  11E0               	iorwf	(_PuertaAbierta+1)& (0+255),w,b
  2568  00049C  A4D8               	btfss	status,2,c
  2569  00049E  EF53  F002         	goto	u4151
  2570  0004A2  EF55  F002         	goto	u4150
  2571  0004A6                     u4151:
  2572  0004A6  EF5E  F002         	goto	l3600
  2573  0004AA                     u4150:
  2574  0004AA                     
  2575                           ; BSR set to: 0
  2576  0004AA  05F4               	decf	_J8& (0+255),w,b
  2577  0004AC  11F5               	iorwf	(_J8+1)& (0+255),w,b
  2578  0004AE  B4D8               	btfsc	status,2,c
  2579  0004B0  EF5C  F002         	goto	u4161
  2580  0004B4  EF5E  F002         	goto	u4160
  2581  0004B8                     u4161:
  2582  0004B8  EF72  F002         	goto	l3604
  2583  0004BC                     u4160:
  2584  0004BC                     l3600:
  2585                           
  2586                           ; BSR set to: 0
  2587  0004BC  0101               	movlb	1	; () banked
  2588  0004BE  05EF               	decf	_StartUp& (0+255),w,b
  2589  0004C0  11F0               	iorwf	(_StartUp+1)& (0+255),w,b
  2590  0004C2  A4D8               	btfss	status,2,c
  2591  0004C4  EF66  F002         	goto	u4171
  2592  0004C8  EF68  F002         	goto	u4170
  2593  0004CC                     u4171:
  2594  0004CC  EFA0  F002         	goto	l3626
  2595  0004D0                     u4170:
  2596  0004D0                     
  2597                           ; BSR set to: 1
  2598  0004D0  0100               	movlb	0	; () banked
  2599  0004D2  05F4               	decf	_J8& (0+255),w,b
  2600  0004D4  11F5               	iorwf	(_J8+1)& (0+255),w,b
  2601  0004D6  A4D8               	btfss	status,2,c
  2602  0004D8  EF70  F002         	goto	u4181
  2603  0004DC  EF72  F002         	goto	u4180
  2604  0004E0                     u4181:
  2605  0004E0  EFA0  F002         	goto	l3626
  2606  0004E4                     u4180:
  2607  0004E4                     l3604:
  2608                           
  2609                           ; BSR set to: 0
  2610                           ;glory.c: 253:             {;glory.c: 254:                 PuertaAbierta = 1;
  2611  0004E4  0E00               	movlw	0
  2612  0004E6  6FE0               	movwf	(_PuertaAbierta+1)& (0+255),b
  2613  0004E8  0E01               	movlw	1
  2614  0004EA  6FDF               	movwf	_PuertaAbierta& (0+255),b
  2615  0004EC                     
  2616                           ; BSR set to: 0
  2617                           ;glory.c: 255:                 USART_EnviaMsg("CRITICAL: door open");
  2618  0004EC  0E83               	movlw	low STR_13
  2619  0004EE  6F80               	movwf	USART_EnviaMsg@msgout& (0+255),b
  2620  0004F0  0E7F               	movlw	high STR_13
  2621  0004F2  6F81               	movwf	(USART_EnviaMsg@msgout+1)& (0+255),b
  2622  0004F4  EC40  F015         	call	_USART_EnviaMsg	;wreg free
  2623  0004F8                     
  2624                           ;glory.c: 256:                 USART_EnviaMsg(CRLF);
  2625  0004F8  0EFC               	movlw	low _CRLF
  2626  0004FA  0100               	movlb	0	; () banked
  2627  0004FC  6F80               	movwf	USART_EnviaMsg@msgout& (0+255),b
  2628  0004FE  0E00               	movlw	high _CRLF
  2629  000500  6F81               	movwf	(USART_EnviaMsg@msgout+1)& (0+255),b
  2630  000502  EC40  F015         	call	_USART_EnviaMsg	;wreg free
  2631  000506                     
  2632                           ;glory.c: 257:                 if (TMR0IE == 1)
  2633  000506  AAF2               	btfss	4082,5,c	;volatile
  2634  000508  EF88  F002         	goto	u4191
  2635  00050C  EF8A  F002         	goto	u4190
  2636  000510                     u4191:
  2637  000510  EFA0  F002         	goto	l3626
  2638  000514                     u4190:
  2639  000514                     
  2640                           ;glory.c: 258:                 {;glory.c: 259:                     ValorStateLock = 0;
  2641  000514  0E00               	movlw	0
  2642  000516  0100               	movlb	0	; () banked
  2643  000518  6FE8               	movwf	(_ValorStateLock+1)& (0+255),b
  2644  00051A  0E00               	movlw	0
  2645  00051C  6FE7               	movwf	_ValorStateLock& (0+255),b
  2646  00051E                     
  2647                           ; BSR set to: 0
  2648                           ;glory.c: 260:                     TMR0IE = 0;
  2649  00051E  9AF2               	bcf	4082,5,c	;volatile
  2650  000520                     
  2651                           ; BSR set to: 0
  2652                           ;glory.c: 261:                     LATA2 = 0;
  2653  000520  9489               	bcf	3977,2,c	;volatile
  2654  000522                     
  2655                           ; BSR set to: 0
  2656                           ;glory.c: 262:                     LATA1 = 0;
  2657  000522  9289               	bcf	3977,1,c	;volatile
  2658  000524                     
  2659                           ; BSR set to: 0
  2660                           ;glory.c: 263:                     LATA0 = 0;
  2661  000524  9089               	bcf	3977,0,c	;volatile
  2662  000526                     
  2663                           ; BSR set to: 0
  2664                           ;glory.c: 264:                     USART_EnviaMsg("CRITICAL: door locked");
  2665  000526  0E06               	movlw	low STR_14
  2666  000528  6F80               	movwf	USART_EnviaMsg@msgout& (0+255),b
  2667  00052A  0E7F               	movlw	high STR_14
  2668  00052C  6F81               	movwf	(USART_EnviaMsg@msgout+1)& (0+255),b
  2669  00052E  EC40  F015         	call	_USART_EnviaMsg	;wreg free
  2670  000532                     
  2671                           ;glory.c: 265:                     USART_EnviaMsg(CRLF);
  2672  000532  0EFC               	movlw	low _CRLF
  2673  000534  0100               	movlb	0	; () banked
  2674  000536  6F80               	movwf	USART_EnviaMsg@msgout& (0+255),b
  2675  000538  0E00               	movlw	high _CRLF
  2676  00053A  6F81               	movwf	(USART_EnviaMsg@msgout+1)& (0+255),b
  2677  00053C  EC40  F015         	call	_USART_EnviaMsg	;wreg free
  2678  000540                     l3626:
  2679                           
  2680                           ;glory.c: 269:             if ((PuertaAbierta == 1 && J8 == 0) || (StartUp == 1 && J8 ==
      +                           0))
  2681  000540  0100               	movlb	0	; () banked
  2682  000542  05DF               	decf	_PuertaAbierta& (0+255),w,b
  2683  000544  11E0               	iorwf	(_PuertaAbierta+1)& (0+255),w,b
  2684  000546  A4D8               	btfss	status,2,c
  2685  000548  EFA8  F002         	goto	u4201
  2686  00054C  EFAA  F002         	goto	u4200
  2687  000550                     u4201:
  2688  000550  EFB3  F002         	goto	l3630
  2689  000554                     u4200:
  2690  000554                     
  2691                           ; BSR set to: 0
  2692  000554  51F4               	movf	_J8& (0+255),w,b
  2693  000556  11F5               	iorwf	(_J8+1)& (0+255),w,b
  2694  000558  B4D8               	btfsc	status,2,c
  2695  00055A  EFB1  F002         	goto	u4211
  2696  00055E  EFB3  F002         	goto	u4210
  2697  000562                     u4211:
  2698  000562  EFC7  F002         	goto	l3634
  2699  000566                     u4210:
  2700  000566                     l3630:
  2701                           
  2702                           ; BSR set to: 0
  2703  000566  0101               	movlb	1	; () banked
  2704  000568  05EF               	decf	_StartUp& (0+255),w,b
  2705  00056A  11F0               	iorwf	(_StartUp+1)& (0+255),w,b
  2706  00056C  A4D8               	btfss	status,2,c
  2707  00056E  EFBB  F002         	goto	u4221
  2708  000572  EFBD  F002         	goto	u4220
  2709  000576                     u4221:
  2710  000576  EFF5  F002         	goto	l3656
  2711  00057A                     u4220:
  2712  00057A                     
  2713                           ; BSR set to: 1
  2714  00057A  0100               	movlb	0	; () banked
  2715  00057C  51F4               	movf	_J8& (0+255),w,b
  2716  00057E  11F5               	iorwf	(_J8+1)& (0+255),w,b
  2717  000580  A4D8               	btfss	status,2,c
  2718  000582  EFC5  F002         	goto	u4231
  2719  000586  EFC7  F002         	goto	u4230
  2720  00058A                     u4231:
  2721  00058A  EFF5  F002         	goto	l3656
  2722  00058E                     u4230:
  2723  00058E                     l3634:
  2724                           
  2725                           ; BSR set to: 0
  2726                           ;glory.c: 270:             {;glory.c: 271:                 PuertaAbierta = 0;
  2727  00058E  0E00               	movlw	0
  2728  000590  6FE0               	movwf	(_PuertaAbierta+1)& (0+255),b
  2729  000592  0E00               	movlw	0
  2730  000594  6FDF               	movwf	_PuertaAbierta& (0+255),b
  2731  000596                     
  2732                           ; BSR set to: 0
  2733                           ;glory.c: 272:                 USART_EnviaMsg("CRITICAL: door closed");
  2734  000596  0E1C               	movlw	low STR_15
  2735  000598  6F80               	movwf	USART_EnviaMsg@msgout& (0+255),b
  2736  00059A  0E7F               	movlw	high STR_15
  2737  00059C  6F81               	movwf	(USART_EnviaMsg@msgout+1)& (0+255),b
  2738  00059E  EC40  F015         	call	_USART_EnviaMsg	;wreg free
  2739  0005A2                     
  2740                           ;glory.c: 273:                 USART_EnviaMsg(CRLF);
  2741  0005A2  0EFC               	movlw	low _CRLF
  2742  0005A4  0100               	movlb	0	; () banked
  2743  0005A6  6F80               	movwf	USART_EnviaMsg@msgout& (0+255),b
  2744  0005A8  0E00               	movlw	high _CRLF
  2745  0005AA  6F81               	movwf	(USART_EnviaMsg@msgout+1)& (0+255),b
  2746  0005AC  EC40  F015         	call	_USART_EnviaMsg	;wreg free
  2747  0005B0                     
  2748                           ;glory.c: 274:                 if (TMR0IE == 1)
  2749  0005B0  AAF2               	btfss	4082,5,c	;volatile
  2750  0005B2  EFDD  F002         	goto	u4241
  2751  0005B6  EFDF  F002         	goto	u4240
  2752  0005BA                     u4241:
  2753  0005BA  EFF5  F002         	goto	l3656
  2754  0005BE                     u4240:
  2755  0005BE                     
  2756                           ;glory.c: 275:                 {;glory.c: 276:                     ValorStateLock = 0;
  2757  0005BE  0E00               	movlw	0
  2758  0005C0  0100               	movlb	0	; () banked
  2759  0005C2  6FE8               	movwf	(_ValorStateLock+1)& (0+255),b
  2760  0005C4  0E00               	movlw	0
  2761  0005C6  6FE7               	movwf	_ValorStateLock& (0+255),b
  2762  0005C8                     
  2763                           ; BSR set to: 0
  2764                           ;glory.c: 277:                     TMR0IE = 0;
  2765  0005C8  9AF2               	bcf	4082,5,c	;volatile
  2766  0005CA                     
  2767                           ; BSR set to: 0
  2768                           ;glory.c: 278:                     LATA2 = 0;
  2769  0005CA  9489               	bcf	3977,2,c	;volatile
  2770  0005CC                     
  2771                           ; BSR set to: 0
  2772                           ;glory.c: 279:                     LATA1 = 0;
  2773  0005CC  9289               	bcf	3977,1,c	;volatile
  2774  0005CE                     
  2775                           ; BSR set to: 0
  2776                           ;glory.c: 280:                     LATA0 = 0;
  2777  0005CE  9089               	bcf	3977,0,c	;volatile
  2778  0005D0                     
  2779                           ; BSR set to: 0
  2780                           ;glory.c: 281:                     USART_EnviaMsg("CRITICAL: door locked");
  2781  0005D0  0E06               	movlw	low STR_14
  2782  0005D2  6F80               	movwf	USART_EnviaMsg@msgout& (0+255),b
  2783  0005D4  0E7F               	movlw	high STR_14
  2784  0005D6  6F81               	movwf	(USART_EnviaMsg@msgout+1)& (0+255),b
  2785  0005D8  EC40  F015         	call	_USART_EnviaMsg	;wreg free
  2786  0005DC                     
  2787                           ;glory.c: 282:                     USART_EnviaMsg(CRLF);
  2788  0005DC  0EFC               	movlw	low _CRLF
  2789  0005DE  0100               	movlb	0	; () banked
  2790  0005E0  6F80               	movwf	USART_EnviaMsg@msgout& (0+255),b
  2791  0005E2  0E00               	movlw	high _CRLF
  2792  0005E4  6F81               	movwf	(USART_EnviaMsg@msgout+1)& (0+255),b
  2793  0005E6  EC40  F015         	call	_USART_EnviaMsg	;wreg free
  2794  0005EA                     l3656:
  2795                           
  2796                           ;glory.c: 288:         if (ModoTrabajo == 0)
  2797  0005EA  0100               	movlb	0	; () banked
  2798  0005EC  51D3               	movf	_ModoTrabajo& (0+255),w,b
  2799  0005EE  11D4               	iorwf	(_ModoTrabajo+1)& (0+255),w,b
  2800  0005F0  A4D8               	btfss	status,2,c
  2801  0005F2  EFFD  F002         	goto	u4251
  2802  0005F6  EFFF  F002         	goto	u4250
  2803  0005FA                     u4251:
  2804  0005FA  EFA9  F001         	goto	l3554
  2805  0005FE                     u4250:
  2806  0005FE                     
  2807                           ; BSR set to: 0
  2808                           ;glory.c: 289:         {;glory.c: 291:             ValorStateE = (J8 * 4) + (J9 * 2) + J
      +                          2;
  2809  0005FE  C1F1  F0BF         	movff	_J9,??_main
  2810  000602  C1F2  F0C0         	movff	_J9+1,??_main+1
  2811  000606  90D8               	bcf	status,0,c
  2812  000608  37BF               	rlcf	??_main& (0+255),f,b
  2813  00060A  37C0               	rlcf	(??_main+1)& (0+255),f,b
  2814  00060C  C0F4  F0C1         	movff	_J8,??_main+2
  2815  000610  C0F5  F0C2         	movff	_J8+1,??_main+3
  2816  000614  90D8               	bcf	status,0,c
  2817  000616  37C1               	rlcf	(??_main+2)& (0+255),f,b
  2818  000618  37C2               	rlcf	(??_main+3)& (0+255),f,b
  2819  00061A  90D8               	bcf	status,0,c
  2820  00061C  37C1               	rlcf	(??_main+2)& (0+255),f,b
  2821  00061E  37C2               	rlcf	(??_main+3)& (0+255),f,b
  2822  000620  51BF               	movf	??_main& (0+255),w,b
  2823  000622  27C1               	addwf	(??_main+2)& (0+255),f,b
  2824  000624  51C0               	movf	(??_main+1)& (0+255),w,b
  2825  000626  23C2               	addwfc	(??_main+3)& (0+255),f,b
  2826  000628  0101               	movlb	1	; () banked
  2827  00062A  51FB               	movf	_J2& (0+255),w,b
  2828  00062C  0100               	movlb	0	; () banked
  2829  00062E  25C1               	addwf	(??_main+2)& (0+255),w,b
  2830  000630  6FEB               	movwf	_ValorStateE& (0+255),b
  2831  000632  0101               	movlb	1	; () banked
  2832  000634  51FC               	movf	(_J2+1)& (0+255),w,b
  2833  000636  0100               	movlb	0	; () banked
  2834  000638  21C2               	addwfc	(??_main+3)& (0+255),w,b
  2835  00063A  6FEC               	movwf	(_ValorStateE+1)& (0+255),b
  2836                           
  2837                           ;glory.c: 293:             ValorBagSensor = (J6 * 2) + J13;
  2838  00063C  C0F6  F0BF         	movff	_J6,??_main
  2839  000640  C0F7  F0C0         	movff	_J6+1,??_main+1
  2840  000644  90D8               	bcf	status,0,c
  2841  000646  37BF               	rlcf	??_main& (0+255),f,b
  2842  000648  37C0               	rlcf	(??_main+1)& (0+255),f,b
  2843  00064A  51F2               	movf	_J13& (0+255),w,b
  2844  00064C  25BF               	addwf	??_main& (0+255),w,b
  2845  00064E  6FE5               	movwf	_ValorBagSensor& (0+255),b
  2846  000650  51F3               	movf	(_J13+1)& (0+255),w,b
  2847  000652  21C0               	addwfc	(??_main+1)& (0+255),w,b
  2848  000654  6FE6               	movwf	(_ValorBagSensor+1)& (0+255),b
  2849                           
  2850                           ;glory.c: 295:             if (J6 == 1 && J13 == 1)
  2851  000656  05F6               	decf	_J6& (0+255),w,b
  2852  000658  11F7               	iorwf	(_J6+1)& (0+255),w,b
  2853  00065A  A4D8               	btfss	status,2,c
  2854  00065C  EF32  F003         	goto	u4261
  2855  000660  EF34  F003         	goto	u4260
  2856  000664                     u4261:
  2857  000664  EF41  F003         	goto	l3664
  2858  000668                     u4260:
  2859  000668                     
  2860                           ; BSR set to: 0
  2861  000668  05F2               	decf	_J13& (0+255),w,b
  2862  00066A  11F3               	iorwf	(_J13+1)& (0+255),w,b
  2863  00066C  A4D8               	btfss	status,2,c
  2864  00066E  EF3B  F003         	goto	u4271
  2865  000672  EF3D  F003         	goto	u4270
  2866  000676                     u4271:
  2867  000676  EF41  F003         	goto	l3664
  2868  00067A                     u4270:
  2869  00067A                     
  2870                           ; BSR set to: 0
  2871                           ;glory.c: 296:                 ValorBagStatus = 2;
  2872  00067A  0E00               	movlw	0
  2873  00067C  6FE4               	movwf	(_ValorBagStatus+1)& (0+255),b
  2874  00067E  0E02               	movlw	2
  2875  000680  6FE3               	movwf	_ValorBagStatus& (0+255),b
  2876  000682                     l3664:
  2877                           
  2878                           ; BSR set to: 0
  2879                           ;glory.c: 297:             if (J6 == 0 && J13 == 1)
  2880  000682  51F6               	movf	_J6& (0+255),w,b
  2881  000684  11F7               	iorwf	(_J6+1)& (0+255),w,b
  2882  000686  A4D8               	btfss	status,2,c
  2883  000688  EF48  F003         	goto	u4281
  2884  00068C  EF4A  F003         	goto	u4280
  2885  000690                     u4281:
  2886  000690  EF57  F003         	goto	l3670
  2887  000694                     u4280:
  2888  000694                     
  2889                           ; BSR set to: 0
  2890  000694  05F2               	decf	_J13& (0+255),w,b
  2891  000696  11F3               	iorwf	(_J13+1)& (0+255),w,b
  2892  000698  A4D8               	btfss	status,2,c
  2893  00069A  EF51  F003         	goto	u4291
  2894  00069E  EF53  F003         	goto	u4290
  2895  0006A2                     u4291:
  2896  0006A2  EF57  F003         	goto	l3670
  2897  0006A6                     u4290:
  2898  0006A6                     
  2899                           ; BSR set to: 0
  2900                           ;glory.c: 298:                 ValorBagStatus = 0;
  2901  0006A6  0E00               	movlw	0
  2902  0006A8  6FE4               	movwf	(_ValorBagStatus+1)& (0+255),b
  2903  0006AA  0E00               	movlw	0
  2904  0006AC  6FE3               	movwf	_ValorBagStatus& (0+255),b
  2905  0006AE                     l3670:
  2906                           
  2907                           ; BSR set to: 0
  2908                           ;glory.c: 299:             if (J6 == 0 && J13 == 0)
  2909  0006AE  51F6               	movf	_J6& (0+255),w,b
  2910  0006B0  11F7               	iorwf	(_J6+1)& (0+255),w,b
  2911  0006B2  A4D8               	btfss	status,2,c
  2912  0006B4  EF5E  F003         	goto	u4301
  2913  0006B8  EF60  F003         	goto	u4300
  2914  0006BC                     u4301:
  2915  0006BC  EF6D  F003         	goto	l3676
  2916  0006C0                     u4300:
  2917  0006C0                     
  2918                           ; BSR set to: 0
  2919  0006C0  51F2               	movf	_J13& (0+255),w,b
  2920  0006C2  11F3               	iorwf	(_J13+1)& (0+255),w,b
  2921  0006C4  A4D8               	btfss	status,2,c
  2922  0006C6  EF67  F003         	goto	u4311
  2923  0006CA  EF69  F003         	goto	u4310
  2924  0006CE                     u4311:
  2925  0006CE  EF6D  F003         	goto	l3676
  2926  0006D2                     u4310:
  2927  0006D2                     
  2928                           ; BSR set to: 0
  2929                           ;glory.c: 300:                 ValorBagStatus = 1;
  2930  0006D2  0E00               	movlw	0
  2931  0006D4  6FE4               	movwf	(_ValorBagStatus+1)& (0+255),b
  2932  0006D6  0E01               	movlw	1
  2933  0006D8  6FE3               	movwf	_ValorBagStatus& (0+255),b
  2934  0006DA                     l3676:
  2935                           
  2936                           ; BSR set to: 0
  2937                           ;glory.c: 301:             if (J6 == 1 && J13 == 0)
  2938  0006DA  05F6               	decf	_J6& (0+255),w,b
  2939  0006DC  11F7               	iorwf	(_J6+1)& (0+255),w,b
  2940  0006DE  A4D8               	btfss	status,2,c
  2941  0006E0  EF74  F003         	goto	u4321
  2942  0006E4  EF76  F003         	goto	u4320
  2943  0006E8                     u4321:
  2944  0006E8  EF83  F003         	goto	l3682
  2945  0006EC                     u4320:
  2946  0006EC                     
  2947                           ; BSR set to: 0
  2948  0006EC  51F2               	movf	_J13& (0+255),w,b
  2949  0006EE  11F3               	iorwf	(_J13+1)& (0+255),w,b
  2950  0006F0  A4D8               	btfss	status,2,c
  2951  0006F2  EF7D  F003         	goto	u4331
  2952  0006F6  EF7F  F003         	goto	u4330
  2953  0006FA                     u4331:
  2954  0006FA  EF83  F003         	goto	l3682
  2955  0006FE                     u4330:
  2956  0006FE                     
  2957                           ; BSR set to: 0
  2958                           ;glory.c: 302:                 ValorBagStatus = 0;
  2959  0006FE  0E00               	movlw	0
  2960  000700  6FE4               	movwf	(_ValorBagStatus+1)& (0+255),b
  2961  000702  0E00               	movlw	0
  2962  000704  6FE3               	movwf	_ValorBagStatus& (0+255),b
  2963  000706                     l3682:
  2964                           
  2965                           ; BSR set to: 0
  2966                           ;glory.c: 309:        if ((PORTDbits.RD3 == 0) && (J6 == 1))
  2967  000706  B683               	btfsc	131,3,c	;volatile
  2968  000708  EF88  F003         	goto	u4341
  2969  00070C  EF8A  F003         	goto	u4340
  2970  000710                     u4341:
  2971  000710  EFAC  F003         	goto	l3692
  2972  000714                     u4340:
  2973  000714                     
  2974                           ; BSR set to: 0
  2975  000714  05F6               	decf	_J6& (0+255),w,b
  2976  000716  11F7               	iorwf	(_J6+1)& (0+255),w,b
  2977  000718  A4D8               	btfss	status,2,c
  2978  00071A  EF91  F003         	goto	u4351
  2979  00071E  EF93  F003         	goto	u4350
  2980  000722                     u4351:
  2981  000722  EFAC  F003         	goto	l3692
  2982  000726                     u4350:
  2983  000726                     
  2984                           ; BSR set to: 0
  2985                           ;glory.c: 310:         {;glory.c: 311:                 _delay((unsigned long)((100)*(800
      +                          0000/4000.0)));
  2986  000726  0E02               	movlw	2
  2987  000728  0100               	movlb	0	; () banked
  2988  00072A  6FC0               	movwf	(??_main+1)& (0+255),b
  2989  00072C  0E04               	movlw	4
  2990  00072E  6FBF               	movwf	??_main& (0+255),b
  2991  000730  0EBA               	movlw	186
  2992  000732                     u4827:
  2993  000732  2EE8               	decfsz	wreg,f,c
  2994  000734  D7FE               	bra	u4827
  2995  000736  2FBF               	decfsz	??_main& (0+255),f,b
  2996  000738  D7FC               	bra	u4827
  2997  00073A  2FC0               	decfsz	(??_main+1)& (0+255),f,b
  2998  00073C  D7FA               	bra	u4827
  2999  00073E  F000               	nop	
  3000  000740                     
  3001                           ;glory.c: 312:        if (PORTDbits.RD3 == 0)
  3002  000740  B683               	btfsc	131,3,c	;volatile
  3003  000742  EFA5  F003         	goto	u4361
  3004  000746  EFA7  F003         	goto	u4360
  3005  00074A                     u4361:
  3006  00074A  EFAC  F003         	goto	l3692
  3007  00074E                     u4360:
  3008  00074E                     
  3009                           ;glory.c: 313:             {;glory.c: 314:             J6 = 0;
  3010  00074E  0E00               	movlw	0
  3011  000750  0100               	movlb	0	; () banked
  3012  000752  6FF7               	movwf	(_J6+1)& (0+255),b
  3013  000754  0E00               	movlw	0
  3014  000756  6FF6               	movwf	_J6& (0+255),b
  3015  000758                     l3692:
  3016                           
  3017                           ;glory.c: 317:       if (PORTDbits.RD3 == 1)
  3018  000758  A683               	btfss	131,3,c	;volatile
  3019  00075A  EFB1  F003         	goto	u4371
  3020  00075E  EFB3  F003         	goto	u4370
  3021  000762                     u4371:
  3022  000762  EFB8  F003         	goto	l3696
  3023  000766                     u4370:
  3024  000766                     
  3025                           ;glory.c: 318:             J6 = 1;
  3026  000766  0E00               	movlw	0
  3027  000768  0100               	movlb	0	; () banked
  3028  00076A  6FF7               	movwf	(_J6+1)& (0+255),b
  3029  00076C  0E01               	movlw	1
  3030  00076E  6FF6               	movwf	_J6& (0+255),b
  3031  000770                     l3696:
  3032                           
  3033                           ;glory.c: 320:       if ((PORTDbits.RD2 == 0) && (J13 == 1))
  3034  000770  B483               	btfsc	131,2,c	;volatile
  3035  000772  EFBD  F003         	goto	u4381
  3036  000776  EFBF  F003         	goto	u4380
  3037  00077A                     u4381:
  3038  00077A  EFE2  F003         	goto	l3706
  3039  00077E                     u4380:
  3040  00077E  0100               	movlb	0	; () banked
  3041  000780  05F2               	decf	_J13& (0+255),w,b
  3042  000782  11F3               	iorwf	(_J13+1)& (0+255),w,b
  3043  000784  A4D8               	btfss	status,2,c
  3044  000786  EFC7  F003         	goto	u4391
  3045  00078A  EFC9  F003         	goto	u4390
  3046  00078E                     u4391:
  3047  00078E  EFE2  F003         	goto	l3706
  3048  000792                     u4390:
  3049  000792                     
  3050                           ; BSR set to: 0
  3051                           ;glory.c: 321:         {;glory.c: 322:                 _delay((unsigned long)((100)*(800
      +                          0000/4000.0)));
  3052  000792  0E02               	movlw	2
  3053  000794  0100               	movlb	0	; () banked
  3054  000796  6FC0               	movwf	(??_main+1)& (0+255),b
  3055  000798  0E04               	movlw	4
  3056  00079A  6FBF               	movwf	??_main& (0+255),b
  3057  00079C  0EBA               	movlw	186
  3058  00079E                     u4837:
  3059  00079E  2EE8               	decfsz	wreg,f,c
  3060  0007A0  D7FE               	bra	u4837
  3061  0007A2  2FBF               	decfsz	??_main& (0+255),f,b
  3062  0007A4  D7FC               	bra	u4837
  3063  0007A6  2FC0               	decfsz	(??_main+1)& (0+255),f,b
  3064  0007A8  D7FA               	bra	u4837
  3065  0007AA  F000               	nop	
  3066  0007AC                     
  3067                           ;glory.c: 323:       if (PORTDbits.RD2 == 0)
  3068  0007AC  B483               	btfsc	131,2,c	;volatile
  3069  0007AE  EFDB  F003         	goto	u4401
  3070  0007B2  EFDD  F003         	goto	u4400
  3071  0007B6                     u4401:
  3072  0007B6  EFE2  F003         	goto	l3706
  3073  0007BA                     u4400:
  3074  0007BA                     
  3075                           ;glory.c: 324:             {;glory.c: 325:             J13 = 0;
  3076  0007BA  0E00               	movlw	0
  3077  0007BC  0100               	movlb	0	; () banked
  3078  0007BE  6FF3               	movwf	(_J13+1)& (0+255),b
  3079  0007C0  0E00               	movlw	0
  3080  0007C2  6FF2               	movwf	_J13& (0+255),b
  3081  0007C4                     l3706:
  3082                           
  3083                           ;glory.c: 328:       if (PORTDbits.RD2 == 1)
  3084  0007C4  A483               	btfss	131,2,c	;volatile
  3085  0007C6  EFE7  F003         	goto	u4411
  3086  0007CA  EFE9  F003         	goto	u4410
  3087  0007CE                     u4411:
  3088  0007CE  EFEE  F003         	goto	l3710
  3089  0007D2                     u4410:
  3090  0007D2                     
  3091                           ;glory.c: 329:                 J13 = 1;
  3092  0007D2  0E00               	movlw	0
  3093  0007D4  0100               	movlb	0	; () banked
  3094  0007D6  6FF3               	movwf	(_J13+1)& (0+255),b
  3095  0007D8  0E01               	movlw	1
  3096  0007DA  6FF2               	movwf	_J13& (0+255),b
  3097  0007DC                     l3710:
  3098                           
  3099                           ;glory.c: 332:       if (J13 == 0 && J6 == 0){
  3100  0007DC  0100               	movlb	0	; () banked
  3101  0007DE  51F2               	movf	_J13& (0+255),w,b
  3102  0007E0  11F3               	iorwf	(_J13+1)& (0+255),w,b
  3103  0007E2  A4D8               	btfss	status,2,c
  3104  0007E4  EFF6  F003         	goto	u4421
  3105  0007E8  EFF8  F003         	goto	u4420
  3106  0007EC                     u4421:
  3107  0007EC  EF05  F004         	goto	l3716
  3108  0007F0                     u4420:
  3109  0007F0                     
  3110                           ; BSR set to: 0
  3111  0007F0  51F6               	movf	_J6& (0+255),w,b
  3112  0007F2  11F7               	iorwf	(_J6+1)& (0+255),w,b
  3113  0007F4  A4D8               	btfss	status,2,c
  3114  0007F6  EFFF  F003         	goto	u4431
  3115  0007FA  EF01  F004         	goto	u4430
  3116  0007FE                     u4431:
  3117  0007FE  EF05  F004         	goto	l3716
  3118  000802                     u4430:
  3119  000802                     
  3120                           ; BSR set to: 0
  3121                           ;glory.c: 333:           ValorBag = 2;
  3122  000802  0E00               	movlw	0
  3123  000804  6FF9               	movwf	(_ValorBag+1)& (0+255),b
  3124  000806  0E02               	movlw	2
  3125  000808  6FF8               	movwf	_ValorBag& (0+255),b
  3126  00080A                     l3716:
  3127                           
  3128                           ; BSR set to: 0
  3129                           ;glory.c: 337:       if (J13 == 0 && J6 == 1){
  3130  00080A  51F2               	movf	_J13& (0+255),w,b
  3131  00080C  11F3               	iorwf	(_J13+1)& (0+255),w,b
  3132  00080E  A4D8               	btfss	status,2,c
  3133  000810  EF0C  F004         	goto	u4441
  3134  000814  EF0E  F004         	goto	u4440
  3135  000818                     u4441:
  3136  000818  EF1B  F004         	goto	l3722
  3137  00081C                     u4440:
  3138  00081C                     
  3139                           ; BSR set to: 0
  3140  00081C  05F6               	decf	_J6& (0+255),w,b
  3141  00081E  11F7               	iorwf	(_J6+1)& (0+255),w,b
  3142  000820  A4D8               	btfss	status,2,c
  3143  000822  EF15  F004         	goto	u4451
  3144  000826  EF17  F004         	goto	u4450
  3145  00082A                     u4451:
  3146  00082A  EF1B  F004         	goto	l3722
  3147  00082E                     u4450:
  3148  00082E                     
  3149                           ; BSR set to: 0
  3150                           ;glory.c: 338:           ValorBag = 0;
  3151  00082E  0E00               	movlw	0
  3152  000830  6FF9               	movwf	(_ValorBag+1)& (0+255),b
  3153  000832  0E00               	movlw	0
  3154  000834  6FF8               	movwf	_ValorBag& (0+255),b
  3155  000836                     l3722:
  3156                           
  3157                           ; BSR set to: 0
  3158                           ;glory.c: 342:       if (J13 == 1 && J6 == 0){
  3159  000836  05F2               	decf	_J13& (0+255),w,b
  3160  000838  11F3               	iorwf	(_J13+1)& (0+255),w,b
  3161  00083A  A4D8               	btfss	status,2,c
  3162  00083C  EF22  F004         	goto	u4461
  3163  000840  EF24  F004         	goto	u4460
  3164  000844                     u4461:
  3165  000844  EF31  F004         	goto	l3728
  3166  000848                     u4460:
  3167  000848                     
  3168                           ; BSR set to: 0
  3169  000848  51F6               	movf	_J6& (0+255),w,b
  3170  00084A  11F7               	iorwf	(_J6+1)& (0+255),w,b
  3171  00084C  A4D8               	btfss	status,2,c
  3172  00084E  EF2B  F004         	goto	u4471
  3173  000852  EF2D  F004         	goto	u4470
  3174  000856                     u4471:
  3175  000856  EF31  F004         	goto	l3728
  3176  00085A                     u4470:
  3177  00085A                     
  3178                           ; BSR set to: 0
  3179                           ;glory.c: 343:           ValorBag = 0;
  3180  00085A  0E00               	movlw	0
  3181  00085C  6FF9               	movwf	(_ValorBag+1)& (0+255),b
  3182  00085E  0E00               	movlw	0
  3183  000860  6FF8               	movwf	_ValorBag& (0+255),b
  3184  000862                     l3728:
  3185                           
  3186                           ; BSR set to: 0
  3187                           ;glory.c: 347:       if ((J13 && J6)== 1){
  3188  000862  51F2               	movf	_J13& (0+255),w,b
  3189  000864  11F3               	iorwf	(_J13+1)& (0+255),w,b
  3190  000866  B4D8               	btfsc	status,2,c
  3191  000868  EF38  F004         	goto	u4481
  3192  00086C  EF3A  F004         	goto	u4480
  3193  000870                     u4481:
  3194  000870  EF47  F004         	goto	l3734
  3195  000874                     u4480:
  3196  000874                     
  3197                           ; BSR set to: 0
  3198  000874  51F6               	movf	_J6& (0+255),w,b
  3199  000876  11F7               	iorwf	(_J6+1)& (0+255),w,b
  3200  000878  B4D8               	btfsc	status,2,c
  3201  00087A  EF41  F004         	goto	u4491
  3202  00087E  EF43  F004         	goto	u4490
  3203  000882                     u4491:
  3204  000882  EF47  F004         	goto	l3734
  3205  000886                     u4490:
  3206  000886                     
  3207                           ; BSR set to: 0
  3208                           ;glory.c: 348:           ValorBag = 1;
  3209  000886  0E00               	movlw	0
  3210  000888  6FF9               	movwf	(_ValorBag+1)& (0+255),b
  3211  00088A  0E01               	movlw	1
  3212  00088C  6FF8               	movwf	_ValorBag& (0+255),b
  3213  00088E                     l3734:
  3214                           
  3215                           ; BSR set to: 0
  3216                           ;glory.c: 358:             if ((ValorBag != 2 || J6 != 0) && (ValorStateLock == 0))
  3217  00088E  0E02               	movlw	2
  3218  000890  19F8               	xorwf	_ValorBag& (0+255),w,b
  3219  000892  11F9               	iorwf	(_ValorBag+1)& (0+255),w,b
  3220  000894  A4D8               	btfss	status,2,c
  3221  000896  EF4F  F004         	goto	u4501
  3222  00089A  EF51  F004         	goto	u4500
  3223  00089E                     u4501:
  3224  00089E  EF5A  F004         	goto	l3738
  3225  0008A2                     u4500:
  3226  0008A2                     
  3227                           ; BSR set to: 0
  3228  0008A2  51F6               	movf	_J6& (0+255),w,b
  3229  0008A4  11F7               	iorwf	(_J6+1)& (0+255),w,b
  3230  0008A6  B4D8               	btfsc	status,2,c
  3231  0008A8  EF58  F004         	goto	u4511
  3232  0008AC  EF5A  F004         	goto	u4510
  3233  0008B0                     u4511:
  3234  0008B0  EF68  F004         	goto	l3742
  3235  0008B4                     u4510:
  3236  0008B4                     l3738:
  3237                           
  3238                           ; BSR set to: 0
  3239  0008B4  51E7               	movf	_ValorStateLock& (0+255),w,b
  3240  0008B6  11E8               	iorwf	(_ValorStateLock+1)& (0+255),w,b
  3241  0008B8  A4D8               	btfss	status,2,c
  3242  0008BA  EF61  F004         	goto	u4521
  3243  0008BE  EF63  F004         	goto	u4520
  3244  0008C2                     u4521:
  3245  0008C2  EF68  F004         	goto	l3742
  3246  0008C6                     u4520:
  3247  0008C6                     
  3248                           ; BSR set to: 0
  3249                           ;glory.c: 359:             {;glory.c: 360:                 LATC2 = 1;
  3250  0008C6  848B               	bsf	3979,2,c	;volatile
  3251                           
  3252                           ;glory.c: 361:                 TMR2IF = 0;
  3253  0008C8  929E               	bcf	3998,1,c	;volatile
  3254                           
  3255                           ;glory.c: 362:                 TMR2IE = 1;
  3256  0008CA  829D               	bsf	3997,1,c	;volatile
  3257                           
  3258                           ;glory.c: 363:             }
  3259  0008CC  EF7C  F004         	goto	l3746
  3260  0008D0                     l3742:
  3261                           
  3262                           ; BSR set to: 0
  3263                           ;glory.c: 365:             {;glory.c: 366:                 if (ValorStateLock == 1)
  3264  0008D0  05E7               	decf	_ValorStateLock& (0+255),w,b
  3265  0008D2  11E8               	iorwf	(_ValorStateLock+1)& (0+255),w,b
  3266  0008D4  A4D8               	btfss	status,2,c
  3267  0008D6  EF6F  F004         	goto	u4531
  3268  0008DA  EF71  F004         	goto	u4530
  3269  0008DE                     u4531:
  3270  0008DE  EF78  F004         	goto	l236
  3271  0008E2                     u4530:
  3272  0008E2                     
  3273                           ; BSR set to: 0
  3274                           ;glory.c: 367:                 {;glory.c: 368:                     LATC2 = 1;
  3275  0008E2  848B               	bsf	3979,2,c	;volatile
  3276                           
  3277                           ;glory.c: 369:                     LATE2 = 1;
  3278  0008E4  848D               	bsf	3981,2,c	;volatile
  3279                           
  3280                           ;glory.c: 370:                     LATE1 = 0;
  3281  0008E6  928D               	bcf	3981,1,c	;volatile
  3282                           
  3283                           ;glory.c: 371:                     TMR2IF = 0;
  3284  0008E8  929E               	bcf	3998,1,c	;volatile
  3285                           
  3286                           ;glory.c: 372:                     TMR2IE = 0;
  3287  0008EA  929D               	bcf	3997,1,c	;volatile
  3288                           
  3289                           ;glory.c: 373:                 }
  3290  0008EC  EF7C  F004         	goto	l3746
  3291  0008F0                     l236:
  3292                           
  3293                           ; BSR set to: 0
  3294                           ;glory.c: 375:                 {;glory.c: 376:                     LATC2 = 0;
  3295  0008F0  948B               	bcf	3979,2,c	;volatile
  3296                           
  3297                           ;glory.c: 377:                     LATE2 = 0;
  3298  0008F2  948D               	bcf	3981,2,c	;volatile
  3299                           
  3300                           ;glory.c: 378:                     LATE1 = 0;
  3301  0008F4  928D               	bcf	3981,1,c	;volatile
  3302                           
  3303                           ;glory.c: 379:                     TMR2IE = 0;
  3304  0008F6  929D               	bcf	3997,1,c	;volatile
  3305  0008F8                     l3746:
  3306                           
  3307                           ; BSR set to: 0
  3308                           ;glory.c: 382:             StartUp = 0;
  3309  0008F8  0E00               	movlw	0
  3310  0008FA  0101               	movlb	1	; () banked
  3311  0008FC  6FF0               	movwf	(_StartUp+1)& (0+255),b
  3312  0008FE  0E00               	movlw	0
  3313  000900  6FEF               	movwf	_StartUp& (0+255),b
  3314  000902  EFA9  F001         	goto	l3554
  3315  000906  EF07  F000         	goto	start
  3316  00090A                     __end_of_main:
  3317                           	callstack 0
  3318                           
  3319 ;; *************** function _USART_Init *****************
  3320 ;; Defined at:
  3321 ;;		line 393 in file "glory.c"
  3322 ;; Parameters:    Size  Location     Type
  3323 ;;  baud_rate       4   55[BANK0 ] long 
  3324 ;; Auto vars:     Size  Location     Type
  3325 ;;  temp            4   59[BANK0 ] float 
  3326 ;; Return value:  Size  Location     Type
  3327 ;;                  1    wreg      void 
  3328 ;; Registers used:
  3329 ;;		wreg, status,2, status,0, cstack
  3330 ;; Tracked objects:
  3331 ;;		On entry : 0/0
  3332 ;;		On exit  : 0/0
  3333 ;;		Unchanged: 0/0
  3334 ;; Data sizes:     COMRAM   BANK0   BANK1   BANK2   BANK3   BANK4   BANK5
  3335 ;;      Params:         0       4       0       0       0       0       0
  3336 ;;      Locals:         0       4       0       0       0       0       0
  3337 ;;      Temps:          0       0       0       0       0       0       0
  3338 ;;      Totals:         0       8       0       0       0       0       0
  3339 ;;Total ram usage:        8 bytes
  3340 ;; Hardware stack levels used: 1
  3341 ;; Hardware stack levels required when called: 10
  3342 ;; This function calls:
  3343 ;;		___fladd
  3344 ;;		___fldiv
  3345 ;;		___fltol
  3346 ;;		___xxtofl
  3347 ;; This function is called by:
  3348 ;;		_main
  3349 ;; This function uses a non-reentrant model
  3350 ;;
  3351                           
  3352                           	psect	text1
  3353  002964                     __ptext1:
  3354                           	callstack 0
  3355  002964                     _USART_Init:
  3356                           	callstack 20
  3357  002964                     
  3358                           ;glory.c: 393: void USART_Init(long baud_rate);glory.c: 394: {;glory.c: 395:     float t
      +                          emp;;glory.c: 396:     temp=(((float)(8000000/16)/(float)baud_rate)-1);
  3359  002964  C0B7  F080         	movff	USART_Init@baud_rate,___xxtofl@val
  3360  002968  C0B8  F081         	movff	USART_Init@baud_rate+1,___xxtofl@val+1
  3361  00296C  C0B9  F082         	movff	USART_Init@baud_rate+2,___xxtofl@val+2
  3362  002970  C0BA  F083         	movff	USART_Init@baud_rate+3,___xxtofl@val+3
  3363  002974  0E01               	movlw	1
  3364  002976  EC7A  F010         	call	___xxtofl
  3365  00297A  C080  F092         	movff	?___xxtofl,___fldiv@a
  3366  00297E  C081  F093         	movff	?___xxtofl+1,___fldiv@a+1
  3367  002982  C082  F094         	movff	?___xxtofl+2,___fldiv@a+2
  3368  002986  C083  F095         	movff	?___xxtofl+3,___fldiv@a+3
  3369  00298A  0E00               	movlw	0
  3370  00298C  0100               	movlb	0	; () banked
  3371  00298E  6F8E               	movwf	___fldiv@b& (0+255),b
  3372  002990  0E24               	movlw	36
  3373  002992  6F8F               	movwf	(___fldiv@b+1)& (0+255),b
  3374  002994  0EF4               	movlw	244
  3375  002996  6F90               	movwf	(___fldiv@b+2)& (0+255),b
  3376  002998  0E48               	movlw	72
  3377  00299A  6F91               	movwf	(___fldiv@b+3)& (0+255),b
  3378  00299C  EC3D  F00C         	call	___fldiv	;wreg free
  3379  0029A0  C08E  F0A7         	movff	?___fldiv,___fladd@b
  3380  0029A4  C08F  F0A8         	movff	?___fldiv+1,___fladd@b+1
  3381  0029A8  C090  F0A9         	movff	?___fldiv+2,___fladd@b+2
  3382  0029AC  C091  F0AA         	movff	?___fldiv+3,___fladd@b+3
  3383  0029B0  0E00               	movlw	0
  3384  0029B2  0100               	movlb	0	; () banked
  3385  0029B4  6FAB               	movwf	___fladd@a& (0+255),b
  3386  0029B6  0E00               	movlw	0
  3387  0029B8  6FAC               	movwf	(___fladd@a+1)& (0+255),b
  3388  0029BA  0E80               	movlw	128
  3389  0029BC  6FAD               	movwf	(___fladd@a+2)& (0+255),b
  3390  0029BE  0EBF               	movlw	191
  3391  0029C0  6FAE               	movwf	(___fladd@a+3)& (0+255),b
  3392  0029C2  ECC0  F007         	call	___fladd	;wreg free
  3393  0029C6  C0A7  F0BB         	movff	?___fladd,USART_Init@temp
  3394  0029CA  C0A8  F0BC         	movff	?___fladd+1,USART_Init@temp+1
  3395  0029CE  C0A9  F0BD         	movff	?___fladd+2,USART_Init@temp+2
  3396  0029D2  C0AA  F0BE         	movff	?___fladd+3,USART_Init@temp+3
  3397                           
  3398                           ;glory.c: 397:     SPBRG=(int)temp;
  3399  0029D6  C0BB  F080         	movff	USART_Init@temp,___fltol@f1
  3400  0029DA  C0BC  F081         	movff	USART_Init@temp+1,___fltol@f1+1
  3401  0029DE  C0BD  F082         	movff	USART_Init@temp+2,___fltol@f1+2
  3402  0029E2  C0BE  F083         	movff	USART_Init@temp+3,___fltol@f1+3
  3403  0029E6  EC1E  F012         	call	___fltol	;wreg free
  3404  0029EA  0100               	movlb	0	; () banked
  3405  0029EC  5180               	movf	?___fltol& (0+255),w,b
  3406  0029EE  6EAF               	movwf	175,c	;volatile
  3407  0029F0                     
  3408                           ; BSR set to: 0
  3409                           ;glory.c: 399:     TXSTA=0x24;
  3410  0029F0  0E24               	movlw	36
  3411  0029F2  6EAC               	movwf	172,c	;volatile
  3412  0029F4                     
  3413                           ; BSR set to: 0
  3414                           ;glory.c: 400:     RCSTA=0x90;
  3415  0029F4  0E90               	movlw	144
  3416  0029F6  6EAB               	movwf	171,c	;volatile
  3417  0029F8                     
  3418                           ; BSR set to: 0
  3419  0029F8  0012               	return		;funcret
  3420  0029FA                     __end_of_USART_Init:
  3421                           	callstack 0
  3422                           
  3423 ;; *************** function ___xxtofl *****************
  3424 ;; Defined at:
  3425 ;;		line 10 in file "C:\Program Files\Microchip\xc8\v2.32\pic\sources\c99\common\xxtofl.c"
  3426 ;; Parameters:    Size  Location     Type
  3427 ;;  sign            1    wreg     unsigned char 
  3428 ;;  val             4    0[BANK0 ] long 
  3429 ;; Auto vars:     Size  Location     Type
  3430 ;;  sign            1    8[BANK0 ] unsigned char 
  3431 ;;  arg             4   10[BANK0 ] unsigned long 
  3432 ;;  exp             1    9[BANK0 ] unsigned char 
  3433 ;; Return value:  Size  Location     Type
  3434 ;;                  4    0[BANK0 ] unsigned char 
  3435 ;; Registers used:
  3436 ;;		wreg, status,2, status,0
  3437 ;; Tracked objects:
  3438 ;;		On entry : 0/0
  3439 ;;		On exit  : 0/0
  3440 ;;		Unchanged: 0/0
  3441 ;; Data sizes:     COMRAM   BANK0   BANK1   BANK2   BANK3   BANK4   BANK5
  3442 ;;      Params:         0       4       0       0       0       0       0
  3443 ;;      Locals:         0       6       0       0       0       0       0
  3444 ;;      Temps:          0       4       0       0       0       0       0
  3445 ;;      Totals:         0      14       0       0       0       0       0
  3446 ;;Total ram usage:       14 bytes
  3447 ;; Hardware stack levels used: 1
  3448 ;; Hardware stack levels required when called: 9
  3449 ;; This function calls:
  3450 ;;		Nothing
  3451 ;; This function is called by:
  3452 ;;		_USART_Init
  3453 ;; This function uses a non-reentrant model
  3454 ;;
  3455                           
  3456                           	psect	text2
  3457  0020F4                     __ptext2:
  3458                           	callstack 0
  3459  0020F4                     ___xxtofl:
  3460                           	callstack 20
  3461                           
  3462                           ; BSR set to: 0
  3463                           ;incstack = 0
  3464                           ;___xxtofl@sign stored from wreg
  3465  0020F4  0100               	movlb	0	; () banked
  3466  0020F6  6F88               	movwf	___xxtofl@sign& (0+255),b
  3467  0020F8  0100               	movlb	0	; () banked
  3468  0020FA  5188               	movf	___xxtofl@sign& (0+255),w,b
  3469  0020FC  B4D8               	btfsc	status,2,c
  3470  0020FE  EF83  F010         	goto	u3811
  3471  002102  EF85  F010         	goto	u3810
  3472  002106                     u3811:
  3473  002106  EFA7  F010         	goto	l960
  3474  00210A                     u3810:
  3475  00210A                     
  3476                           ; BSR set to: 0
  3477  00210A  BF83               	btfsc	(___xxtofl@val+3)& (0+255),7,b
  3478  00210C  EF8C  F010         	goto	u3820
  3479  002110  EF8A  F010         	goto	u3821
  3480  002114                     u3821:
  3481  002114  EFA7  F010         	goto	l960
  3482  002118                     u3820:
  3483  002118                     
  3484                           ; BSR set to: 0
  3485  002118  C080  F084         	movff	___xxtofl@val,??___xxtofl
  3486  00211C  C081  F085         	movff	___xxtofl@val+1,??___xxtofl+1
  3487  002120  C082  F086         	movff	___xxtofl@val+2,??___xxtofl+2
  3488  002124  C083  F087         	movff	___xxtofl@val+3,??___xxtofl+3
  3489  002128  1F84               	comf	??___xxtofl& (0+255),f,b
  3490  00212A  1F85               	comf	(??___xxtofl+1)& (0+255),f,b
  3491  00212C  1F86               	comf	(??___xxtofl+2)& (0+255),f,b
  3492  00212E  1F87               	comf	(??___xxtofl+3)& (0+255),f,b
  3493  002130  2B84               	incf	??___xxtofl& (0+255),f,b
  3494  002132  0E00               	movlw	0
  3495  002134  2385               	addwfc	(??___xxtofl+1)& (0+255),f,b
  3496  002136  2386               	addwfc	(??___xxtofl+2)& (0+255),f,b
  3497  002138  2387               	addwfc	(??___xxtofl+3)& (0+255),f,b
  3498  00213A  C084  F08A         	movff	??___xxtofl,___xxtofl@arg
  3499  00213E  C085  F08B         	movff	??___xxtofl+1,___xxtofl@arg+1
  3500  002142  C086  F08C         	movff	??___xxtofl+2,___xxtofl@arg+2
  3501  002146  C087  F08D         	movff	??___xxtofl+3,___xxtofl@arg+3
  3502  00214A  EFAF  F010         	goto	l3400
  3503  00214E                     l960:
  3504                           
  3505                           ; BSR set to: 0
  3506  00214E  C080  F08A         	movff	___xxtofl@val,___xxtofl@arg
  3507  002152  C081  F08B         	movff	___xxtofl@val+1,___xxtofl@arg+1
  3508  002156  C082  F08C         	movff	___xxtofl@val+2,___xxtofl@arg+2
  3509  00215A  C083  F08D         	movff	___xxtofl@val+3,___xxtofl@arg+3
  3510  00215E                     l3400:
  3511                           
  3512                           ; BSR set to: 0
  3513  00215E  5180               	movf	___xxtofl@val& (0+255),w,b
  3514  002160  1181               	iorwf	(___xxtofl@val+1)& (0+255),w,b
  3515  002162  1182               	iorwf	(___xxtofl@val+2)& (0+255),w,b
  3516  002164  1183               	iorwf	(___xxtofl@val+3)& (0+255),w,b
  3517  002166  A4D8               	btfss	status,2,c
  3518  002168  EFB8  F010         	goto	u3831
  3519  00216C  EFBA  F010         	goto	u3830
  3520  002170                     u3831:
  3521  002170  EFC4  F010         	goto	l3406
  3522  002174                     u3830:
  3523  002174                     
  3524                           ; BSR set to: 0
  3525  002174  0E00               	movlw	0
  3526  002176  6F80               	movwf	?___xxtofl& (0+255),b
  3527  002178  0E00               	movlw	0
  3528  00217A  6F81               	movwf	(?___xxtofl+1)& (0+255),b
  3529  00217C  0E00               	movlw	0
  3530  00217E  6F82               	movwf	(?___xxtofl+2)& (0+255),b
  3531  002180  0E00               	movlw	0
  3532  002182  6F83               	movwf	(?___xxtofl+3)& (0+255),b
  3533  002184  EF55  F011         	goto	l963
  3534  002188                     l3406:
  3535                           
  3536                           ; BSR set to: 0
  3537  002188  0E96               	movlw	150
  3538  00218A  6F89               	movwf	___xxtofl@exp& (0+255),b
  3539  00218C  EFCE  F010         	goto	l3410
  3540  002190                     l3408:
  3541                           
  3542                           ; BSR set to: 0
  3543  002190  2B89               	incf	___xxtofl@exp& (0+255),f,b
  3544  002192  90D8               	bcf	status,0,c
  3545  002194  338D               	rrcf	(___xxtofl@arg+3)& (0+255),f,b
  3546  002196  338C               	rrcf	(___xxtofl@arg+2)& (0+255),f,b
  3547  002198  338B               	rrcf	(___xxtofl@arg+1)& (0+255),f,b
  3548  00219A  338A               	rrcf	___xxtofl@arg& (0+255),f,b
  3549  00219C                     l3410:
  3550                           
  3551                           ; BSR set to: 0
  3552  00219C  0E00               	movlw	0
  3553  00219E  158A               	andwf	___xxtofl@arg& (0+255),w,b
  3554  0021A0  6F84               	movwf	??___xxtofl& (0+255),b
  3555  0021A2  0E00               	movlw	0
  3556  0021A4  158B               	andwf	(___xxtofl@arg+1)& (0+255),w,b
  3557  0021A6  6F85               	movwf	(??___xxtofl+1)& (0+255),b
  3558  0021A8  0E00               	movlw	0
  3559  0021AA  158C               	andwf	(___xxtofl@arg+2)& (0+255),w,b
  3560  0021AC  6F86               	movwf	(??___xxtofl+2)& (0+255),b
  3561  0021AE  0EFE               	movlw	254
  3562  0021B0  158D               	andwf	(___xxtofl@arg+3)& (0+255),w,b
  3563  0021B2  6F87               	movwf	(??___xxtofl+3)& (0+255),b
  3564  0021B4  5184               	movf	??___xxtofl& (0+255),w,b
  3565  0021B6  1185               	iorwf	(??___xxtofl+1)& (0+255),w,b
  3566  0021B8  1186               	iorwf	(??___xxtofl+2)& (0+255),w,b
  3567  0021BA  1187               	iorwf	(??___xxtofl+3)& (0+255),w,b
  3568  0021BC  A4D8               	btfss	status,2,c
  3569  0021BE  EFE3  F010         	goto	u3841
  3570  0021C2  EFE5  F010         	goto	u3840
  3571  0021C6                     u3841:
  3572  0021C6  EFC8  F010         	goto	l3408
  3573  0021CA                     u3840:
  3574  0021CA  EFF3  F010         	goto	l967
  3575  0021CE                     l3412:
  3576                           
  3577                           ; BSR set to: 0
  3578  0021CE  2B89               	incf	___xxtofl@exp& (0+255),f,b
  3579  0021D0                     
  3580                           ; BSR set to: 0
  3581  0021D0  0E01               	movlw	1
  3582  0021D2  278A               	addwf	___xxtofl@arg& (0+255),f,b
  3583  0021D4  0E00               	movlw	0
  3584  0021D6  238B               	addwfc	(___xxtofl@arg+1)& (0+255),f,b
  3585  0021D8  238C               	addwfc	(___xxtofl@arg+2)& (0+255),f,b
  3586  0021DA  238D               	addwfc	(___xxtofl@arg+3)& (0+255),f,b
  3587  0021DC                     
  3588                           ; BSR set to: 0
  3589  0021DC  90D8               	bcf	status,0,c
  3590  0021DE  338D               	rrcf	(___xxtofl@arg+3)& (0+255),f,b
  3591  0021E0  338C               	rrcf	(___xxtofl@arg+2)& (0+255),f,b
  3592  0021E2  338B               	rrcf	(___xxtofl@arg+1)& (0+255),f,b
  3593  0021E4  338A               	rrcf	___xxtofl@arg& (0+255),f,b
  3594  0021E6                     l967:
  3595                           
  3596                           ; BSR set to: 0
  3597  0021E6  0E00               	movlw	0
  3598  0021E8  158A               	andwf	___xxtofl@arg& (0+255),w,b
  3599  0021EA  6F84               	movwf	??___xxtofl& (0+255),b
  3600  0021EC  0E00               	movlw	0
  3601  0021EE  158B               	andwf	(___xxtofl@arg+1)& (0+255),w,b
  3602  0021F0  6F85               	movwf	(??___xxtofl+1)& (0+255),b
  3603  0021F2  0E00               	movlw	0
  3604  0021F4  158C               	andwf	(___xxtofl@arg+2)& (0+255),w,b
  3605  0021F6  6F86               	movwf	(??___xxtofl+2)& (0+255),b
  3606  0021F8  0EFF               	movlw	255
  3607  0021FA  158D               	andwf	(___xxtofl@arg+3)& (0+255),w,b
  3608  0021FC  6F87               	movwf	(??___xxtofl+3)& (0+255),b
  3609  0021FE  5184               	movf	??___xxtofl& (0+255),w,b
  3610  002200  1185               	iorwf	(??___xxtofl+1)& (0+255),w,b
  3611  002202  1186               	iorwf	(??___xxtofl+2)& (0+255),w,b
  3612  002204  1187               	iorwf	(??___xxtofl+3)& (0+255),w,b
  3613  002206  A4D8               	btfss	status,2,c
  3614  002208  EF08  F011         	goto	u3851
  3615  00220C  EF0A  F011         	goto	u3850
  3616  002210                     u3851:
  3617  002210  EFE7  F010         	goto	l3412
  3618  002214                     u3850:
  3619  002214  EF12  F011         	goto	l3420
  3620  002218                     l3418:
  3621                           
  3622                           ; BSR set to: 0
  3623  002218  0789               	decf	___xxtofl@exp& (0+255),f,b
  3624  00221A  90D8               	bcf	status,0,c
  3625  00221C  378A               	rlcf	___xxtofl@arg& (0+255),f,b
  3626  00221E  378B               	rlcf	(___xxtofl@arg+1)& (0+255),f,b
  3627  002220  378C               	rlcf	(___xxtofl@arg+2)& (0+255),f,b
  3628  002222  378D               	rlcf	(___xxtofl@arg+3)& (0+255),f,b
  3629  002224                     l3420:
  3630                           
  3631                           ; BSR set to: 0
  3632  002224  BF8C               	btfsc	(___xxtofl@arg+2)& (0+255),7,b
  3633  002226  EF17  F011         	goto	u3861
  3634  00222A  EF19  F011         	goto	u3860
  3635  00222E                     u3861:
  3636  00222E  EF21  F011         	goto	l974
  3637  002232                     u3860:
  3638  002232                     
  3639                           ; BSR set to: 0
  3640  002232  0E02               	movlw	2
  3641  002234  6189               	cpfslt	___xxtofl@exp& (0+255),b
  3642  002236  EF1F  F011         	goto	u3871
  3643  00223A  EF21  F011         	goto	u3870
  3644  00223E                     u3871:
  3645  00223E  EF0C  F011         	goto	l3418
  3646  002242                     u3870:
  3647  002242                     l974:
  3648                           
  3649                           ; BSR set to: 0
  3650  002242  B189               	btfsc	___xxtofl@exp& (0+255),0,b
  3651  002244  EF26  F011         	goto	u3881
  3652  002248  EF28  F011         	goto	u3880
  3653  00224C                     u3881:
  3654  00224C  EF29  F011         	goto	l3426
  3655  002250                     u3880:
  3656  002250                     
  3657                           ; BSR set to: 0
  3658  002250  9F8C               	bcf	(___xxtofl@arg+2)& (0+255),7,b
  3659  002252                     l3426:
  3660                           
  3661                           ; BSR set to: 0
  3662  002252  90D8               	bcf	status,0,c
  3663  002254  3389               	rrcf	___xxtofl@exp& (0+255),f,b
  3664  002256                     
  3665                           ; BSR set to: 0
  3666  002256  C089  F084         	movff	___xxtofl@exp,??___xxtofl
  3667  00225A  6B85               	clrf	(??___xxtofl+1)& (0+255),b
  3668  00225C  6B86               	clrf	(??___xxtofl+2)& (0+255),b
  3669  00225E  6B87               	clrf	(??___xxtofl+3)& (0+255),b
  3670  002260  C084  F087         	movff	??___xxtofl,??___xxtofl+3
  3671  002264  6B86               	clrf	(??___xxtofl+2)& (0+255),b
  3672  002266  6B85               	clrf	(??___xxtofl+1)& (0+255),b
  3673  002268  6B84               	clrf	??___xxtofl& (0+255),b
  3674  00226A  5184               	movf	??___xxtofl& (0+255),w,b
  3675  00226C  138A               	iorwf	___xxtofl@arg& (0+255),f,b
  3676  00226E  5185               	movf	(??___xxtofl+1)& (0+255),w,b
  3677  002270  138B               	iorwf	(___xxtofl@arg+1)& (0+255),f,b
  3678  002272  5186               	movf	(??___xxtofl+2)& (0+255),w,b
  3679  002274  138C               	iorwf	(___xxtofl@arg+2)& (0+255),f,b
  3680  002276  5187               	movf	(??___xxtofl+3)& (0+255),w,b
  3681  002278  138D               	iorwf	(___xxtofl@arg+3)& (0+255),f,b
  3682  00227A                     
  3683                           ; BSR set to: 0
  3684  00227A  5188               	movf	___xxtofl@sign& (0+255),w,b
  3685  00227C  B4D8               	btfsc	status,2,c
  3686  00227E  EF43  F011         	goto	u3891
  3687  002282  EF45  F011         	goto	u3890
  3688  002286                     u3891:
  3689  002286  EF4D  F011         	goto	l3436
  3690  00228A                     u3890:
  3691  00228A                     
  3692                           ; BSR set to: 0
  3693  00228A  BF83               	btfsc	(___xxtofl@val+3)& (0+255),7,b
  3694  00228C  EF4C  F011         	goto	u3900
  3695  002290  EF4A  F011         	goto	u3901
  3696  002294                     u3901:
  3697  002294  EF4D  F011         	goto	l3436
  3698  002298                     u3900:
  3699  002298                     
  3700                           ; BSR set to: 0
  3701  002298  8F8D               	bsf	(___xxtofl@arg+3)& (0+255),7,b
  3702  00229A                     l3436:
  3703                           
  3704                           ; BSR set to: 0
  3705  00229A  C08A  F080         	movff	___xxtofl@arg,?___xxtofl
  3706  00229E  C08B  F081         	movff	___xxtofl@arg+1,?___xxtofl+1
  3707  0022A2  C08C  F082         	movff	___xxtofl@arg+2,?___xxtofl+2
  3708  0022A6  C08D  F083         	movff	___xxtofl@arg+3,?___xxtofl+3
  3709  0022AA                     l963:
  3710                           
  3711                           ; BSR set to: 0
  3712  0022AA  0012               	return		;funcret
  3713  0022AC                     __end_of___xxtofl:
  3714                           	callstack 0
  3715                           
  3716 ;; *************** function ___fltol *****************
  3717 ;; Defined at:
  3718 ;;		line 43 in file "C:\Program Files\Microchip\xc8\v2.32\pic\sources\c99\common\fltol.c"
  3719 ;; Parameters:    Size  Location     Type
  3720 ;;  f1              4    0[BANK0 ] unsigned char 
  3721 ;; Auto vars:     Size  Location     Type
  3722 ;;  exp1            1    9[BANK0 ] unsigned char 
  3723 ;;  sign1           1    8[BANK0 ] unsigned char 
  3724 ;; Return value:  Size  Location     Type
  3725 ;;                  4    0[BANK0 ] long 
  3726 ;; Registers used:
  3727 ;;		wreg, status,2, status,0
  3728 ;; Tracked objects:
  3729 ;;		On entry : 0/0
  3730 ;;		On exit  : 0/0
  3731 ;;		Unchanged: 0/0
  3732 ;; Data sizes:     COMRAM   BANK0   BANK1   BANK2   BANK3   BANK4   BANK5
  3733 ;;      Params:         0       4       0       0       0       0       0
  3734 ;;      Locals:         0       2       0       0       0       0       0
  3735 ;;      Temps:          0       4       0       0       0       0       0
  3736 ;;      Totals:         0      10       0       0       0       0       0
  3737 ;;Total ram usage:       10 bytes
  3738 ;; Hardware stack levels used: 1
  3739 ;; Hardware stack levels required when called: 9
  3740 ;; This function calls:
  3741 ;;		Nothing
  3742 ;; This function is called by:
  3743 ;;		_USART_Init
  3744 ;; This function uses a non-reentrant model
  3745 ;;
  3746                           
  3747                           	psect	text3
  3748  00243C                     __ptext3:
  3749                           	callstack 0
  3750  00243C                     ___fltol:
  3751                           	callstack 20
  3752  00243C  0100               	movlb	0	; () banked
  3753  00243E  3582               	rlcf	(___fltol@f1+2)& (0+255),w,b
  3754  002440  3583               	rlcf	(___fltol@f1+3)& (0+255),w,b
  3755  002442  6F89               	movwf	___fltol@exp1& (0+255),b
  3756  002444  5189               	movf	___fltol@exp1& (0+255),w,b
  3757  002446  A4D8               	btfss	status,2,c
  3758  002448  EF28  F012         	goto	u3741
  3759  00244C  EF2A  F012         	goto	u3740
  3760  002450                     u3741:
  3761  002450  EF34  F012         	goto	l3356
  3762  002454                     u3740:
  3763  002454                     l3352:
  3764                           
  3765                           ; BSR set to: 0
  3766  002454  0E00               	movlw	0
  3767  002456  6F80               	movwf	?___fltol& (0+255),b
  3768  002458  0E00               	movlw	0
  3769  00245A  6F81               	movwf	(?___fltol+1)& (0+255),b
  3770  00245C  0E00               	movlw	0
  3771  00245E  6F82               	movwf	(?___fltol+2)& (0+255),b
  3772  002460  0E00               	movlw	0
  3773  002462  6F83               	movwf	(?___fltol+3)& (0+255),b
  3774  002464  EFA1  F012         	goto	l602
  3775  002468                     l3356:
  3776                           
  3777                           ; BSR set to: 0
  3778  002468  C080  F084         	movff	___fltol@f1,??___fltol
  3779  00246C  C081  F085         	movff	___fltol@f1+1,??___fltol+1
  3780  002470  C082  F086         	movff	___fltol@f1+2,??___fltol+2
  3781  002474  C083  F087         	movff	___fltol@f1+3,??___fltol+3
  3782  002478  0E20               	movlw	32
  3783  00247A  EF44  F012         	goto	u3750
  3784  00247E                     u3755:
  3785  00247E  90D8               	bcf	status,0,c
  3786  002480  3387               	rrcf	(??___fltol+3)& (0+255),f,b
  3787  002482  3386               	rrcf	(??___fltol+2)& (0+255),f,b
  3788  002484  3385               	rrcf	(??___fltol+1)& (0+255),f,b
  3789  002486  3384               	rrcf	??___fltol& (0+255),f,b
  3790  002488                     u3750:
  3791  002488  2EE8               	decfsz	wreg,f,c
  3792  00248A  EF3F  F012         	goto	u3755
  3793  00248E  5184               	movf	??___fltol& (0+255),w,b
  3794  002490  6F88               	movwf	___fltol@sign1& (0+255),b
  3795  002492                     
  3796                           ; BSR set to: 0
  3797  002492  8F82               	bsf	(___fltol@f1+2)& (0+255),7,b
  3798  002494                     
  3799                           ; BSR set to: 0
  3800  002494  0EFF               	movlw	255
  3801  002496  1780               	andwf	___fltol@f1& (0+255),f,b
  3802  002498  0EFF               	movlw	255
  3803  00249A  1781               	andwf	(___fltol@f1+1)& (0+255),f,b
  3804  00249C  0EFF               	movlw	255
  3805  00249E  1782               	andwf	(___fltol@f1+2)& (0+255),f,b
  3806  0024A0  0E00               	movlw	0
  3807  0024A2  1783               	andwf	(___fltol@f1+3)& (0+255),f,b
  3808  0024A4                     
  3809                           ; BSR set to: 0
  3810  0024A4  0E96               	movlw	150
  3811  0024A6  5F89               	subwf	___fltol@exp1& (0+255),f,b
  3812  0024A8                     
  3813                           ; BSR set to: 0
  3814  0024A8  BF89               	btfsc	___fltol@exp1& (0+255),7,b
  3815  0024AA  EF5B  F012         	goto	u3760
  3816  0024AE  EF59  F012         	goto	u3761
  3817  0024B2                     u3761:
  3818  0024B2  EF71  F012         	goto	l3376
  3819  0024B6                     u3760:
  3820  0024B6                     
  3821                           ; BSR set to: 0
  3822  0024B6  5189               	movf	___fltol@exp1& (0+255),w,b
  3823  0024B8  0A80               	xorlw	128
  3824  0024BA  0F97               	addlw	151
  3825  0024BC  B0D8               	btfsc	status,0,c
  3826  0024BE  EF63  F012         	goto	u3771
  3827  0024C2  EF65  F012         	goto	u3770
  3828  0024C6                     u3771:
  3829  0024C6  EF67  F012         	goto	l3372
  3830  0024CA                     u3770:
  3831  0024CA  EF2A  F012         	goto	l3352
  3832  0024CE                     l3372:
  3833                           
  3834                           ; BSR set to: 0
  3835  0024CE  90D8               	bcf	status,0,c
  3836  0024D0  3383               	rrcf	(___fltol@f1+3)& (0+255),f,b
  3837  0024D2  3382               	rrcf	(___fltol@f1+2)& (0+255),f,b
  3838  0024D4  3381               	rrcf	(___fltol@f1+1)& (0+255),f,b
  3839  0024D6  3380               	rrcf	___fltol@f1& (0+255),f,b
  3840  0024D8                     
  3841                           ; BSR set to: 0
  3842  0024D8  3F89               	incfsz	___fltol@exp1& (0+255),f,b
  3843  0024DA  EF67  F012         	goto	l3372
  3844  0024DE  EF89  F012         	goto	l3386
  3845  0024E2                     l3376:
  3846                           
  3847                           ; BSR set to: 0
  3848  0024E2  0E1F               	movlw	31
  3849  0024E4  6589               	cpfsgt	___fltol@exp1& (0+255),b
  3850  0024E6  EF77  F012         	goto	u3781
  3851  0024EA  EF79  F012         	goto	u3780
  3852  0024EE                     u3781:
  3853  0024EE  EF81  F012         	goto	l3384
  3854  0024F2                     u3780:
  3855  0024F2  EF2A  F012         	goto	l3352
  3856  0024F6                     l3382:
  3857                           
  3858                           ; BSR set to: 0
  3859  0024F6  90D8               	bcf	status,0,c
  3860  0024F8  3780               	rlcf	___fltol@f1& (0+255),f,b
  3861  0024FA  3781               	rlcf	(___fltol@f1+1)& (0+255),f,b
  3862  0024FC  3782               	rlcf	(___fltol@f1+2)& (0+255),f,b
  3863  0024FE  3783               	rlcf	(___fltol@f1+3)& (0+255),f,b
  3864  002500  0789               	decf	___fltol@exp1& (0+255),f,b
  3865  002502                     l3384:
  3866                           
  3867                           ; BSR set to: 0
  3868  002502  5189               	movf	___fltol@exp1& (0+255),w,b
  3869  002504  A4D8               	btfss	status,2,c
  3870  002506  EF87  F012         	goto	u3791
  3871  00250A  EF89  F012         	goto	u3790
  3872  00250E                     u3791:
  3873  00250E  EF7B  F012         	goto	l3382
  3874  002512                     u3790:
  3875  002512                     l3386:
  3876                           
  3877                           ; BSR set to: 0
  3878  002512  5188               	movf	___fltol@sign1& (0+255),w,b
  3879  002514  B4D8               	btfsc	status,2,c
  3880  002516  EF8F  F012         	goto	u3801
  3881  00251A  EF91  F012         	goto	u3800
  3882  00251E                     u3801:
  3883  00251E  EF99  F012         	goto	l3390
  3884  002522                     u3800:
  3885  002522                     
  3886                           ; BSR set to: 0
  3887  002522  1F83               	comf	(___fltol@f1+3)& (0+255),f,b
  3888  002524  1F82               	comf	(___fltol@f1+2)& (0+255),f,b
  3889  002526  1F81               	comf	(___fltol@f1+1)& (0+255),f,b
  3890  002528  6D80               	negf	___fltol@f1& (0+255),b
  3891  00252A  0E00               	movlw	0
  3892  00252C  2381               	addwfc	(___fltol@f1+1)& (0+255),f,b
  3893  00252E  2382               	addwfc	(___fltol@f1+2)& (0+255),f,b
  3894  002530  2383               	addwfc	(___fltol@f1+3)& (0+255),f,b
  3895  002532                     l3390:
  3896                           
  3897                           ; BSR set to: 0
  3898  002532  C080  F080         	movff	___fltol@f1,?___fltol
  3899  002536  C081  F081         	movff	___fltol@f1+1,?___fltol+1
  3900  00253A  C082  F082         	movff	___fltol@f1+2,?___fltol+2
  3901  00253E  C083  F083         	movff	___fltol@f1+3,?___fltol+3
  3902  002542                     l602:
  3903                           
  3904                           ; BSR set to: 0
  3905  002542  0012               	return		;funcret
  3906  002544                     __end_of___fltol:
  3907                           	callstack 0
  3908                           
  3909 ;; *************** function ___fldiv *****************
  3910 ;; Defined at:
  3911 ;;		line 11 in file "C:\Program Files\Microchip\xc8\v2.32\pic\sources\c99\common\sprcdiv.c"
  3912 ;; Parameters:    Size  Location     Type
  3913 ;;  b               4   14[BANK0 ] long 
  3914 ;;  a               4   18[BANK0 ] long 
  3915 ;; Auto vars:     Size  Location     Type
  3916 ;;  grs             4   33[BANK0 ] unsigned long 
  3917 ;;  rem             4   26[BANK0 ] unsigned long 
  3918 ;;  new_exp         2   31[BANK0 ] short 
  3919 ;;  aexp            1   38[BANK0 ] unsigned char 
  3920 ;;  bexp            1   37[BANK0 ] unsigned char 
  3921 ;;  sign            1   30[BANK0 ] unsigned char 
  3922 ;; Return value:  Size  Location     Type
  3923 ;;                  4   14[BANK0 ] unsigned char 
  3924 ;; Registers used:
  3925 ;;		wreg, status,2, status,0
  3926 ;; Tracked objects:
  3927 ;;		On entry : 0/0
  3928 ;;		On exit  : 0/0
  3929 ;;		Unchanged: 0/0
  3930 ;; Data sizes:     COMRAM   BANK0   BANK1   BANK2   BANK3   BANK4   BANK5
  3931 ;;      Params:         0       8       0       0       0       0       0
  3932 ;;      Locals:         0      13       0       0       0       0       0
  3933 ;;      Temps:          0       4       0       0       0       0       0
  3934 ;;      Totals:         0      25       0       0       0       0       0
  3935 ;;Total ram usage:       25 bytes
  3936 ;; Hardware stack levels used: 1
  3937 ;; Hardware stack levels required when called: 9
  3938 ;; This function calls:
  3939 ;;		Nothing
  3940 ;; This function is called by:
  3941 ;;		_USART_Init
  3942 ;; This function uses a non-reentrant model
  3943 ;;
  3944                           
  3945                           	psect	text4
  3946  00187A                     __ptext4:
  3947                           	callstack 0
  3948  00187A                     ___fldiv:
  3949                           	callstack 20
  3950  00187A  0100               	movlb	0	; () banked
  3951  00187C  5191               	movf	(___fldiv@b+3)& (0+255),w,b
  3952  00187E  0B80               	andlw	128
  3953  001880  6F9E               	movwf	___fldiv@sign& (0+255),b
  3954  001882  5191               	movf	(___fldiv@b+3)& (0+255),w,b
  3955  001884  2591               	addwf	(___fldiv@b+3)& (0+255),w,b
  3956  001886  6FA5               	movwf	___fldiv@bexp& (0+255),b
  3957  001888                     
  3958                           ; BSR set to: 0
  3959  001888  AF90               	btfss	(___fldiv@b+2)& (0+255),7,b
  3960  00188A  EF49  F00C         	goto	u3511
  3961  00188E  EF4B  F00C         	goto	u3510
  3962  001892                     u3511:
  3963  001892  EF4C  F00C         	goto	l3218
  3964  001896                     u3510:
  3965  001896                     
  3966                           ; BSR set to: 0
  3967  001896  81A5               	bsf	___fldiv@bexp& (0+255),0,b
  3968  001898                     l3218:
  3969                           
  3970                           ; BSR set to: 0
  3971  001898  51A5               	movf	___fldiv@bexp& (0+255),w,b
  3972  00189A  B4D8               	btfsc	status,2,c
  3973  00189C  EF52  F00C         	goto	u3521
  3974  0018A0  EF54  F00C         	goto	u3520
  3975  0018A4                     u3521:
  3976  0018A4  EF69  F00C         	goto	l3228
  3977  0018A8                     u3520:
  3978  0018A8                     
  3979                           ; BSR set to: 0
  3980  0018A8  29A5               	incf	___fldiv@bexp& (0+255),w,b
  3981  0018AA  A4D8               	btfss	status,2,c
  3982  0018AC  EF5A  F00C         	goto	u3531
  3983  0018B0  EF5C  F00C         	goto	u3530
  3984  0018B4                     u3531:
  3985  0018B4  EF64  F00C         	goto	l3224
  3986  0018B8                     u3530:
  3987  0018B8                     
  3988                           ; BSR set to: 0
  3989  0018B8  0E00               	movlw	0
  3990  0018BA  6F8E               	movwf	___fldiv@b& (0+255),b
  3991  0018BC  0E00               	movlw	0
  3992  0018BE  6F8F               	movwf	(___fldiv@b+1)& (0+255),b
  3993  0018C0  0E00               	movlw	0
  3994  0018C2  6F90               	movwf	(___fldiv@b+2)& (0+255),b
  3995  0018C4  0E00               	movlw	0
  3996  0018C6  6F91               	movwf	(___fldiv@b+3)& (0+255),b
  3997  0018C8                     l3224:
  3998                           
  3999                           ; BSR set to: 0
  4000  0018C8  8F90               	bsf	(___fldiv@b+2)& (0+255),7,b
  4001  0018CA                     
  4002                           ; BSR set to: 0
  4003  0018CA  0E00               	movlw	0
  4004  0018CC  6F91               	movwf	(___fldiv@b+3)& (0+255),b
  4005  0018CE  EF71  F00C         	goto	l3230
  4006  0018D2                     l3228:
  4007                           
  4008                           ; BSR set to: 0
  4009  0018D2  0E00               	movlw	0
  4010  0018D4  6F8E               	movwf	___fldiv@b& (0+255),b
  4011  0018D6  0E00               	movlw	0
  4012  0018D8  6F8F               	movwf	(___fldiv@b+1)& (0+255),b
  4013  0018DA  0E00               	movlw	0
  4014  0018DC  6F90               	movwf	(___fldiv@b+2)& (0+255),b
  4015  0018DE  0E00               	movlw	0
  4016  0018E0  6F91               	movwf	(___fldiv@b+3)& (0+255),b
  4017  0018E2                     l3230:
  4018                           
  4019                           ; BSR set to: 0
  4020  0018E2  5195               	movf	(___fldiv@a+3)& (0+255),w,b
  4021  0018E4  0B80               	andlw	128
  4022  0018E6  1B9E               	xorwf	___fldiv@sign& (0+255),f,b
  4023  0018E8                     
  4024                           ; BSR set to: 0
  4025  0018E8  5195               	movf	(___fldiv@a+3)& (0+255),w,b
  4026  0018EA  2595               	addwf	(___fldiv@a+3)& (0+255),w,b
  4027  0018EC  6FA6               	movwf	___fldiv@aexp& (0+255),b
  4028  0018EE                     
  4029                           ; BSR set to: 0
  4030  0018EE  AF94               	btfss	(___fldiv@a+2)& (0+255),7,b
  4031  0018F0  EF7C  F00C         	goto	u3541
  4032  0018F4  EF7E  F00C         	goto	u3540
  4033  0018F8                     u3541:
  4034  0018F8  EF7F  F00C         	goto	l3238
  4035  0018FC                     u3540:
  4036  0018FC                     
  4037                           ; BSR set to: 0
  4038  0018FC  81A6               	bsf	___fldiv@aexp& (0+255),0,b
  4039  0018FE                     l3238:
  4040                           
  4041                           ; BSR set to: 0
  4042  0018FE  51A6               	movf	___fldiv@aexp& (0+255),w,b
  4043  001900  B4D8               	btfsc	status,2,c
  4044  001902  EF85  F00C         	goto	u3551
  4045  001906  EF87  F00C         	goto	u3550
  4046  00190A                     u3551:
  4047  00190A  EF9C  F00C         	goto	l3248
  4048  00190E                     u3550:
  4049  00190E                     
  4050                           ; BSR set to: 0
  4051  00190E  29A6               	incf	___fldiv@aexp& (0+255),w,b
  4052  001910  A4D8               	btfss	status,2,c
  4053  001912  EF8D  F00C         	goto	u3561
  4054  001916  EF8F  F00C         	goto	u3560
  4055  00191A                     u3561:
  4056  00191A  EF97  F00C         	goto	l3244
  4057  00191E                     u3560:
  4058  00191E                     
  4059                           ; BSR set to: 0
  4060  00191E  0E00               	movlw	0
  4061  001920  6F92               	movwf	___fldiv@a& (0+255),b
  4062  001922  0E00               	movlw	0
  4063  001924  6F93               	movwf	(___fldiv@a+1)& (0+255),b
  4064  001926  0E00               	movlw	0
  4065  001928  6F94               	movwf	(___fldiv@a+2)& (0+255),b
  4066  00192A  0E00               	movlw	0
  4067  00192C  6F95               	movwf	(___fldiv@a+3)& (0+255),b
  4068  00192E                     l3244:
  4069                           
  4070                           ; BSR set to: 0
  4071  00192E  8F94               	bsf	(___fldiv@a+2)& (0+255),7,b
  4072  001930                     
  4073                           ; BSR set to: 0
  4074  001930  0E00               	movlw	0
  4075  001932  6F95               	movwf	(___fldiv@a+3)& (0+255),b
  4076  001934  EFA4  F00C         	goto	l3250
  4077  001938                     l3248:
  4078                           
  4079                           ; BSR set to: 0
  4080  001938  0E00               	movlw	0
  4081  00193A  6F92               	movwf	___fldiv@a& (0+255),b
  4082  00193C  0E00               	movlw	0
  4083  00193E  6F93               	movwf	(___fldiv@a+1)& (0+255),b
  4084  001940  0E00               	movlw	0
  4085  001942  6F94               	movwf	(___fldiv@a+2)& (0+255),b
  4086  001944  0E00               	movlw	0
  4087  001946  6F95               	movwf	(___fldiv@a+3)& (0+255),b
  4088  001948                     l3250:
  4089                           
  4090                           ; BSR set to: 0
  4091  001948  5192               	movf	___fldiv@a& (0+255),w,b
  4092  00194A  1193               	iorwf	(___fldiv@a+1)& (0+255),w,b
  4093  00194C  1194               	iorwf	(___fldiv@a+2)& (0+255),w,b
  4094  00194E  1195               	iorwf	(___fldiv@a+3)& (0+255),w,b
  4095  001950  A4D8               	btfss	status,2,c
  4096  001952  EFAD  F00C         	goto	u3571
  4097  001956  EFAF  F00C         	goto	u3570
  4098  00195A                     u3571:
  4099  00195A  EFC7  F00C         	goto	l3262
  4100  00195E                     u3570:
  4101  00195E                     
  4102                           ; BSR set to: 0
  4103  00195E  0E00               	movlw	0
  4104  001960  6F8E               	movwf	___fldiv@b& (0+255),b
  4105  001962  0E00               	movlw	0
  4106  001964  6F8F               	movwf	(___fldiv@b+1)& (0+255),b
  4107  001966  0E00               	movlw	0
  4108  001968  6F90               	movwf	(___fldiv@b+2)& (0+255),b
  4109  00196A  0E00               	movlw	0
  4110  00196C  6F91               	movwf	(___fldiv@b+3)& (0+255),b
  4111  00196E                     
  4112                           ; BSR set to: 0
  4113  00196E  0E80               	movlw	128
  4114  001970  1390               	iorwf	(___fldiv@b+2)& (0+255),f,b
  4115  001972  0E7F               	movlw	127
  4116  001974  1391               	iorwf	(___fldiv@b+3)& (0+255),f,b
  4117  001976                     l3256:
  4118                           
  4119                           ; BSR set to: 0
  4120  001976  519E               	movf	___fldiv@sign& (0+255),w,b
  4121  001978  1391               	iorwf	(___fldiv@b+3)& (0+255),f,b
  4122  00197A                     
  4123                           ; BSR set to: 0
  4124  00197A  C08E  F08E         	movff	___fldiv@b,?___fldiv
  4125  00197E  C08F  F08F         	movff	___fldiv@b+1,?___fldiv+1
  4126  001982  C090  F090         	movff	___fldiv@b+2,?___fldiv+2
  4127  001986  C091  F091         	movff	___fldiv@b+3,?___fldiv+3
  4128  00198A  EF0A  F00E         	goto	l887
  4129  00198E                     l3262:
  4130                           
  4131                           ; BSR set to: 0
  4132  00198E  51A5               	movf	___fldiv@bexp& (0+255),w,b
  4133  001990  A4D8               	btfss	status,2,c
  4134  001992  EFCD  F00C         	goto	u3581
  4135  001996  EFCF  F00C         	goto	u3580
  4136  00199A                     u3581:
  4137  00199A  EFD9  F00C         	goto	l3270
  4138  00199E                     u3580:
  4139  00199E                     
  4140                           ; BSR set to: 0
  4141  00199E  0E00               	movlw	0
  4142  0019A0  6F8E               	movwf	?___fldiv& (0+255),b
  4143  0019A2  0E00               	movlw	0
  4144  0019A4  6F8F               	movwf	(?___fldiv+1)& (0+255),b
  4145  0019A6  0E00               	movlw	0
  4146  0019A8  6F90               	movwf	(?___fldiv+2)& (0+255),b
  4147  0019AA  0E00               	movlw	0
  4148  0019AC  6F91               	movwf	(?___fldiv+3)& (0+255),b
  4149  0019AE  EF0A  F00E         	goto	l887
  4150  0019B2                     l3270:
  4151                           
  4152                           ; BSR set to: 0
  4153  0019B2  51A6               	movf	___fldiv@aexp& (0+255),w,b
  4154  0019B4  C0A5  F096         	movff	___fldiv@bexp,??___fldiv
  4155  0019B8  6B97               	clrf	(??___fldiv+1)& (0+255),b
  4156  0019BA  5F96               	subwf	??___fldiv& (0+255),f,b
  4157  0019BC  0E00               	movlw	0
  4158  0019BE  5B97               	subwfb	(??___fldiv+1)& (0+255),f,b
  4159  0019C0  0E7F               	movlw	127
  4160  0019C2  2596               	addwf	??___fldiv& (0+255),w,b
  4161  0019C4  6F9F               	movwf	___fldiv@new_exp& (0+255),b
  4162  0019C6  0E00               	movlw	0
  4163  0019C8  2197               	addwfc	(??___fldiv+1)& (0+255),w,b
  4164  0019CA  6FA0               	movwf	(___fldiv@new_exp+1)& (0+255),b
  4165  0019CC                     
  4166                           ; BSR set to: 0
  4167  0019CC  C08E  F09A         	movff	___fldiv@b,___fldiv@rem
  4168  0019D0  C08F  F09B         	movff	___fldiv@b+1,___fldiv@rem+1
  4169  0019D4  C090  F09C         	movff	___fldiv@b+2,___fldiv@rem+2
  4170  0019D8  C091  F09D         	movff	___fldiv@b+3,___fldiv@rem+3
  4171  0019DC                     
  4172                           ; BSR set to: 0
  4173  0019DC  0E00               	movlw	0
  4174  0019DE  6F8E               	movwf	___fldiv@b& (0+255),b
  4175  0019E0  0E00               	movlw	0
  4176  0019E2  6F8F               	movwf	(___fldiv@b+1)& (0+255),b
  4177  0019E4  0E00               	movlw	0
  4178  0019E6  6F90               	movwf	(___fldiv@b+2)& (0+255),b
  4179  0019E8  0E00               	movlw	0
  4180  0019EA  6F91               	movwf	(___fldiv@b+3)& (0+255),b
  4181  0019EC                     
  4182                           ; BSR set to: 0
  4183  0019EC  0E00               	movlw	0
  4184  0019EE  6FA1               	movwf	___fldiv@grs& (0+255),b
  4185  0019F0  0E00               	movlw	0
  4186  0019F2  6FA2               	movwf	(___fldiv@grs+1)& (0+255),b
  4187  0019F4  0E00               	movlw	0
  4188  0019F6  6FA3               	movwf	(___fldiv@grs+2)& (0+255),b
  4189  0019F8  0E00               	movlw	0
  4190  0019FA  6FA4               	movwf	(___fldiv@grs+3)& (0+255),b
  4191  0019FC                     
  4192                           ; BSR set to: 0
  4193  0019FC  0E00               	movlw	0
  4194  0019FE  6FA6               	movwf	___fldiv@aexp& (0+255),b
  4195  001A00  EF3A  F00D         	goto	l889
  4196  001A04                     l3280:
  4197                           
  4198                           ; BSR set to: 0
  4199  001A04  51A6               	movf	___fldiv@aexp& (0+255),w,b
  4200  001A06  B4D8               	btfsc	status,2,c
  4201  001A08  EF08  F00D         	goto	u3591
  4202  001A0C  EF0A  F00D         	goto	u3590
  4203  001A10                     u3591:
  4204  001A10  EF21  F00D         	goto	l3288
  4205  001A14                     u3590:
  4206  001A14                     
  4207                           ; BSR set to: 0
  4208  001A14  90D8               	bcf	status,0,c
  4209  001A16  379A               	rlcf	___fldiv@rem& (0+255),f,b
  4210  001A18  379B               	rlcf	(___fldiv@rem+1)& (0+255),f,b
  4211  001A1A  379C               	rlcf	(___fldiv@rem+2)& (0+255),f,b
  4212  001A1C  379D               	rlcf	(___fldiv@rem+3)& (0+255),f,b
  4213  001A1E  90D8               	bcf	status,0,c
  4214  001A20  378E               	rlcf	___fldiv@b& (0+255),f,b
  4215  001A22  378F               	rlcf	(___fldiv@b+1)& (0+255),f,b
  4216  001A24  3790               	rlcf	(___fldiv@b+2)& (0+255),f,b
  4217  001A26  3791               	rlcf	(___fldiv@b+3)& (0+255),f,b
  4218  001A28                     
  4219                           ; BSR set to: 0
  4220  001A28  AFA4               	btfss	(___fldiv@grs+3)& (0+255),7,b
  4221  001A2A  EF19  F00D         	goto	u3601
  4222  001A2E  EF1B  F00D         	goto	u3600
  4223  001A32                     u3601:
  4224  001A32  EF1C  F00D         	goto	l892
  4225  001A36                     u3600:
  4226  001A36                     
  4227                           ; BSR set to: 0
  4228  001A36  818E               	bsf	___fldiv@b& (0+255),0,b
  4229  001A38                     l892:
  4230                           
  4231                           ; BSR set to: 0
  4232  001A38  90D8               	bcf	status,0,c
  4233  001A3A  37A1               	rlcf	___fldiv@grs& (0+255),f,b
  4234  001A3C  37A2               	rlcf	(___fldiv@grs+1)& (0+255),f,b
  4235  001A3E  37A3               	rlcf	(___fldiv@grs+2)& (0+255),f,b
  4236  001A40  37A4               	rlcf	(___fldiv@grs+3)& (0+255),f,b
  4237  001A42                     l3288:
  4238                           
  4239                           ; BSR set to: 0
  4240  001A42  5192               	movf	___fldiv@a& (0+255),w,b
  4241  001A44  5D9A               	subwf	___fldiv@rem& (0+255),w,b
  4242  001A46  5193               	movf	(___fldiv@a+1)& (0+255),w,b
  4243  001A48  599B               	subwfb	(___fldiv@rem+1)& (0+255),w,b
  4244  001A4A  5194               	movf	(___fldiv@a+2)& (0+255),w,b
  4245  001A4C  599C               	subwfb	(___fldiv@rem+2)& (0+255),w,b
  4246  001A4E  5195               	movf	(___fldiv@a+3)& (0+255),w,b
  4247  001A50  599D               	subwfb	(___fldiv@rem+3)& (0+255),w,b
  4248  001A52  A0D8               	btfss	status,0,c
  4249  001A54  EF2E  F00D         	goto	u3611
  4250  001A58  EF30  F00D         	goto	u3610
  4251  001A5C                     u3611:
  4252  001A5C  EF39  F00D         	goto	l3294
  4253  001A60                     u3610:
  4254  001A60                     
  4255                           ; BSR set to: 0
  4256  001A60  8DA4               	bsf	(___fldiv@grs+3)& (0+255),6,b
  4257  001A62                     
  4258                           ; BSR set to: 0
  4259  001A62  5192               	movf	___fldiv@a& (0+255),w,b
  4260  001A64  5F9A               	subwf	___fldiv@rem& (0+255),f,b
  4261  001A66  5193               	movf	(___fldiv@a+1)& (0+255),w,b
  4262  001A68  5B9B               	subwfb	(___fldiv@rem+1)& (0+255),f,b
  4263  001A6A  5194               	movf	(___fldiv@a+2)& (0+255),w,b
  4264  001A6C  5B9C               	subwfb	(___fldiv@rem+2)& (0+255),f,b
  4265  001A6E  5195               	movf	(___fldiv@a+3)& (0+255),w,b
  4266  001A70  5B9D               	subwfb	(___fldiv@rem+3)& (0+255),f,b
  4267  001A72                     l3294:
  4268                           
  4269                           ; BSR set to: 0
  4270  001A72  2BA6               	incf	___fldiv@aexp& (0+255),f,b
  4271  001A74                     l889:
  4272                           
  4273                           ; BSR set to: 0
  4274  001A74  0E19               	movlw	25
  4275  001A76  65A6               	cpfsgt	___fldiv@aexp& (0+255),b
  4276  001A78  EF40  F00D         	goto	u3621
  4277  001A7C  EF42  F00D         	goto	u3620
  4278  001A80                     u3621:
  4279  001A80  EF02  F00D         	goto	l3280
  4280  001A84                     u3620:
  4281  001A84                     
  4282                           ; BSR set to: 0
  4283  001A84  519A               	movf	___fldiv@rem& (0+255),w,b
  4284  001A86  119B               	iorwf	(___fldiv@rem+1)& (0+255),w,b
  4285  001A88  119C               	iorwf	(___fldiv@rem+2)& (0+255),w,b
  4286  001A8A  119D               	iorwf	(___fldiv@rem+3)& (0+255),w,b
  4287  001A8C  B4D8               	btfsc	status,2,c
  4288  001A8E  EF4B  F00D         	goto	u3631
  4289  001A92  EF4D  F00D         	goto	u3630
  4290  001A96                     u3631:
  4291  001A96  EF65  F00D         	goto	l3306
  4292  001A9A                     u3630:
  4293  001A9A                     
  4294                           ; BSR set to: 0
  4295  001A9A  81A1               	bsf	___fldiv@grs& (0+255),0,b
  4296  001A9C  EF65  F00D         	goto	l3306
  4297  001AA0                     l3300:
  4298                           
  4299                           ; BSR set to: 0
  4300  001AA0  90D8               	bcf	status,0,c
  4301  001AA2  378E               	rlcf	___fldiv@b& (0+255),f,b
  4302  001AA4  378F               	rlcf	(___fldiv@b+1)& (0+255),f,b
  4303  001AA6  3790               	rlcf	(___fldiv@b+2)& (0+255),f,b
  4304  001AA8  3791               	rlcf	(___fldiv@b+3)& (0+255),f,b
  4305  001AAA                     
  4306                           ; BSR set to: 0
  4307  001AAA  AFA4               	btfss	(___fldiv@grs+3)& (0+255),7,b
  4308  001AAC  EF5A  F00D         	goto	u3641
  4309  001AB0  EF5C  F00D         	goto	u3640
  4310  001AB4                     u3641:
  4311  001AB4  EF5D  F00D         	goto	l898
  4312  001AB8                     u3640:
  4313  001AB8                     
  4314                           ; BSR set to: 0
  4315  001AB8  818E               	bsf	___fldiv@b& (0+255),0,b
  4316  001ABA                     l898:
  4317                           
  4318                           ; BSR set to: 0
  4319  001ABA  90D8               	bcf	status,0,c
  4320  001ABC  37A1               	rlcf	___fldiv@grs& (0+255),f,b
  4321  001ABE  37A2               	rlcf	(___fldiv@grs+1)& (0+255),f,b
  4322  001AC0  37A3               	rlcf	(___fldiv@grs+2)& (0+255),f,b
  4323  001AC2  37A4               	rlcf	(___fldiv@grs+3)& (0+255),f,b
  4324  001AC4  079F               	decf	___fldiv@new_exp& (0+255),f,b
  4325  001AC6  A0D8               	btfss	status,0,c
  4326  001AC8  07A0               	decf	(___fldiv@new_exp+1)& (0+255),f,b
  4327  001ACA                     l3306:
  4328                           
  4329                           ; BSR set to: 0
  4330  001ACA  AF90               	btfss	(___fldiv@b+2)& (0+255),7,b
  4331  001ACC  EF6A  F00D         	goto	u3651
  4332  001AD0  EF6C  F00D         	goto	u3650
  4333  001AD4                     u3651:
  4334  001AD4  EF50  F00D         	goto	l3300
  4335  001AD8                     u3650:
  4336  001AD8                     
  4337                           ; BSR set to: 0
  4338  001AD8  0E00               	movlw	0
  4339  001ADA  6FA6               	movwf	___fldiv@aexp& (0+255),b
  4340  001ADC                     
  4341                           ; BSR set to: 0
  4342  001ADC  AFA4               	btfss	(___fldiv@grs+3)& (0+255),7,b
  4343  001ADE  EF73  F00D         	goto	u3661
  4344  001AE2  EF75  F00D         	goto	u3660
  4345  001AE6                     u3661:
  4346  001AE6  EF99  F00D         	goto	l900
  4347  001AEA                     u3660:
  4348  001AEA                     
  4349                           ; BSR set to: 0
  4350  001AEA  0EFF               	movlw	255
  4351  001AEC  15A1               	andwf	___fldiv@grs& (0+255),w,b
  4352  001AEE  6F96               	movwf	??___fldiv& (0+255),b
  4353  001AF0  0EFF               	movlw	255
  4354  001AF2  15A2               	andwf	(___fldiv@grs+1)& (0+255),w,b
  4355  001AF4  6F97               	movwf	(??___fldiv+1)& (0+255),b
  4356  001AF6  0EFF               	movlw	255
  4357  001AF8  15A3               	andwf	(___fldiv@grs+2)& (0+255),w,b
  4358  001AFA  6F98               	movwf	(??___fldiv+2)& (0+255),b
  4359  001AFC  0E7F               	movlw	127
  4360  001AFE  15A4               	andwf	(___fldiv@grs+3)& (0+255),w,b
  4361  001B00  6F99               	movwf	(??___fldiv+3)& (0+255),b
  4362  001B02  5196               	movf	??___fldiv& (0+255),w,b
  4363  001B04  1197               	iorwf	(??___fldiv+1)& (0+255),w,b
  4364  001B06  1198               	iorwf	(??___fldiv+2)& (0+255),w,b
  4365  001B08  1199               	iorwf	(??___fldiv+3)& (0+255),w,b
  4366  001B0A  B4D8               	btfsc	status,2,c
  4367  001B0C  EF8A  F00D         	goto	u3671
  4368  001B10  EF8C  F00D         	goto	u3670
  4369  001B14                     u3671:
  4370  001B14  EF90  F00D         	goto	l901
  4371  001B18                     u3670:
  4372  001B18                     l3314:
  4373                           
  4374                           ; BSR set to: 0
  4375  001B18  0E01               	movlw	1
  4376  001B1A  6FA6               	movwf	___fldiv@aexp& (0+255),b
  4377  001B1C  EF99  F00D         	goto	l900
  4378  001B20                     l901:
  4379                           
  4380                           ; BSR set to: 0
  4381  001B20  A18E               	btfss	___fldiv@b& (0+255),0,b
  4382  001B22  EF95  F00D         	goto	u3681
  4383  001B26  EF97  F00D         	goto	u3680
  4384  001B2A                     u3681:
  4385  001B2A  EF99  F00D         	goto	l900
  4386  001B2E                     u3680:
  4387  001B2E  EF8C  F00D         	goto	l3314
  4388  001B32                     l900:
  4389                           
  4390                           ; BSR set to: 0
  4391  001B32  51A6               	movf	___fldiv@aexp& (0+255),w,b
  4392  001B34  B4D8               	btfsc	status,2,c
  4393  001B36  EF9F  F00D         	goto	u3691
  4394  001B3A  EFA1  F00D         	goto	u3690
  4395  001B3E                     u3691:
  4396  001B3E  EFC5  F00D         	goto	l3326
  4397  001B42                     u3690:
  4398  001B42                     
  4399                           ; BSR set to: 0
  4400  001B42  0E01               	movlw	1
  4401  001B44  278E               	addwf	___fldiv@b& (0+255),f,b
  4402  001B46  0E00               	movlw	0
  4403  001B48  238F               	addwfc	(___fldiv@b+1)& (0+255),f,b
  4404  001B4A  2390               	addwfc	(___fldiv@b+2)& (0+255),f,b
  4405  001B4C  2391               	addwfc	(___fldiv@b+3)& (0+255),f,b
  4406  001B4E                     
  4407                           ; BSR set to: 0
  4408  001B4E  A191               	btfss	(___fldiv@b+3)& (0+255),0,b
  4409  001B50  EFAC  F00D         	goto	u3701
  4410  001B54  EFAE  F00D         	goto	u3700
  4411  001B58                     u3701:
  4412  001B58  EFC5  F00D         	goto	l3326
  4413  001B5C                     u3700:
  4414  001B5C                     
  4415                           ; BSR set to: 0
  4416  001B5C  C08E  F096         	movff	___fldiv@b,??___fldiv
  4417  001B60  C08F  F097         	movff	___fldiv@b+1,??___fldiv+1
  4418  001B64  C090  F098         	movff	___fldiv@b+2,??___fldiv+2
  4419  001B68  C091  F099         	movff	___fldiv@b+3,??___fldiv+3
  4420  001B6C  3599               	rlcf	(??___fldiv+3)& (0+255),w,b
  4421  001B6E  3399               	rrcf	(??___fldiv+3)& (0+255),f,b
  4422  001B70  3398               	rrcf	(??___fldiv+2)& (0+255),f,b
  4423  001B72  3397               	rrcf	(??___fldiv+1)& (0+255),f,b
  4424  001B74  3396               	rrcf	??___fldiv& (0+255),f,b
  4425  001B76  C096  F08E         	movff	??___fldiv,___fldiv@b
  4426  001B7A  C097  F08F         	movff	??___fldiv+1,___fldiv@b+1
  4427  001B7E  C098  F090         	movff	??___fldiv+2,___fldiv@b+2
  4428  001B82  C099  F091         	movff	??___fldiv+3,___fldiv@b+3
  4429  001B86                     
  4430                           ; BSR set to: 0
  4431  001B86  4B9F               	infsnz	___fldiv@new_exp& (0+255),f,b
  4432  001B88  2BA0               	incf	(___fldiv@new_exp+1)& (0+255),f,b
  4433  001B8A                     l3326:
  4434                           
  4435                           ; BSR set to: 0
  4436  001B8A  BFA0               	btfsc	(___fldiv@new_exp+1)& (0+255),7,b
  4437  001B8C  EFD0  F00D         	goto	u3711
  4438  001B90  51A0               	movf	(___fldiv@new_exp+1)& (0+255),w,b
  4439  001B92  E108               	bnz	u3710
  4440  001B94  299F               	incf	___fldiv@new_exp& (0+255),w,b
  4441  001B96  A0D8               	btfss	status,0,c
  4442  001B98  EFD0  F00D         	goto	u3711
  4443  001B9C  EFD2  F00D         	goto	u3710
  4444  001BA0                     u3711:
  4445  001BA0  EFDD  F00D         	goto	l3330
  4446  001BA4                     u3710:
  4447  001BA4                     
  4448                           ; BSR set to: 0
  4449  001BA4  0E00               	movlw	0
  4450  001BA6  6FA0               	movwf	(___fldiv@new_exp+1)& (0+255),b
  4451  001BA8  699F               	setf	___fldiv@new_exp& (0+255),b
  4452  001BAA  0E00               	movlw	0
  4453  001BAC  6F8E               	movwf	___fldiv@b& (0+255),b
  4454  001BAE  0E00               	movlw	0
  4455  001BB0  6F8F               	movwf	(___fldiv@b+1)& (0+255),b
  4456  001BB2  0E00               	movlw	0
  4457  001BB4  6F90               	movwf	(___fldiv@b+2)& (0+255),b
  4458  001BB6  0E00               	movlw	0
  4459  001BB8  6F91               	movwf	(___fldiv@b+3)& (0+255),b
  4460  001BBA                     l3330:
  4461                           
  4462                           ; BSR set to: 0
  4463  001BBA  BFA0               	btfsc	(___fldiv@new_exp+1)& (0+255),7,b
  4464  001BBC  EFEA  F00D         	goto	u3720
  4465  001BC0  51A0               	movf	(___fldiv@new_exp+1)& (0+255),w,b
  4466  001BC2  E106               	bnz	u3721
  4467  001BC4  059F               	decf	___fldiv@new_exp& (0+255),w,b
  4468  001BC6  B0D8               	btfsc	status,0,c
  4469  001BC8  EFE8  F00D         	goto	u3721
  4470  001BCC  EFEA  F00D         	goto	u3720
  4471  001BD0                     u3721:
  4472  001BD0  EFF8  F00D         	goto	l3334
  4473  001BD4                     u3720:
  4474  001BD4                     
  4475                           ; BSR set to: 0
  4476  001BD4  0E00               	movlw	0
  4477  001BD6  6FA0               	movwf	(___fldiv@new_exp+1)& (0+255),b
  4478  001BD8  0E00               	movlw	0
  4479  001BDA  6F9F               	movwf	___fldiv@new_exp& (0+255),b
  4480  001BDC  0E00               	movlw	0
  4481  001BDE  6F8E               	movwf	___fldiv@b& (0+255),b
  4482  001BE0  0E00               	movlw	0
  4483  001BE2  6F8F               	movwf	(___fldiv@b+1)& (0+255),b
  4484  001BE4  0E00               	movlw	0
  4485  001BE6  6F90               	movwf	(___fldiv@b+2)& (0+255),b
  4486  001BE8  0E00               	movlw	0
  4487  001BEA  6F91               	movwf	(___fldiv@b+3)& (0+255),b
  4488  001BEC  0E00               	movlw	0
  4489  001BEE  6F9E               	movwf	___fldiv@sign& (0+255),b
  4490  001BF0                     l3334:
  4491                           
  4492                           ; BSR set to: 0
  4493  001BF0  C09F  F0A5         	movff	___fldiv@new_exp,___fldiv@bexp
  4494  001BF4                     
  4495                           ; BSR set to: 0
  4496  001BF4  A1A5               	btfss	___fldiv@bexp& (0+255),0,b
  4497  001BF6  EFFF  F00D         	goto	u3731
  4498  001BFA  EF01  F00E         	goto	u3730
  4499  001BFE                     u3731:
  4500  001BFE  EF04  F00E         	goto	l3340
  4501  001C02                     u3730:
  4502  001C02                     
  4503                           ; BSR set to: 0
  4504  001C02  8F90               	bsf	(___fldiv@b+2)& (0+255),7,b
  4505  001C04  EF05  F00E         	goto	l3342
  4506  001C08                     l3340:
  4507                           
  4508                           ; BSR set to: 0
  4509  001C08  9F90               	bcf	(___fldiv@b+2)& (0+255),7,b
  4510  001C0A                     l3342:
  4511                           
  4512                           ; BSR set to: 0
  4513  001C0A  90D8               	bcf	status,0,c
  4514  001C0C  31A5               	rrcf	___fldiv@bexp& (0+255),w,b
  4515  001C0E  6F91               	movwf	(___fldiv@b+3)& (0+255),b
  4516  001C10  EFBB  F00C         	goto	l3256
  4517  001C14                     l887:
  4518                           
  4519                           ; BSR set to: 0
  4520  001C14  0012               	return		;funcret
  4521  001C16                     __end_of___fldiv:
  4522                           	callstack 0
  4523                           
  4524 ;; *************** function ___fladd *****************
  4525 ;; Defined at:
  4526 ;;		line 10 in file "C:\Program Files\Microchip\xc8\v2.32\pic\sources\c99\common\sprcadd.c"
  4527 ;; Parameters:    Size  Location     Type
  4528 ;;  b               4   39[BANK0 ] unsigned char 
  4529 ;;  a               4   43[BANK0 ] unsigned char 
  4530 ;; Auto vars:     Size  Location     Type
  4531 ;;  grs             1   54[BANK0 ] unsigned char 
  4532 ;;  bexp            1   53[BANK0 ] unsigned char 
  4533 ;;  aexp            1   52[BANK0 ] unsigned char 
  4534 ;;  signs           1   51[BANK0 ] unsigned char 
  4535 ;; Return value:  Size  Location     Type
  4536 ;;                  4   39[BANK0 ] unsigned char 
  4537 ;; Registers used:
  4538 ;;		wreg, status,2, status,0
  4539 ;; Tracked objects:
  4540 ;;		On entry : 0/0
  4541 ;;		On exit  : 0/0
  4542 ;;		Unchanged: 0/0
  4543 ;; Data sizes:     COMRAM   BANK0   BANK1   BANK2   BANK3   BANK4   BANK5
  4544 ;;      Params:         0       8       0       0       0       0       0
  4545 ;;      Locals:         0       4       0       0       0       0       0
  4546 ;;      Temps:          0       4       0       0       0       0       0
  4547 ;;      Totals:         0      16       0       0       0       0       0
  4548 ;;Total ram usage:       16 bytes
  4549 ;; Hardware stack levels used: 1
  4550 ;; Hardware stack levels required when called: 9
  4551 ;; This function calls:
  4552 ;;		Nothing
  4553 ;; This function is called by:
  4554 ;;		_USART_Init
  4555 ;; This function uses a non-reentrant model
  4556 ;;
  4557                           
  4558                           	psect	text5
  4559  000F80                     __ptext5:
  4560                           	callstack 0
  4561  000F80                     ___fladd:
  4562                           	callstack 20
  4563  000F80  0100               	movlb	0	; () banked
  4564  000F82  51AA               	movf	(___fladd@b+3)& (0+255),w,b
  4565  000F84  0B80               	andlw	128
  4566  000F86  6FB3               	movwf	___fladd@signs& (0+255),b
  4567  000F88  51AA               	movf	(___fladd@b+3)& (0+255),w,b
  4568  000F8A  25AA               	addwf	(___fladd@b+3)& (0+255),w,b
  4569  000F8C  6FB5               	movwf	___fladd@bexp& (0+255),b
  4570  000F8E                     
  4571                           ; BSR set to: 0
  4572  000F8E  AFA9               	btfss	(___fladd@b+2)& (0+255),7,b
  4573  000F90  EFCC  F007         	goto	u3121
  4574  000F94  EFCE  F007         	goto	u3120
  4575  000F98                     u3121:
  4576  000F98  EFCF  F007         	goto	l3016
  4577  000F9C                     u3120:
  4578  000F9C                     
  4579                           ; BSR set to: 0
  4580  000F9C  81B5               	bsf	___fladd@bexp& (0+255),0,b
  4581  000F9E                     l3016:
  4582                           
  4583                           ; BSR set to: 0
  4584  000F9E  51B5               	movf	___fladd@bexp& (0+255),w,b
  4585  000FA0  B4D8               	btfsc	status,2,c
  4586  000FA2  EFD5  F007         	goto	u3131
  4587  000FA6  EFD7  F007         	goto	u3130
  4588  000FAA                     u3131:
  4589  000FAA  EFEC  F007         	goto	l3026
  4590  000FAE                     u3130:
  4591  000FAE                     
  4592                           ; BSR set to: 0
  4593  000FAE  29B5               	incf	___fladd@bexp& (0+255),w,b
  4594  000FB0  A4D8               	btfss	status,2,c
  4595  000FB2  EFDD  F007         	goto	u3141
  4596  000FB6  EFDF  F007         	goto	u3140
  4597  000FBA                     u3141:
  4598  000FBA  EFE7  F007         	goto	l3022
  4599  000FBE                     u3140:
  4600  000FBE                     
  4601                           ; BSR set to: 0
  4602  000FBE  0E00               	movlw	0
  4603  000FC0  6FA7               	movwf	___fladd@b& (0+255),b
  4604  000FC2  0E00               	movlw	0
  4605  000FC4  6FA8               	movwf	(___fladd@b+1)& (0+255),b
  4606  000FC6  0E00               	movlw	0
  4607  000FC8  6FA9               	movwf	(___fladd@b+2)& (0+255),b
  4608  000FCA  0E00               	movlw	0
  4609  000FCC  6FAA               	movwf	(___fladd@b+3)& (0+255),b
  4610  000FCE                     l3022:
  4611                           
  4612                           ; BSR set to: 0
  4613  000FCE  8FA9               	bsf	(___fladd@b+2)& (0+255),7,b
  4614  000FD0                     
  4615                           ; BSR set to: 0
  4616  000FD0  0E00               	movlw	0
  4617  000FD2  6FAA               	movwf	(___fladd@b+3)& (0+255),b
  4618  000FD4  EFF4  F007         	goto	l3028
  4619  000FD8                     l3026:
  4620                           
  4621                           ; BSR set to: 0
  4622  000FD8  0E00               	movlw	0
  4623  000FDA  6FA7               	movwf	___fladd@b& (0+255),b
  4624  000FDC  0E00               	movlw	0
  4625  000FDE  6FA8               	movwf	(___fladd@b+1)& (0+255),b
  4626  000FE0  0E00               	movlw	0
  4627  000FE2  6FA9               	movwf	(___fladd@b+2)& (0+255),b
  4628  000FE4  0E00               	movlw	0
  4629  000FE6  6FAA               	movwf	(___fladd@b+3)& (0+255),b
  4630  000FE8                     l3028:
  4631                           
  4632                           ; BSR set to: 0
  4633  000FE8  51AE               	movf	(___fladd@a+3)& (0+255),w,b
  4634  000FEA  0B80               	andlw	128
  4635  000FEC  6FB4               	movwf	___fladd@aexp& (0+255),b
  4636  000FEE                     
  4637                           ; BSR set to: 0
  4638  000FEE  51B3               	movf	___fladd@signs& (0+255),w,b
  4639  000FF0  19B4               	xorwf	___fladd@aexp& (0+255),w,b
  4640  000FF2  B4D8               	btfsc	status,2,c
  4641  000FF4  EFFE  F007         	goto	u3151
  4642  000FF8  EF00  F008         	goto	u3150
  4643  000FFC                     u3151:
  4644  000FFC  EF01  F008         	goto	l3034
  4645  001000                     u3150:
  4646  001000                     
  4647                           ; BSR set to: 0
  4648  001000  8DB3               	bsf	___fladd@signs& (0+255),6,b
  4649  001002                     l3034:
  4650                           
  4651                           ; BSR set to: 0
  4652  001002  51AE               	movf	(___fladd@a+3)& (0+255),w,b
  4653  001004  25AE               	addwf	(___fladd@a+3)& (0+255),w,b
  4654  001006  6FB4               	movwf	___fladd@aexp& (0+255),b
  4655  001008                     
  4656                           ; BSR set to: 0
  4657  001008  AFAD               	btfss	(___fladd@a+2)& (0+255),7,b
  4658  00100A  EF09  F008         	goto	u3161
  4659  00100E  EF0B  F008         	goto	u3160
  4660  001012                     u3161:
  4661  001012  EF0C  F008         	goto	l3040
  4662  001016                     u3160:
  4663  001016                     
  4664                           ; BSR set to: 0
  4665  001016  81B4               	bsf	___fladd@aexp& (0+255),0,b
  4666  001018                     l3040:
  4667                           
  4668                           ; BSR set to: 0
  4669  001018  51B4               	movf	___fladd@aexp& (0+255),w,b
  4670  00101A  B4D8               	btfsc	status,2,c
  4671  00101C  EF12  F008         	goto	u3171
  4672  001020  EF14  F008         	goto	u3170
  4673  001024                     u3171:
  4674  001024  EF29  F008         	goto	l3050
  4675  001028                     u3170:
  4676  001028                     
  4677                           ; BSR set to: 0
  4678  001028  29B4               	incf	___fladd@aexp& (0+255),w,b
  4679  00102A  A4D8               	btfss	status,2,c
  4680  00102C  EF1A  F008         	goto	u3181
  4681  001030  EF1C  F008         	goto	u3180
  4682  001034                     u3181:
  4683  001034  EF24  F008         	goto	l3046
  4684  001038                     u3180:
  4685  001038                     
  4686                           ; BSR set to: 0
  4687  001038  0E00               	movlw	0
  4688  00103A  6FAB               	movwf	___fladd@a& (0+255),b
  4689  00103C  0E00               	movlw	0
  4690  00103E  6FAC               	movwf	(___fladd@a+1)& (0+255),b
  4691  001040  0E00               	movlw	0
  4692  001042  6FAD               	movwf	(___fladd@a+2)& (0+255),b
  4693  001044  0E00               	movlw	0
  4694  001046  6FAE               	movwf	(___fladd@a+3)& (0+255),b
  4695  001048                     l3046:
  4696                           
  4697                           ; BSR set to: 0
  4698  001048  8FAD               	bsf	(___fladd@a+2)& (0+255),7,b
  4699  00104A                     
  4700                           ; BSR set to: 0
  4701  00104A  0E00               	movlw	0
  4702  00104C  6FAE               	movwf	(___fladd@a+3)& (0+255),b
  4703  00104E  EF31  F008         	goto	l3052
  4704  001052                     l3050:
  4705                           
  4706                           ; BSR set to: 0
  4707  001052  0E00               	movlw	0
  4708  001054  6FAB               	movwf	___fladd@a& (0+255),b
  4709  001056  0E00               	movlw	0
  4710  001058  6FAC               	movwf	(___fladd@a+1)& (0+255),b
  4711  00105A  0E00               	movlw	0
  4712  00105C  6FAD               	movwf	(___fladd@a+2)& (0+255),b
  4713  00105E  0E00               	movlw	0
  4714  001060  6FAE               	movwf	(___fladd@a+3)& (0+255),b
  4715  001062                     l3052:
  4716                           
  4717                           ; BSR set to: 0
  4718  001062  51B5               	movf	___fladd@bexp& (0+255),w,b
  4719  001064  5DB4               	subwf	___fladd@aexp& (0+255),w,b
  4720  001066  B0D8               	btfsc	status,0,c
  4721  001068  EF38  F008         	goto	u3191
  4722  00106C  EF3A  F008         	goto	u3190
  4723  001070                     u3191:
  4724  001070  EF61  F008         	goto	l3088
  4725  001074                     u3190:
  4726  001074                     
  4727                           ; BSR set to: 0
  4728  001074  ADB3               	btfss	___fladd@signs& (0+255),6,b
  4729  001076  EF3F  F008         	goto	u3201
  4730  00107A  EF41  F008         	goto	u3200
  4731  00107E                     u3201:
  4732  00107E  EF43  F008         	goto	l3058
  4733  001082                     u3200:
  4734  001082                     
  4735                           ; BSR set to: 0
  4736  001082  0E80               	movlw	128
  4737  001084  1BB3               	xorwf	___fladd@signs& (0+255),f,b
  4738  001086                     l3058:
  4739                           
  4740                           ; BSR set to: 0
  4741  001086  C0B5  F0B6         	movff	___fladd@bexp,___fladd@grs
  4742  00108A                     
  4743                           ; BSR set to: 0
  4744  00108A  C0B4  F0B5         	movff	___fladd@aexp,___fladd@bexp
  4745  00108E                     
  4746                           ; BSR set to: 0
  4747  00108E  C0B6  F0B4         	movff	___fladd@grs,___fladd@aexp
  4748  001092                     
  4749                           ; BSR set to: 0
  4750  001092  C0A7  F0B6         	movff	___fladd@b,___fladd@grs
  4751  001096                     
  4752                           ; BSR set to: 0
  4753  001096  C0AB  F0A7         	movff	___fladd@a,___fladd@b
  4754  00109A                     
  4755                           ; BSR set to: 0
  4756  00109A  C0B6  F0AB         	movff	___fladd@grs,___fladd@a
  4757  00109E                     
  4758                           ; BSR set to: 0
  4759  00109E  C0A8  F0B6         	movff	___fladd@b+1,___fladd@grs
  4760  0010A2                     
  4761                           ; BSR set to: 0
  4762  0010A2  C0AC  F0A8         	movff	___fladd@a+1,___fladd@b+1
  4763  0010A6                     
  4764                           ; BSR set to: 0
  4765  0010A6  C0B6  F0AC         	movff	___fladd@grs,___fladd@a+1
  4766  0010AA                     
  4767                           ; BSR set to: 0
  4768  0010AA  C0A9  F0B6         	movff	___fladd@b+2,___fladd@grs
  4769  0010AE                     
  4770                           ; BSR set to: 0
  4771  0010AE  C0AD  F0A9         	movff	___fladd@a+2,___fladd@b+2
  4772  0010B2                     
  4773                           ; BSR set to: 0
  4774  0010B2  C0B6  F0AD         	movff	___fladd@grs,___fladd@a+2
  4775  0010B6                     
  4776                           ; BSR set to: 0
  4777  0010B6  C0AA  F0B6         	movff	___fladd@b+3,___fladd@grs
  4778  0010BA                     
  4779                           ; BSR set to: 0
  4780  0010BA  C0AE  F0AA         	movff	___fladd@a+3,___fladd@b+3
  4781  0010BE                     
  4782                           ; BSR set to: 0
  4783  0010BE  C0B6  F0AE         	movff	___fladd@grs,___fladd@a+3
  4784  0010C2                     l3088:
  4785                           
  4786                           ; BSR set to: 0
  4787  0010C2  0E00               	movlw	0
  4788  0010C4  6FB6               	movwf	___fladd@grs& (0+255),b
  4789  0010C6                     
  4790                           ; BSR set to: 0
  4791  0010C6  51B5               	movf	___fladd@bexp& (0+255),w,b
  4792  0010C8  C0B4  F0AF         	movff	___fladd@aexp,??___fladd
  4793  0010CC  6BB0               	clrf	(??___fladd+1)& (0+255),b
  4794  0010CE  5FAF               	subwf	??___fladd& (0+255),f,b
  4795  0010D0  0E00               	movlw	0
  4796  0010D2  5BB0               	subwfb	(??___fladd+1)& (0+255),f,b
  4797  0010D4  BFB0               	btfsc	(??___fladd+1)& (0+255),7,b
  4798  0010D6  EF76  F008         	goto	u3211
  4799  0010DA  51B0               	movf	(??___fladd+1)& (0+255),w,b
  4800  0010DC  E109               	bnz	u3210
  4801  0010DE  0E1A               	movlw	26
  4802  0010E0  5DAF               	subwf	??___fladd& (0+255),w,b
  4803  0010E2  A0D8               	btfss	status,0,c
  4804  0010E4  EF76  F008         	goto	u3211
  4805  0010E8  EF78  F008         	goto	u3210
  4806  0010EC                     u3211:
  4807  0010EC  EFAF  F008         	goto	l834
  4808  0010F0                     u3210:
  4809  0010F0                     
  4810                           ; BSR set to: 0
  4811  0010F0  51A7               	movf	___fladd@b& (0+255),w,b
  4812  0010F2  11A8               	iorwf	(___fladd@b+1)& (0+255),w,b
  4813  0010F4  11A9               	iorwf	(___fladd@b+2)& (0+255),w,b
  4814  0010F6  11AA               	iorwf	(___fladd@b+3)& (0+255),w,b
  4815  0010F8  A4D8               	btfss	status,2,c
  4816  0010FA  EF81  F008         	goto	u3221
  4817  0010FE  EF84  F008         	goto	u3220
  4818  001102                     u3221:
  4819  001102  0E01               	movlw	1
  4820  001104  EF85  F008         	goto	u3230
  4821  001108                     u3220:
  4822  001108  0E00               	movlw	0
  4823  00110A                     u3230:
  4824  00110A  6FB6               	movwf	___fladd@grs& (0+255),b
  4825  00110C                     
  4826                           ; BSR set to: 0
  4827  00110C  0E00               	movlw	0
  4828  00110E  6FA7               	movwf	___fladd@b& (0+255),b
  4829  001110  0E00               	movlw	0
  4830  001112  6FA8               	movwf	(___fladd@b+1)& (0+255),b
  4831  001114  0E00               	movlw	0
  4832  001116  6FA9               	movwf	(___fladd@b+2)& (0+255),b
  4833  001118  0E00               	movlw	0
  4834  00111A  6FAA               	movwf	(___fladd@b+3)& (0+255),b
  4835  00111C                     
  4836                           ; BSR set to: 0
  4837  00111C  C0B4  F0B5         	movff	___fladd@aexp,___fladd@bexp
  4838  001120  EFB8  F008         	goto	l833
  4839  001124                     l835:
  4840                           
  4841                           ; BSR set to: 0
  4842  001124  A1B6               	btfss	___fladd@grs& (0+255),0,b
  4843  001126  EF97  F008         	goto	u3241
  4844  00112A  EF99  F008         	goto	u3240
  4845  00112E                     u3241:
  4846  00112E  EF9F  F008         	goto	l3100
  4847  001132                     u3240:
  4848  001132                     
  4849                           ; BSR set to: 0
  4850  001132  90D8               	bcf	status,0,c
  4851  001134  31B6               	rrcf	___fladd@grs& (0+255),w,b
  4852  001136  0901               	iorlw	1
  4853  001138  6FB6               	movwf	___fladd@grs& (0+255),b
  4854  00113A  EFA1  F008         	goto	l3102
  4855  00113E                     l3100:
  4856                           
  4857                           ; BSR set to: 0
  4858  00113E  90D8               	bcf	status,0,c
  4859  001140  33B6               	rrcf	___fladd@grs& (0+255),f,b
  4860  001142                     l3102:
  4861                           
  4862                           ; BSR set to: 0
  4863  001142  A1A7               	btfss	___fladd@b& (0+255),0,b
  4864  001144  EFA6  F008         	goto	u3251
  4865  001148  EFA8  F008         	goto	u3250
  4866  00114C                     u3251:
  4867  00114C  EFA9  F008         	goto	l3106
  4868  001150                     u3250:
  4869  001150                     
  4870                           ; BSR set to: 0
  4871  001150  8FB6               	bsf	___fladd@grs& (0+255),7,b
  4872  001152                     l3106:
  4873                           
  4874                           ; BSR set to: 0
  4875  001152  35AA               	rlcf	(___fladd@b+3)& (0+255),w,b
  4876  001154  33AA               	rrcf	(___fladd@b+3)& (0+255),f,b
  4877  001156  33A9               	rrcf	(___fladd@b+2)& (0+255),f,b
  4878  001158  33A8               	rrcf	(___fladd@b+1)& (0+255),f,b
  4879  00115A  33A7               	rrcf	___fladd@b& (0+255),f,b
  4880  00115C                     
  4881                           ; BSR set to: 0
  4882  00115C  2BB5               	incf	___fladd@bexp& (0+255),f,b
  4883  00115E                     l834:
  4884                           
  4885                           ; BSR set to: 0
  4886  00115E  51B4               	movf	___fladd@aexp& (0+255),w,b
  4887  001160  5DB5               	subwf	___fladd@bexp& (0+255),w,b
  4888  001162  A0D8               	btfss	status,0,c
  4889  001164  EFB6  F008         	goto	u3261
  4890  001168  EFB8  F008         	goto	u3260
  4891  00116C                     u3261:
  4892  00116C  EF92  F008         	goto	l835
  4893  001170                     u3260:
  4894  001170                     l833:
  4895                           
  4896                           ; BSR set to: 0
  4897  001170  BDB3               	btfsc	___fladd@signs& (0+255),6,b
  4898  001172  EFBD  F008         	goto	u3271
  4899  001176  EFBF  F008         	goto	u3270
  4900  00117A                     u3271:
  4901  00117A  EFFF  F008         	goto	l3134
  4902  00117E                     u3270:
  4903  00117E                     
  4904                           ; BSR set to: 0
  4905  00117E  51B5               	movf	___fladd@bexp& (0+255),w,b
  4906  001180  A4D8               	btfss	status,2,c
  4907  001182  EFC5  F008         	goto	u3281
  4908  001186  EFC7  F008         	goto	u3280
  4909  00118A                     u3281:
  4910  00118A  EFD1  F008         	goto	l3116
  4911  00118E                     u3280:
  4912  00118E                     
  4913                           ; BSR set to: 0
  4914  00118E  0E00               	movlw	0
  4915  001190  6FA7               	movwf	?___fladd& (0+255),b
  4916  001192  0E00               	movlw	0
  4917  001194  6FA8               	movwf	(?___fladd+1)& (0+255),b
  4918  001196  0E00               	movlw	0
  4919  001198  6FA9               	movwf	(?___fladd+2)& (0+255),b
  4920  00119A  0E00               	movlw	0
  4921  00119C  6FAA               	movwf	(?___fladd+3)& (0+255),b
  4922  00119E  EF20  F00A         	goto	l842
  4923  0011A2                     l3116:
  4924                           
  4925                           ; BSR set to: 0
  4926  0011A2  51AB               	movf	___fladd@a& (0+255),w,b
  4927  0011A4  27A7               	addwf	___fladd@b& (0+255),f,b
  4928  0011A6  51AC               	movf	(___fladd@a+1)& (0+255),w,b
  4929  0011A8  23A8               	addwfc	(___fladd@b+1)& (0+255),f,b
  4930  0011AA  51AD               	movf	(___fladd@a+2)& (0+255),w,b
  4931  0011AC  23A9               	addwfc	(___fladd@b+2)& (0+255),f,b
  4932  0011AE  51AE               	movf	(___fladd@a+3)& (0+255),w,b
  4933  0011B0  23AA               	addwfc	(___fladd@b+3)& (0+255),f,b
  4934  0011B2                     
  4935                           ; BSR set to: 0
  4936  0011B2  A1AA               	btfss	(___fladd@b+3)& (0+255),0,b
  4937  0011B4  EFDE  F008         	goto	u3291
  4938  0011B8  EFE0  F008         	goto	u3290
  4939  0011BC                     u3291:
  4940  0011BC  EF8C  F009         	goto	l3170
  4941  0011C0                     u3290:
  4942  0011C0                     
  4943                           ; BSR set to: 0
  4944  0011C0  A1B6               	btfss	___fladd@grs& (0+255),0,b
  4945  0011C2  EFE5  F008         	goto	u3301
  4946  0011C6  EFE7  F008         	goto	u3300
  4947  0011CA                     u3301:
  4948  0011CA  EFED  F008         	goto	l3124
  4949  0011CE                     u3300:
  4950  0011CE                     
  4951                           ; BSR set to: 0
  4952  0011CE  90D8               	bcf	status,0,c
  4953  0011D0  31B6               	rrcf	___fladd@grs& (0+255),w,b
  4954  0011D2  0901               	iorlw	1
  4955  0011D4  6FB6               	movwf	___fladd@grs& (0+255),b
  4956  0011D6  EFEF  F008         	goto	l3126
  4957  0011DA                     l3124:
  4958                           
  4959                           ; BSR set to: 0
  4960  0011DA  90D8               	bcf	status,0,c
  4961  0011DC  33B6               	rrcf	___fladd@grs& (0+255),f,b
  4962  0011DE                     l3126:
  4963                           
  4964                           ; BSR set to: 0
  4965  0011DE  A1A7               	btfss	___fladd@b& (0+255),0,b
  4966  0011E0  EFF4  F008         	goto	u3311
  4967  0011E4  EFF6  F008         	goto	u3310
  4968  0011E8                     u3311:
  4969  0011E8  EFF7  F008         	goto	l3130
  4970  0011EC                     u3310:
  4971  0011EC                     
  4972                           ; BSR set to: 0
  4973  0011EC  8FB6               	bsf	___fladd@grs& (0+255),7,b
  4974  0011EE                     l3130:
  4975                           
  4976                           ; BSR set to: 0
  4977  0011EE  35AA               	rlcf	(___fladd@b+3)& (0+255),w,b
  4978  0011F0  33AA               	rrcf	(___fladd@b+3)& (0+255),f,b
  4979  0011F2  33A9               	rrcf	(___fladd@b+2)& (0+255),f,b
  4980  0011F4  33A8               	rrcf	(___fladd@b+1)& (0+255),f,b
  4981  0011F6  33A7               	rrcf	___fladd@b& (0+255),f,b
  4982  0011F8                     
  4983                           ; BSR set to: 0
  4984  0011F8  2BB5               	incf	___fladd@bexp& (0+255),f,b
  4985  0011FA  EF8C  F009         	goto	l3170
  4986  0011FE                     l3134:
  4987                           
  4988                           ; BSR set to: 0
  4989  0011FE  51AB               	movf	___fladd@a& (0+255),w,b
  4990  001200  5DA7               	subwf	___fladd@b& (0+255),w,b
  4991  001202  51AC               	movf	(___fladd@a+1)& (0+255),w,b
  4992  001204  59A8               	subwfb	(___fladd@b+1)& (0+255),w,b
  4993  001206  51AD               	movf	(___fladd@a+2)& (0+255),w,b
  4994  001208  59A9               	subwfb	(___fladd@b+2)& (0+255),w,b
  4995  00120A  51AA               	movf	(___fladd@b+3)& (0+255),w,b
  4996  00120C  0A80               	xorlw	128
  4997  00120E  6FAF               	movwf	??___fladd& (0+255),b
  4998  001210  51AE               	movf	(___fladd@a+3)& (0+255),w,b
  4999  001212  0A80               	xorlw	128
  5000  001214  59AF               	subwfb	??___fladd& (0+255),w,b
  5001  001216  B0D8               	btfsc	status,0,c
  5002  001218  EF10  F009         	goto	u3321
  5003  00121C  EF12  F009         	goto	u3320
  5004  001220                     u3321:
  5005  001220  EF3D  F009         	goto	l3144
  5006  001224                     u3320:
  5007  001224                     
  5008                           ; BSR set to: 0
  5009  001224  51A7               	movf	___fladd@b& (0+255),w,b
  5010  001226  5DAB               	subwf	___fladd@a& (0+255),w,b
  5011  001228  6FAF               	movwf	??___fladd& (0+255),b
  5012  00122A  51A8               	movf	(___fladd@b+1)& (0+255),w,b
  5013  00122C  59AC               	subwfb	(___fladd@a+1)& (0+255),w,b
  5014  00122E  6FB0               	movwf	(??___fladd+1)& (0+255),b
  5015  001230  51A9               	movf	(___fladd@b+2)& (0+255),w,b
  5016  001232  59AD               	subwfb	(___fladd@a+2)& (0+255),w,b
  5017  001234  6FB1               	movwf	(??___fladd+2)& (0+255),b
  5018  001236  51AA               	movf	(___fladd@b+3)& (0+255),w,b
  5019  001238  59AE               	subwfb	(___fladd@a+3)& (0+255),w,b
  5020  00123A  6FB2               	movwf	(??___fladd+3)& (0+255),b
  5021  00123C  0EFF               	movlw	255
  5022  00123E  25AF               	addwf	??___fladd& (0+255),w,b
  5023  001240  6FA7               	movwf	___fladd@b& (0+255),b
  5024  001242  0EFF               	movlw	255
  5025  001244  21B0               	addwfc	(??___fladd+1)& (0+255),w,b
  5026  001246  6FA8               	movwf	(___fladd@b+1)& (0+255),b
  5027  001248  0EFF               	movlw	255
  5028  00124A  21B1               	addwfc	(??___fladd+2)& (0+255),w,b
  5029  00124C  6FA9               	movwf	(___fladd@b+2)& (0+255),b
  5030  00124E  0EFF               	movlw	255
  5031  001250  21B2               	addwfc	(??___fladd+3)& (0+255),w,b
  5032  001252  6FAA               	movwf	(___fladd@b+3)& (0+255),b
  5033  001254  0E80               	movlw	128
  5034  001256  1BB3               	xorwf	___fladd@signs& (0+255),f,b
  5035  001258                     
  5036                           ; BSR set to: 0
  5037  001258  6DB6               	negf	___fladd@grs& (0+255),b
  5038  00125A                     
  5039                           ; BSR set to: 0
  5040  00125A  51B6               	movf	___fladd@grs& (0+255),w,b
  5041  00125C  A4D8               	btfss	status,2,c
  5042  00125E  EF33  F009         	goto	u3331
  5043  001262  EF35  F009         	goto	u3330
  5044  001266                     u3331:
  5045  001266  EF45  F009         	goto	l850
  5046  00126A                     u3330:
  5047  00126A                     
  5048                           ; BSR set to: 0
  5049  00126A  0E01               	movlw	1
  5050  00126C  27A7               	addwf	___fladd@b& (0+255),f,b
  5051  00126E  0E00               	movlw	0
  5052  001270  23A8               	addwfc	(___fladd@b+1)& (0+255),f,b
  5053  001272  23A9               	addwfc	(___fladd@b+2)& (0+255),f,b
  5054  001274  23AA               	addwfc	(___fladd@b+3)& (0+255),f,b
  5055  001276  EF45  F009         	goto	l850
  5056  00127A                     l3144:
  5057                           
  5058                           ; BSR set to: 0
  5059  00127A  51AB               	movf	___fladd@a& (0+255),w,b
  5060  00127C  5FA7               	subwf	___fladd@b& (0+255),f,b
  5061  00127E  51AC               	movf	(___fladd@a+1)& (0+255),w,b
  5062  001280  5BA8               	subwfb	(___fladd@b+1)& (0+255),f,b
  5063  001282  51AD               	movf	(___fladd@a+2)& (0+255),w,b
  5064  001284  5BA9               	subwfb	(___fladd@b+2)& (0+255),f,b
  5065  001286  51AE               	movf	(___fladd@a+3)& (0+255),w,b
  5066  001288  5BAA               	subwfb	(___fladd@b+3)& (0+255),f,b
  5067  00128A                     l850:
  5068                           
  5069                           ; BSR set to: 0
  5070  00128A  51A7               	movf	___fladd@b& (0+255),w,b
  5071  00128C  11A8               	iorwf	(___fladd@b+1)& (0+255),w,b
  5072  00128E  11A9               	iorwf	(___fladd@b+2)& (0+255),w,b
  5073  001290  11AA               	iorwf	(___fladd@b+3)& (0+255),w,b
  5074  001292  A4D8               	btfss	status,2,c
  5075  001294  EF4E  F009         	goto	u3341
  5076  001298  EF50  F009         	goto	u3340
  5077  00129C                     u3341:
  5078  00129C  EF85  F009         	goto	l3168
  5079  0012A0                     u3340:
  5080  0012A0                     
  5081                           ; BSR set to: 0
  5082  0012A0  51B6               	movf	___fladd@grs& (0+255),w,b
  5083  0012A2  A4D8               	btfss	status,2,c
  5084  0012A4  EF56  F009         	goto	u3351
  5085  0012A8  EF58  F009         	goto	u3350
  5086  0012AC                     u3351:
  5087  0012AC  EF85  F009         	goto	l3168
  5088  0012B0                     u3350:
  5089  0012B0                     
  5090                           ; BSR set to: 0
  5091  0012B0  0E00               	movlw	0
  5092  0012B2  6FA7               	movwf	?___fladd& (0+255),b
  5093  0012B4  0E00               	movlw	0
  5094  0012B6  6FA8               	movwf	(?___fladd+1)& (0+255),b
  5095  0012B8  0E00               	movlw	0
  5096  0012BA  6FA9               	movwf	(?___fladd+2)& (0+255),b
  5097  0012BC  0E00               	movlw	0
  5098  0012BE  6FAA               	movwf	(?___fladd+3)& (0+255),b
  5099  0012C0  EF20  F00A         	goto	l842
  5100  0012C4                     l3152:
  5101                           
  5102                           ; BSR set to: 0
  5103  0012C4  90D8               	bcf	status,0,c
  5104  0012C6  37A7               	rlcf	___fladd@b& (0+255),f,b
  5105  0012C8  37A8               	rlcf	(___fladd@b+1)& (0+255),f,b
  5106  0012CA  37A9               	rlcf	(___fladd@b+2)& (0+255),f,b
  5107  0012CC  37AA               	rlcf	(___fladd@b+3)& (0+255),f,b
  5108  0012CE                     
  5109                           ; BSR set to: 0
  5110  0012CE  AFB6               	btfss	___fladd@grs& (0+255),7,b
  5111  0012D0  EF6C  F009         	goto	u3361
  5112  0012D4  EF6E  F009         	goto	u3360
  5113  0012D8                     u3361:
  5114  0012D8  EF6F  F009         	goto	l3158
  5115  0012DC                     u3360:
  5116  0012DC                     
  5117                           ; BSR set to: 0
  5118  0012DC  81A7               	bsf	___fladd@b& (0+255),0,b
  5119  0012DE                     l3158:
  5120                           
  5121                           ; BSR set to: 0
  5122  0012DE  A1B6               	btfss	___fladd@grs& (0+255),0,b
  5123  0012E0  EF74  F009         	goto	u3371
  5124  0012E4  EF76  F009         	goto	u3370
  5125  0012E8                     u3371:
  5126  0012E8  EF7A  F009         	goto	l3162
  5127  0012EC                     u3370:
  5128  0012EC                     
  5129                           ; BSR set to: 0
  5130  0012EC  80D8               	bsf	status,0,c
  5131  0012EE  37B6               	rlcf	___fladd@grs& (0+255),f,b
  5132  0012F0  EF7C  F009         	goto	l3164
  5133  0012F4                     l3162:
  5134                           
  5135                           ; BSR set to: 0
  5136  0012F4  90D8               	bcf	status,0,c
  5137  0012F6  37B6               	rlcf	___fladd@grs& (0+255),f,b
  5138  0012F8                     l3164:
  5139                           
  5140                           ; BSR set to: 0
  5141  0012F8  51B5               	movf	___fladd@bexp& (0+255),w,b
  5142  0012FA  B4D8               	btfsc	status,2,c
  5143  0012FC  EF82  F009         	goto	u3381
  5144  001300  EF84  F009         	goto	u3380
  5145  001304                     u3381:
  5146  001304  EF85  F009         	goto	l3168
  5147  001308                     u3380:
  5148  001308                     
  5149                           ; BSR set to: 0
  5150  001308  07B5               	decf	___fladd@bexp& (0+255),f,b
  5151  00130A                     l3168:
  5152                           
  5153                           ; BSR set to: 0
  5154  00130A  AFA9               	btfss	(___fladd@b+2)& (0+255),7,b
  5155  00130C  EF8A  F009         	goto	u3391
  5156  001310  EF8C  F009         	goto	u3390
  5157  001314                     u3391:
  5158  001314  EF62  F009         	goto	l3152
  5159  001318                     u3390:
  5160  001318                     l3170:
  5161                           
  5162                           ; BSR set to: 0
  5163  001318  0E00               	movlw	0
  5164  00131A  6FB4               	movwf	___fladd@aexp& (0+255),b
  5165  00131C                     
  5166                           ; BSR set to: 0
  5167  00131C  AFB6               	btfss	___fladd@grs& (0+255),7,b
  5168  00131E  EF93  F009         	goto	u3401
  5169  001322  EF95  F009         	goto	u3400
  5170  001326                     u3401:
  5171  001326  EFAD  F009         	goto	l859
  5172  00132A                     u3400:
  5173  00132A                     
  5174                           ; BSR set to: 0
  5175  00132A  C0B6  F0AF         	movff	___fladd@grs,??___fladd
  5176  00132E  0E7F               	movlw	127
  5177  001330  17AF               	andwf	??___fladd& (0+255),f,b
  5178  001332  B4D8               	btfsc	status,2,c
  5179  001334  EF9E  F009         	goto	u3411
  5180  001338  EFA0  F009         	goto	u3410
  5181  00133C                     u3411:
  5182  00133C  EFA4  F009         	goto	l860
  5183  001340                     u3410:
  5184  001340                     l3176:
  5185                           
  5186                           ; BSR set to: 0
  5187  001340  0E01               	movlw	1
  5188  001342  6FB4               	movwf	___fladd@aexp& (0+255),b
  5189  001344  EFAD  F009         	goto	l859
  5190  001348                     l860:
  5191                           
  5192                           ; BSR set to: 0
  5193  001348  A1A7               	btfss	___fladd@b& (0+255),0,b
  5194  00134A  EFA9  F009         	goto	u3421
  5195  00134E  EFAB  F009         	goto	u3420
  5196  001352                     u3421:
  5197  001352  EFAD  F009         	goto	l859
  5198  001356                     u3420:
  5199  001356  EFA0  F009         	goto	l3176
  5200  00135A                     l859:
  5201                           
  5202                           ; BSR set to: 0
  5203  00135A  51B4               	movf	___fladd@aexp& (0+255),w,b
  5204  00135C  B4D8               	btfsc	status,2,c
  5205  00135E  EFB3  F009         	goto	u3431
  5206  001362  EFB5  F009         	goto	u3430
  5207  001366                     u3431:
  5208  001366  EFE0  F009         	goto	l3188
  5209  00136A                     u3430:
  5210  00136A                     
  5211                           ; BSR set to: 0
  5212  00136A  0E01               	movlw	1
  5213  00136C  27A7               	addwf	___fladd@b& (0+255),f,b
  5214  00136E  0E00               	movlw	0
  5215  001370  23A8               	addwfc	(___fladd@b+1)& (0+255),f,b
  5216  001372  23A9               	addwfc	(___fladd@b+2)& (0+255),f,b
  5217  001374  23AA               	addwfc	(___fladd@b+3)& (0+255),f,b
  5218  001376                     
  5219                           ; BSR set to: 0
  5220  001376  A1AA               	btfss	(___fladd@b+3)& (0+255),0,b
  5221  001378  EFC0  F009         	goto	u3441
  5222  00137C  EFC2  F009         	goto	u3440
  5223  001380                     u3441:
  5224  001380  EFE0  F009         	goto	l3188
  5225  001384                     u3440:
  5226  001384                     
  5227                           ; BSR set to: 0
  5228  001384  C0A7  F0AF         	movff	___fladd@b,??___fladd
  5229  001388  C0A8  F0B0         	movff	___fladd@b+1,??___fladd+1
  5230  00138C  C0A9  F0B1         	movff	___fladd@b+2,??___fladd+2
  5231  001390  C0AA  F0B2         	movff	___fladd@b+3,??___fladd+3
  5232  001394  35B2               	rlcf	(??___fladd+3)& (0+255),w,b
  5233  001396  33B2               	rrcf	(??___fladd+3)& (0+255),f,b
  5234  001398  33B1               	rrcf	(??___fladd+2)& (0+255),f,b
  5235  00139A  33B0               	rrcf	(??___fladd+1)& (0+255),f,b
  5236  00139C  33AF               	rrcf	??___fladd& (0+255),f,b
  5237  00139E  C0AF  F0A7         	movff	??___fladd,___fladd@b
  5238  0013A2  C0B0  F0A8         	movff	??___fladd+1,___fladd@b+1
  5239  0013A6  C0B1  F0A9         	movff	??___fladd+2,___fladd@b+2
  5240  0013AA  C0B2  F0AA         	movff	??___fladd+3,___fladd@b+3
  5241  0013AE  29B5               	incf	___fladd@bexp& (0+255),w,b
  5242  0013B0  B4D8               	btfsc	status,2,c
  5243  0013B2  EFDD  F009         	goto	u3451
  5244  0013B6  EFDF  F009         	goto	u3450
  5245  0013BA                     u3451:
  5246  0013BA  EFE0  F009         	goto	l3188
  5247  0013BE                     u3450:
  5248  0013BE                     
  5249                           ; BSR set to: 0
  5250  0013BE  2BB5               	incf	___fladd@bexp& (0+255),f,b
  5251  0013C0                     l3188:
  5252                           
  5253                           ; BSR set to: 0
  5254  0013C0  29B5               	incf	___fladd@bexp& (0+255),w,b
  5255  0013C2  B4D8               	btfsc	status,2,c
  5256  0013C4  EFE6  F009         	goto	u3461
  5257  0013C8  EFE8  F009         	goto	u3460
  5258  0013CC                     u3461:
  5259  0013CC  EFF0  F009         	goto	l3192
  5260  0013D0                     u3460:
  5261  0013D0                     
  5262                           ; BSR set to: 0
  5263  0013D0  51B5               	movf	___fladd@bexp& (0+255),w,b
  5264  0013D2  A4D8               	btfss	status,2,c
  5265  0013D4  EFEE  F009         	goto	u3471
  5266  0013D8  EFF0  F009         	goto	u3470
  5267  0013DC                     u3471:
  5268  0013DC  EF02  F00A         	goto	l3196
  5269  0013E0                     u3470:
  5270  0013E0                     l3192:
  5271                           
  5272                           ; BSR set to: 0
  5273  0013E0  0E00               	movlw	0
  5274  0013E2  6FA7               	movwf	___fladd@b& (0+255),b
  5275  0013E4  0E00               	movlw	0
  5276  0013E6  6FA8               	movwf	(___fladd@b+1)& (0+255),b
  5277  0013E8  0E00               	movlw	0
  5278  0013EA  6FA9               	movwf	(___fladd@b+2)& (0+255),b
  5279  0013EC  0E00               	movlw	0
  5280  0013EE  6FAA               	movwf	(___fladd@b+3)& (0+255),b
  5281  0013F0  51B5               	movf	___fladd@bexp& (0+255),w,b
  5282  0013F2  A4D8               	btfss	status,2,c
  5283  0013F4  EFFE  F009         	goto	u3481
  5284  0013F8  EF00  F00A         	goto	u3480
  5285  0013FC                     u3481:
  5286  0013FC  EF02  F00A         	goto	l3196
  5287  001400                     u3480:
  5288  001400                     
  5289                           ; BSR set to: 0
  5290  001400  0E00               	movlw	0
  5291  001402  6FB3               	movwf	___fladd@signs& (0+255),b
  5292  001404                     l3196:
  5293                           
  5294                           ; BSR set to: 0
  5295  001404  A1B5               	btfss	___fladd@bexp& (0+255),0,b
  5296  001406  EF07  F00A         	goto	u3491
  5297  00140A  EF09  F00A         	goto	u3490
  5298  00140E                     u3491:
  5299  00140E  EF0C  F00A         	goto	l3200
  5300  001412                     u3490:
  5301  001412                     
  5302                           ; BSR set to: 0
  5303  001412  8FA9               	bsf	(___fladd@b+2)& (0+255),7,b
  5304  001414  EF0D  F00A         	goto	l3202
  5305  001418                     l3200:
  5306                           
  5307                           ; BSR set to: 0
  5308  001418  9FA9               	bcf	(___fladd@b+2)& (0+255),7,b
  5309  00141A                     l3202:
  5310                           
  5311                           ; BSR set to: 0
  5312  00141A  90D8               	bcf	status,0,c
  5313  00141C  31B5               	rrcf	___fladd@bexp& (0+255),w,b
  5314  00141E  6FAA               	movwf	(___fladd@b+3)& (0+255),b
  5315  001420                     
  5316                           ; BSR set to: 0
  5317  001420  AFB3               	btfss	___fladd@signs& (0+255),7,b
  5318  001422  EF15  F00A         	goto	u3501
  5319  001426  EF17  F00A         	goto	u3500
  5320  00142A                     u3501:
  5321  00142A  EF18  F00A         	goto	l3208
  5322  00142E                     u3500:
  5323  00142E                     
  5324                           ; BSR set to: 0
  5325  00142E  8FAA               	bsf	(___fladd@b+3)& (0+255),7,b
  5326  001430                     l3208:
  5327                           
  5328                           ; BSR set to: 0
  5329  001430  C0A7  F0A7         	movff	___fladd@b,?___fladd
  5330  001434  C0A8  F0A8         	movff	___fladd@b+1,?___fladd+1
  5331  001438  C0A9  F0A9         	movff	___fladd@b+2,?___fladd+2
  5332  00143C  C0AA  F0AA         	movff	___fladd@b+3,?___fladd+3
  5333  001440                     l842:
  5334                           
  5335                           ; BSR set to: 0
  5336  001440  0012               	return		;funcret
  5337  001442                     __end_of___fladd:
  5338                           	callstack 0
  5339                           
  5340 ;; *************** function _USART_EnviaMsg *****************
  5341 ;; Defined at:
  5342 ;;		line 642 in file "glory.c"
  5343 ;; Parameters:    Size  Location     Type
  5344 ;;  msgout          2    0[BANK0 ] PTR unsigned char 
  5345 ;;		 -> STR_34(5), STR_33(7), STR_32(43), MsgAyuda(107), 
  5346 ;;		 -> STR_30(7), STR_28(7), STR_26(10), txt(5), 
  5347 ;;		 -> STR_24(13), MsgPersonalidad2(29), MsgPersonalidad1(26), MsgVersion(20), 
  5348 ;;		 -> STR_23(44), STR_22(20), STR_21(24), STR_20(29), 
  5349 ;;		 -> STR_19(11), STR_18(30), STR_17(12), STR_16(22), 
  5350 ;;		 -> STR_15(22), STR_14(22), STR_13(20), STR_12(30), 
  5351 ;;		 -> STR_11(12), STR_10(33), STR_9(19), STR_8(2), 
  5352 ;;		 -> STR_7(20), STR_6(2), STR_5(20), STR_4(33), 
  5353 ;;		 -> STR_3(21), CRLF(3), STR_2(2), STR_1(2), 
  5354 ;; Auto vars:     Size  Location     Type
  5355 ;;  letraout        1    2[BANK0 ] unsigned char 
  5356 ;; Return value:  Size  Location     Type
  5357 ;;                  1    wreg      void 
  5358 ;; Registers used:
  5359 ;;		wreg, fsr1l, fsr1h, status,2, status,0, tblptrl, tblptrh, tblptru
  5360 ;; Tracked objects:
  5361 ;;		On entry : 0/0
  5362 ;;		On exit  : 0/0
  5363 ;;		Unchanged: 0/0
  5364 ;; Data sizes:     COMRAM   BANK0   BANK1   BANK2   BANK3   BANK4   BANK5
  5365 ;;      Params:         0       2       0       0       0       0       0
  5366 ;;      Locals:         0       1       0       0       0       0       0
  5367 ;;      Temps:          0       0       0       0       0       0       0
  5368 ;;      Totals:         0       3       0       0       0       0       0
  5369 ;;Total ram usage:        3 bytes
  5370 ;; Hardware stack levels used: 1
  5371 ;; Hardware stack levels required when called: 9
  5372 ;; This function calls:
  5373 ;;		Nothing
  5374 ;; This function is called by:
  5375 ;;		_main
  5376 ;; This function uses a non-reentrant model
  5377 ;;
  5378                           
  5379                           	psect	text6
  5380  002A80                     __ptext6:
  5381                           	callstack 0
  5382  002A80                     _USART_EnviaMsg:
  5383                           	callstack 21
  5384  002A80                     
  5385                           ;glory.c: 642: void USART_EnviaMsg (char *msgout);glory.c: 643: {;glory.c: 644:     char
      +                           letraout;;glory.c: 645:     while(*msgout != 0x00)
  5386  002A80  EF5F  F015         	goto	l3460
  5387  002A84                     l3456:
  5388                           
  5389                           ;glory.c: 646:     {;glory.c: 647:         letraout=*msgout;
  5390  002A84  C080  FFF6         	movff	USART_EnviaMsg@msgout,tblptrl
  5391  002A88  C081  FFF7         	movff	USART_EnviaMsg@msgout+1,tblptrh
  5392  002A8C  6AF8               	clrf	tblptru,c
  5393  002A8E  0E05               	movlw	(high __ramtop+-1)
  5394  002A90  64F7               	cpfsgt	tblptrh,c
  5395  002A92  D003               	bra	u3927
  5396  002A94  0008               	tblrd		*
  5397  002A96  50F5               	movf	tablat,w,c
  5398  002A98  D005               	bra	u3920
  5399  002A9A                     u3927:
  5400  002A9A  CFF6 FFE1          	movff	tblptrl,fsr1l
  5401  002A9E  CFF7 FFE2          	movff	tblptrh,fsr1h
  5402  002AA2  50E7               	movf	indf1,w,c
  5403  002AA4                     u3920:
  5404  002AA4  0100               	movlb	0	; () banked
  5405  002AA6  6F82               	movwf	USART_EnviaMsg@letraout& (0+255),b
  5406  002AA8                     
  5407                           ; BSR set to: 0
  5408                           ;glory.c: 648:         msgout++;
  5409  002AA8  4B80               	infsnz	USART_EnviaMsg@msgout& (0+255),f,b
  5410  002AAA  2B81               	incf	(USART_EnviaMsg@msgout+1)& (0+255),f,b
  5411  002AAC                     l298:
  5412  002AAC  A89E               	btfss	3998,4,c	;volatile
  5413  002AAE  EF5B  F015         	goto	u3931
  5414  002AB2  EF5D  F015         	goto	u3930
  5415  002AB6                     u3931:
  5416  002AB6  EF56  F015         	goto	l298
  5417  002ABA                     u3930:
  5418  002ABA                     
  5419                           ;glory.c: 650:         TXREG=letraout;
  5420  002ABA  C082  FFAD         	movff	USART_EnviaMsg@letraout,4013	;volatile
  5421  002ABE                     l3460:
  5422                           
  5423                           ;glory.c: 645:     while(*msgout != 0x00)
  5424  002ABE  C080  FFF6         	movff	USART_EnviaMsg@msgout,tblptrl
  5425  002AC2  C081  FFF7         	movff	USART_EnviaMsg@msgout+1,tblptrh
  5426  002AC6  6AF8               	clrf	tblptru,c
  5427  002AC8  0E05               	movlw	(high __ramtop+-1)
  5428  002ACA  64F7               	cpfsgt	tblptrh,c
  5429  002ACC  D003               	bra	u3947
  5430  002ACE  0008               	tblrd		*
  5431  002AD0  50F5               	movf	tablat,w,c
  5432  002AD2  D005               	bra	u3940
  5433  002AD4                     u3947:
  5434  002AD4  CFF6 FFE1          	movff	tblptrl,fsr1l
  5435  002AD8  CFF7 FFE2          	movff	tblptrh,fsr1h
  5436  002ADC  50E7               	movf	indf1,w,c
  5437  002ADE                     u3940:
  5438  002ADE  0900               	iorlw	0
  5439  002AE0  A4D8               	btfss	status,2,c
  5440  002AE2  EF75  F015         	goto	u3951
  5441  002AE6  EF77  F015         	goto	u3950
  5442  002AEA                     u3951:
  5443  002AEA  EF42  F015         	goto	l3456
  5444  002AEE                     u3950:
  5445  002AEE  0012               	return		;funcret
  5446  002AF0                     __end_of_USART_EnviaMsg:
  5447                           	callstack 0
  5448                           
  5449 ;; *************** function _isr *****************
  5450 ;; Defined at:
  5451 ;;		line 404 in file "glory.c"
  5452 ;; Parameters:    Size  Location     Type
  5453 ;;		None
  5454 ;; Auto vars:     Size  Location     Type
  5455 ;;  n               2    0        int 
  5456 ;;  letrain         1  125[COMRAM] unsigned char 
  5457 ;; Return value:  Size  Location     Type
  5458 ;;                  1    wreg      void 
  5459 ;; Registers used:
  5460 ;;		wreg, fsr1l, fsr1h, fsr2l, fsr2h, status,2, status,0, tblptrl, tblptrh, tblptru, prodl, prodh, cstack
  5461 ;; Tracked objects:
  5462 ;;		On entry : 0/0
  5463 ;;		On exit  : 0/0
  5464 ;;		Unchanged: 0/0
  5465 ;; Data sizes:     COMRAM   BANK0   BANK1   BANK2   BANK3   BANK4   BANK5
  5466 ;;      Params:         0       0       0       0       0       0       0
  5467 ;;      Locals:         1       0       0       0       0       0       0
  5468 ;;      Temps:         12       0       0       0       0       0       0
  5469 ;;      Totals:        13       0       0       0       0       0       0
  5470 ;;Total ram usage:       13 bytes
  5471 ;; Hardware stack levels used: 1
  5472 ;; Hardware stack levels required when called: 8
  5473 ;; This function calls:
  5474 ;;		_sprintf
  5475 ;;		i2_USART_EnviaMsg
  5476 ;; This function is called by:
  5477 ;;		Interrupt level 2
  5478 ;; This function uses a non-reentrant model
  5479 ;;
  5480                           
  5481                           	psect	intcode
  5482  000008                     __pintcode:
  5483                           	callstack 0
  5484  000008                     _isr:
  5485                           	callstack 20
  5486                           
  5487                           ;incstack = 0
  5488  000008  827F               	bsf	int$flags,1,c	;set compiler interrupt flag (level 2)
  5489  00000A  ED85  F004         	call	int_func,f	;refresh shadow registers
  5490                           
  5491                           	psect	intcode_body
  5492  00090A                     __pintcode_body:
  5493                           	callstack 20
  5494  00090A                     int_func:
  5495                           	callstack 20
  5496  00090A  0006               	pop		; remove dummy address from shadow register refresh
  5497  00090C  CFE1 F074          	movff	fsr1l,??_isr+2
  5498  000910  CFE2 F075          	movff	fsr1h,??_isr+3
  5499  000914  CFD9 F076          	movff	fsr2l,??_isr+4
  5500  000918  CFDA F077          	movff	fsr2h,??_isr+5
  5501  00091C  CFF3 F078          	movff	prodl,??_isr+6
  5502  000920  CFF4 F079          	movff	prodh,??_isr+7
  5503  000924  CFF6 F07A          	movff	tblptrl,??_isr+8
  5504  000928  CFF7 F07B          	movff	tblptrh,??_isr+9
  5505  00092C  CFF8 F07C          	movff	tblptru,??_isr+10
  5506  000930  CFF5 F07D          	movff	tablat,??_isr+11
  5507  000934                     
  5508                           ;glory.c: 406:     char letrain;;glory.c: 407:     int n;;glory.c: 411:     if((PIR1bits
      +                          .RCIF == 1) && (PIE1bits.RCIE == 1))
  5509  000934  AA9E               	btfss	158,5,c	;volatile
  5510  000936  EF9F  F004         	goto	i2u454_41
  5511  00093A  EFA1  F004         	goto	i2u454_40
  5512  00093E                     i2u454_41:
  5513  00093E  EF5E  F006         	goto	i2l248
  5514  000942                     i2u454_40:
  5515  000942  AA9D               	btfss	157,5,c	;volatile
  5516  000944  EFA6  F004         	goto	i2u455_41
  5517  000948  EFA8  F004         	goto	i2u455_40
  5518  00094C                     i2u455_41:
  5519  00094C  EF5E  F006         	goto	i2l248
  5520  000950                     i2u455_40:
  5521  000950                     
  5522                           ;glory.c: 412:     {;glory.c: 413:         RCIF = 0;
  5523  000950  9A9E               	bcf	3998,5,c	;volatile
  5524                           
  5525                           ;glory.c: 414:         letrain=RCREG;
  5526  000952  CFAE F07E          	movff	4014,isr@letrain	;volatile
  5527                           
  5528                           ;glory.c: 417:         switch(letrain)
  5529  000956  EF11  F006         	goto	i2l3872
  5530  00095A                     i2l3754:
  5531                           
  5532                           ;glory.c: 420:                 if (ValorStateShutter==8)
  5533  00095A  0E08               	movlw	8
  5534  00095C  0100               	movlb	0	; () banked
  5535  00095E  19E9               	xorwf	_ValorStateShutter& (0+255),w,b
  5536  000960  11EA               	iorwf	(_ValorStateShutter+1)& (0+255),w,b
  5537  000962  A4D8               	btfss	status,2,c
  5538  000964  EFB6  F004         	goto	i2u456_41
  5539  000968  EFB8  F004         	goto	i2u456_40
  5540  00096C                     i2u456_41:
  5541  00096C  EF5E  F006         	goto	i2l248
  5542  000970                     i2u456_40:
  5543  000970                     
  5544                           ; BSR set to: 0
  5545                           ;glory.c: 421:                 {;glory.c: 422:                     ValorStateShutter=3;
  5546  000970  0E00               	movlw	0
  5547  000972  6FEA               	movwf	(_ValorStateShutter+1)& (0+255),b
  5548  000974  0E03               	movlw	3
  5549  000976  6FE9               	movwf	_ValorStateShutter& (0+255),b
  5550  000978                     
  5551                           ; BSR set to: 0
  5552                           ;glory.c: 423:                     LATE0=1;
  5553  000978  808D               	bsf	3981,0,c	;volatile
  5554  00097A                     
  5555                           ; BSR set to: 0
  5556                           ;glory.c: 424:                     LATA5=0;
  5557  00097A  9A89               	bcf	3977,5,c	;volatile
  5558  00097C                     
  5559                           ; BSR set to: 0
  5560                           ;glory.c: 425:                     LATC1=1;
  5561  00097C  828B               	bsf	3979,1,c	;volatile
  5562                           
  5563                           ;glory.c: 426:                     Tiempo1=0;
  5564  00097E  0E00               	movlw	0
  5565  000980  6FD0               	movwf	(_Tiempo1+1)& (0+255),b
  5566  000982  0E00               	movlw	0
  5567  000984  6FCF               	movwf	_Tiempo1& (0+255),b
  5568                           
  5569                           ;glory.c: 427:                     TMR1H=0xB1;
  5570  000986  0EB1               	movlw	177
  5571  000988  6ECF               	movwf	207,c	;volatile
  5572                           
  5573                           ;glory.c: 428:                     TMR1L=0xE0;
  5574  00098A  0EE0               	movlw	224
  5575  00098C  6ECE               	movwf	206,c	;volatile
  5576  00098E                     
  5577                           ; BSR set to: 0
  5578                           ;glory.c: 429:                     TMR1IF=0;
  5579  00098E  909E               	bcf	3998,0,c	;volatile
  5580  000990                     
  5581                           ; BSR set to: 0
  5582                           ;glory.c: 430:                     TMR1IE=1;
  5583  000990  809D               	bsf	3997,0,c	;volatile
  5584  000992                     
  5585                           ; BSR set to: 0
  5586                           ;glory.c: 431:                     USART_EnviaMsg("START CLOSE");
  5587  000992  0EB7               	movlw	low STR_11
  5588  000994  6E01               	movwf	i2USART_EnviaMsg@msgout^0,c
  5589  000996  0E7F               	movlw	high STR_11
  5590  000998  6E02               	movwf	(i2USART_EnviaMsg@msgout+1)^0,c
  5591  00099A  EC78  F015         	call	i2_USART_EnviaMsg	;wreg free
  5592  00099E                     
  5593                           ;glory.c: 432:                     USART_EnviaMsg(CRLF);
  5594  00099E  0EFC               	movlw	low _CRLF
  5595  0009A0  6E01               	movwf	i2USART_EnviaMsg@msgout^0,c
  5596  0009A2  0E00               	movlw	high _CRLF
  5597  0009A4  6E02               	movwf	(i2USART_EnviaMsg@msgout+1)^0,c
  5598  0009A6  EC78  F015         	call	i2_USART_EnviaMsg	;wreg free
  5599  0009AA                     
  5600                           ;glory.c: 433:                     USART_EnviaMsg("WARNING CLOSE SENSOR DISABLED");
  5601  0009AA  0EB3               	movlw	low STR_12
  5602  0009AC  6E01               	movwf	i2USART_EnviaMsg@msgout^0,c
  5603  0009AE  0E7E               	movlw	high STR_12
  5604  0009B0  6E02               	movwf	(i2USART_EnviaMsg@msgout+1)^0,c
  5605  0009B2  EC78  F015         	call	i2_USART_EnviaMsg	;wreg free
  5606  0009B6                     i2l3774:
  5607                           
  5608                           ;glory.c: 434:                     USART_EnviaMsg(CRLF);
  5609  0009B6  0EFC               	movlw	low _CRLF
  5610  0009B8  6E01               	movwf	i2USART_EnviaMsg@msgout^0,c
  5611  0009BA  0E00               	movlw	high _CRLF
  5612  0009BC  6E02               	movwf	(i2USART_EnviaMsg@msgout+1)^0,c
  5613  0009BE  EC78  F015         	call	i2_USART_EnviaMsg	;wreg free
  5614  0009C2  EF5E  F006         	goto	i2l248
  5615  0009C6                     i2l3776:
  5616                           
  5617                           ;glory.c: 438:                 if (ValorStateShutter==9)
  5618  0009C6  0E09               	movlw	9
  5619  0009C8  0100               	movlb	0	; () banked
  5620  0009CA  19E9               	xorwf	_ValorStateShutter& (0+255),w,b
  5621  0009CC  11EA               	iorwf	(_ValorStateShutter+1)& (0+255),w,b
  5622  0009CE  A4D8               	btfss	status,2,c
  5623  0009D0  EFEC  F004         	goto	i2u457_41
  5624  0009D4  EFEE  F004         	goto	i2u457_40
  5625  0009D8                     i2u457_41:
  5626  0009D8  EF5E  F006         	goto	i2l248
  5627  0009DC                     i2u457_40:
  5628  0009DC                     
  5629                           ; BSR set to: 0
  5630                           ;glory.c: 439:                 {;glory.c: 440:                     ValorStateShutter=2;
  5631  0009DC  0E00               	movlw	0
  5632  0009DE  6FEA               	movwf	(_ValorStateShutter+1)& (0+255),b
  5633  0009E0  0E02               	movlw	2
  5634  0009E2  6FE9               	movwf	_ValorStateShutter& (0+255),b
  5635  0009E4                     
  5636                           ; BSR set to: 0
  5637                           ;glory.c: 441:                     LATE0=0;
  5638  0009E4  908D               	bcf	3981,0,c	;volatile
  5639  0009E6                     
  5640                           ; BSR set to: 0
  5641                           ;glory.c: 442:                     LATA5=1;
  5642  0009E6  8A89               	bsf	3977,5,c	;volatile
  5643  0009E8                     
  5644                           ; BSR set to: 0
  5645                           ;glory.c: 443:                     LATC1=1;
  5646  0009E8  828B               	bsf	3979,1,c	;volatile
  5647                           
  5648                           ;glory.c: 444:                     Tiempo1=0;
  5649  0009EA  0E00               	movlw	0
  5650  0009EC  6FD0               	movwf	(_Tiempo1+1)& (0+255),b
  5651  0009EE  0E00               	movlw	0
  5652  0009F0  6FCF               	movwf	_Tiempo1& (0+255),b
  5653                           
  5654                           ;glory.c: 445:                     TMR1H=0xB1;
  5655  0009F2  0EB1               	movlw	177
  5656  0009F4  6ECF               	movwf	207,c	;volatile
  5657                           
  5658                           ;glory.c: 446:                     TMR1L=0xE0;
  5659  0009F6  0EE0               	movlw	224
  5660  0009F8  6ECE               	movwf	206,c	;volatile
  5661  0009FA                     
  5662                           ; BSR set to: 0
  5663                           ;glory.c: 447:                     TMR1IF=0;
  5664  0009FA  909E               	bcf	3998,0,c	;volatile
  5665  0009FC                     
  5666                           ; BSR set to: 0
  5667                           ;glory.c: 448:                     TMR1IE=1;
  5668  0009FC  809D               	bsf	3997,0,c	;volatile
  5669  0009FE                     
  5670                           ; BSR set to: 0
  5671                           ;glory.c: 449:                     USART_EnviaMsg("START OPEN");
  5672  0009FE  0EC3               	movlw	low STR_19
  5673  000A00  6E01               	movwf	i2USART_EnviaMsg@msgout^0,c
  5674  000A02  0E7F               	movlw	high STR_19
  5675  000A04  6E02               	movwf	(i2USART_EnviaMsg@msgout+1)^0,c
  5676  000A06  EC78  F015         	call	i2_USART_EnviaMsg	;wreg free
  5677  000A0A                     
  5678                           ;glory.c: 450:                     USART_EnviaMsg(CRLF);
  5679  000A0A  0EFC               	movlw	low _CRLF
  5680  000A0C  6E01               	movwf	i2USART_EnviaMsg@msgout^0,c
  5681  000A0E  0E00               	movlw	high _CRLF
  5682  000A10  6E02               	movwf	(i2USART_EnviaMsg@msgout+1)^0,c
  5683  000A12  EC78  F015         	call	i2_USART_EnviaMsg	;wreg free
  5684  000A16                     
  5685                           ;glory.c: 451:                     USART_EnviaMsg("WARNING OPEN SENSOR DISABLED");
  5686  000A16  0ED1               	movlw	low STR_20
  5687  000A18  6E01               	movwf	i2USART_EnviaMsg@msgout^0,c
  5688  000A1A  0E7E               	movlw	high STR_20
  5689  000A1C  6E02               	movwf	(i2USART_EnviaMsg@msgout+1)^0,c
  5690  000A1E  EC78  F015         	call	i2_USART_EnviaMsg	;wreg free
  5691  000A22  EFDB  F004         	goto	i2l3774
  5692  000A26                     i2l3798:
  5693                           
  5694                           ;glory.c: 456:                 if (ValorStateLock==0)
  5695  000A26  0100               	movlb	0	; () banked
  5696  000A28  51E7               	movf	_ValorStateLock& (0+255),w,b
  5697  000A2A  11E8               	iorwf	(_ValorStateLock+1)& (0+255),w,b
  5698  000A2C  A4D8               	btfss	status,2,c
  5699  000A2E  EF1B  F005         	goto	i2u458_41
  5700  000A32  EF1D  F005         	goto	i2u458_40
  5701  000A36                     i2u458_41:
  5702  000A36  EF5E  F006         	goto	i2l248
  5703  000A3A                     i2u458_40:
  5704  000A3A                     
  5705                           ; BSR set to: 0
  5706                           ;glory.c: 457:                 {;glory.c: 458:                     ValorStateLock=1;
  5707  000A3A  0E00               	movlw	0
  5708  000A3C  6FE8               	movwf	(_ValorStateLock+1)& (0+255),b
  5709  000A3E  0E01               	movlw	1
  5710  000A40  6FE7               	movwf	_ValorStateLock& (0+255),b
  5711  000A42                     
  5712                           ; BSR set to: 0
  5713                           ;glory.c: 460:                     LATA4=1;
  5714  000A42  8889               	bsf	3977,4,c	;volatile
  5715  000A44                     
  5716                           ; BSR set to: 0
  5717                           ;glory.c: 461:                     LATA3=0;
  5718  000A44  9689               	bcf	3977,3,c	;volatile
  5719  000A46                     
  5720                           ; BSR set to: 0
  5721                           ;glory.c: 462:                     LATA1=1;
  5722  000A46  8289               	bsf	3977,1,c	;volatile
  5723  000A48                     
  5724                           ; BSR set to: 0
  5725                           ;glory.c: 463:                     LATA0=0;
  5726  000A48  9089               	bcf	3977,0,c	;volatile
  5727  000A4A                     
  5728                           ; BSR set to: 0
  5729                           ;glory.c: 464:                     LATA2=1;
  5730  000A4A  8489               	bsf	3977,2,c	;volatile
  5731                           
  5732                           ;glory.c: 465:                     PulsoArriba=1;
  5733  000A4C  0E00               	movlw	0
  5734  000A4E  6FDC               	movwf	(_PulsoArriba+1)& (0+255),b
  5735  000A50  0E01               	movlw	1
  5736  000A52  6FDB               	movwf	_PulsoArriba& (0+255),b
  5737                           
  5738                           ;glory.c: 466:                     TiempoPulso=0;
  5739  000A54  0E00               	movlw	0
  5740  000A56  6FDA               	movwf	(_TiempoPulso+1)& (0+255),b
  5741  000A58  0E00               	movlw	0
  5742  000A5A  6FD9               	movwf	_TiempoPulso& (0+255),b
  5743                           
  5744                           ;glory.c: 468:                     Tiempo0=0;
  5745  000A5C  0E00               	movlw	0
  5746  000A5E  6FD2               	movwf	(_Tiempo0+1)& (0+255),b
  5747  000A60  0E00               	movlw	0
  5748  000A62  6FD1               	movwf	_Tiempo0& (0+255),b
  5749  000A64                     
  5750                           ; BSR set to: 0
  5751                           ;glory.c: 469:                     TMR0IE=1;
  5752  000A64  8AF2               	bsf	4082,5,c	;volatile
  5753  000A66                     
  5754                           ; BSR set to: 0
  5755                           ;glory.c: 470:                     USART_EnviaMsg("CRITICAL: door unlocked");
  5756  000A66  0EEE               	movlw	low STR_21
  5757  000A68  6E01               	movwf	i2USART_EnviaMsg@msgout^0,c
  5758  000A6A  0E7E               	movlw	high STR_21
  5759  000A6C  6E02               	movwf	(i2USART_EnviaMsg@msgout+1)^0,c
  5760  000A6E  EC78  F015         	call	i2_USART_EnviaMsg	;wreg free
  5761  000A72  EFDB  F004         	goto	i2l3774
  5762  000A76                     i2l3818:
  5763                           
  5764                           ;glory.c: 475:                 if(ModoTrabajo = 0){
  5765  000A76  0E00               	movlw	0
  5766  000A78  0100               	movlb	0	; () banked
  5767  000A7A  6FD4               	movwf	(_ModoTrabajo+1)& (0+255),b
  5768  000A7C  0E00               	movlw	0
  5769  000A7E  6FD3               	movwf	_ModoTrabajo& (0+255),b
  5770  000A80  EF5E  F006         	goto	i2l248
  5771  000A84                     i2l3832:
  5772                           
  5773                           ;glory.c: 489:                 if (ValorBag==2)
  5774  000A84  0E02               	movlw	2
  5775  000A86  0100               	movlb	0	; () banked
  5776  000A88  19F8               	xorwf	_ValorBag& (0+255),w,b
  5777  000A8A  11F9               	iorwf	(_ValorBag+1)& (0+255),w,b
  5778  000A8C  A4D8               	btfss	status,2,c
  5779  000A8E  EF4B  F005         	goto	i2u459_41
  5780  000A92  EF4D  F005         	goto	i2u459_40
  5781  000A96                     i2u459_41:
  5782  000A96  EF53  F005         	goto	i2l3836
  5783  000A9A                     i2u459_40:
  5784  000A9A                     
  5785                           ; BSR set to: 0
  5786                           ;glory.c: 490:                 {;glory.c: 491:                     EstadoAprobacionBolsa
      +                          =1;
  5787  000A9A  0E00               	movlw	0
  5788  000A9C  6FDE               	movwf	(_EstadoAprobacionBolsa+1)& (0+255),b
  5789  000A9E  0E01               	movlw	1
  5790  000AA0  6FDD               	movwf	_EstadoAprobacionBolsa& (0+255),b
  5791                           
  5792                           ;glory.c: 492:                 }else{
  5793  000AA2  EF5E  F006         	goto	i2l248
  5794  000AA6                     i2l3836:
  5795                           
  5796                           ; BSR set to: 0
  5797                           ;glory.c: 493:                     ValorBag=0;
  5798  000AA6  0E00               	movlw	0
  5799  000AA8  6FF9               	movwf	(_ValorBag+1)& (0+255),b
  5800  000AAA  0E00               	movlw	0
  5801  000AAC  6FF8               	movwf	_ValorBag& (0+255),b
  5802  000AAE                     
  5803                           ; BSR set to: 0
  5804                           ;glory.c: 494:                     USART_EnviaMsg("CRITICAL : BAG IS NOT IN PLACE CAN'T 
      +                          APROVE");
  5805  000AAE  0E3B               	movlw	low STR_23
  5806  000AB0  6E01               	movwf	i2USART_EnviaMsg@msgout^0,c
  5807  000AB2  0E7E               	movlw	high STR_23
  5808  000AB4  6E02               	movwf	(i2USART_EnviaMsg@msgout+1)^0,c
  5809  000AB6  EC78  F015         	call	i2_USART_EnviaMsg	;wreg free
  5810  000ABA  EFDB  F004         	goto	i2l3774
  5811  000ABE                     i2l3842:
  5812                           
  5813                           ;glory.c: 499:                 USART_EnviaMsg(MsgVersion);
  5814  000ABE  0EBB               	movlw	low _MsgVersion
  5815  000AC0  6E01               	movwf	i2USART_EnviaMsg@msgout^0,c
  5816  000AC2  0E01               	movlw	high _MsgVersion
  5817  000AC4  6E02               	movwf	(i2USART_EnviaMsg@msgout+1)^0,c
  5818  000AC6  EC78  F015         	call	i2_USART_EnviaMsg	;wreg free
  5819                           
  5820                           ;glory.c: 500:                 USART_EnviaMsg(CRLF);
  5821  000ACA  0EFC               	movlw	low _CRLF
  5822  000ACC  6E01               	movwf	i2USART_EnviaMsg@msgout^0,c
  5823  000ACE  0E00               	movlw	high _CRLF
  5824  000AD0  6E02               	movwf	(i2USART_EnviaMsg@msgout+1)^0,c
  5825  000AD2  EC78  F015         	call	i2_USART_EnviaMsg	;wreg free
  5826                           
  5827                           ;glory.c: 501:                 break;
  5828  000AD6  EF5E  F006         	goto	i2l248
  5829  000ADA                     i2l3844:
  5830                           
  5831                           ;glory.c: 503:                 if(ModoTrabajo == 0){
  5832  000ADA  0100               	movlb	0	; () banked
  5833  000ADC  51D3               	movf	_ModoTrabajo& (0+255),w,b
  5834  000ADE  11D4               	iorwf	(_ModoTrabajo+1)& (0+255),w,b
  5835  000AE0  A4D8               	btfss	status,2,c
  5836  000AE2  EF75  F005         	goto	i2u460_41
  5837  000AE6  EF77  F005         	goto	i2u460_40
  5838  000AEA                     i2u460_41:
  5839  000AEA  EF85  F005         	goto	i2l3848
  5840  000AEE                     i2u460_40:
  5841  000AEE                     
  5842                           ; BSR set to: 0
  5843                           ;glory.c: 504:                     USART_EnviaMsg(MsgPersonalidad1);
  5844  000AEE  0EA1               	movlw	low _MsgPersonalidad1
  5845  000AF0  6E01               	movwf	i2USART_EnviaMsg@msgout^0,c
  5846  000AF2  0E01               	movlw	high _MsgPersonalidad1
  5847  000AF4  6E02               	movwf	(i2USART_EnviaMsg@msgout+1)^0,c
  5848  000AF6  EC78  F015         	call	i2_USART_EnviaMsg	;wreg free
  5849                           
  5850                           ;glory.c: 505:                     USART_EnviaMsg(CRLF);
  5851  000AFA  0EFC               	movlw	low _CRLF
  5852  000AFC  6E01               	movwf	i2USART_EnviaMsg@msgout^0,c
  5853  000AFE  0E00               	movlw	high _CRLF
  5854  000B00  6E02               	movwf	(i2USART_EnviaMsg@msgout+1)^0,c
  5855  000B02  EC78  F015         	call	i2_USART_EnviaMsg	;wreg free
  5856                           
  5857                           ;glory.c: 506:                 }else{
  5858  000B06  EF5E  F006         	goto	i2l248
  5859  000B0A                     i2l3848:
  5860                           
  5861                           ; BSR set to: 0
  5862                           ;glory.c: 507:                     USART_EnviaMsg(MsgPersonalidad2);
  5863  000B0A  0E84               	movlw	low _MsgPersonalidad2
  5864  000B0C  6E01               	movwf	i2USART_EnviaMsg@msgout^0,c
  5865  000B0E  0E01               	movlw	high _MsgPersonalidad2
  5866  000B10  6E02               	movwf	(i2USART_EnviaMsg@msgout+1)^0,c
  5867  000B12  EC78  F015         	call	i2_USART_EnviaMsg	;wreg free
  5868                           
  5869                           ;glory.c: 508:                     USART_EnviaMsg(CRLF);
  5870  000B16  0EFC               	movlw	low _CRLF
  5871  000B18  6E01               	movwf	i2USART_EnviaMsg@msgout^0,c
  5872  000B1A  0E00               	movlw	high _CRLF
  5873  000B1C  6E02               	movwf	(i2USART_EnviaMsg@msgout+1)^0,c
  5874  000B1E  EC78  F015         	call	i2_USART_EnviaMsg	;wreg free
  5875  000B22  EF5E  F006         	goto	i2l248
  5876  000B26                     i2l3850:
  5877                           
  5878                           ;glory.c: 512:                 USART_EnviaMsg("STATE : BAG ");
  5879  000B26  0EAA               	movlw	low STR_24
  5880  000B28  6E01               	movwf	i2USART_EnviaMsg@msgout^0,c
  5881  000B2A  0E7F               	movlw	high STR_24
  5882  000B2C  6E02               	movwf	(i2USART_EnviaMsg@msgout+1)^0,c
  5883  000B2E  EC78  F015         	call	i2_USART_EnviaMsg	;wreg free
  5884  000B32  0EED               	movlw	low _txt
  5885  000B34  6E62               	movwf	sprintf@s^0,c
  5886  000B36  0E00               	movlw	high _txt
  5887  000B38  6E63               	movwf	(sprintf@s+1)^0,c
  5888  000B3A  0EF7               	movlw	low STR_25
  5889  000B3C  6E64               	movwf	sprintf@fmt^0,c
  5890  000B3E  0E7F               	movlw	high STR_25
  5891  000B40  6E65               	movwf	(sprintf@fmt+1)^0,c
  5892  000B42  C0F8  F066         	movff	_ValorBag,?_sprintf+4
  5893  000B46  C0F9  F067         	movff	_ValorBag+1,?_sprintf+5
  5894  000B4A  EC16  F016         	call	_sprintf	;wreg free
  5895  000B4E                     
  5896                           ;glory.c: 514:                 USART_EnviaMsg(txt);
  5897  000B4E  0EED               	movlw	low _txt
  5898  000B50  6E01               	movwf	i2USART_EnviaMsg@msgout^0,c
  5899  000B52  0E00               	movlw	high _txt
  5900  000B54  6E02               	movwf	(i2USART_EnviaMsg@msgout+1)^0,c
  5901  000B56  EC78  F015         	call	i2_USART_EnviaMsg	;wreg free
  5902  000B5A                     
  5903                           ;glory.c: 518:                 USART_EnviaMsg(" SHUTTER ");
  5904  000B5A  0ECE               	movlw	low STR_26
  5905  000B5C  6E01               	movwf	i2USART_EnviaMsg@msgout^0,c
  5906  000B5E  0E7F               	movlw	high STR_26
  5907  000B60  6E02               	movwf	(i2USART_EnviaMsg@msgout+1)^0,c
  5908  000B62  EC78  F015         	call	i2_USART_EnviaMsg	;wreg free
  5909  000B66  0EED               	movlw	low _txt
  5910  000B68  6E62               	movwf	sprintf@s^0,c
  5911  000B6A  0E00               	movlw	high _txt
  5912  000B6C  6E63               	movwf	(sprintf@s+1)^0,c
  5913  000B6E  0EED               	movlw	low STR_27
  5914  000B70  6E64               	movwf	sprintf@fmt^0,c
  5915  000B72  0E7F               	movlw	high STR_27
  5916  000B74  6E65               	movwf	(sprintf@fmt+1)^0,c
  5917  000B76  C0E9  F066         	movff	_ValorStateShutter,?_sprintf+4
  5918  000B7A  C0EA  F067         	movff	_ValorStateShutter+1,?_sprintf+5
  5919  000B7E  EC16  F016         	call	_sprintf	;wreg free
  5920                           
  5921                           ;glory.c: 520:                 USART_EnviaMsg(txt);
  5922  000B82  0EED               	movlw	low _txt
  5923  000B84  6E01               	movwf	i2USART_EnviaMsg@msgout^0,c
  5924  000B86  0E00               	movlw	high _txt
  5925  000B88  6E02               	movwf	(i2USART_EnviaMsg@msgout+1)^0,c
  5926  000B8A  EC78  F015         	call	i2_USART_EnviaMsg	;wreg free
  5927                           
  5928                           ;glory.c: 521:                 USART_EnviaMsg(" LOCK ");
  5929  000B8E  0EDF               	movlw	low STR_28
  5930  000B90  6E01               	movwf	i2USART_EnviaMsg@msgout^0,c
  5931  000B92  0E7F               	movlw	high STR_28
  5932  000B94  6E02               	movwf	(i2USART_EnviaMsg@msgout+1)^0,c
  5933  000B96  EC78  F015         	call	i2_USART_EnviaMsg	;wreg free
  5934  000B9A  0EED               	movlw	low _txt
  5935  000B9C  6E62               	movwf	sprintf@s^0,c
  5936  000B9E  0E00               	movlw	high _txt
  5937  000BA0  6E63               	movwf	(sprintf@s+1)^0,c
  5938  000BA2  0EF2               	movlw	low STR_29
  5939  000BA4  6E64               	movwf	sprintf@fmt^0,c
  5940  000BA6  0E7F               	movlw	high STR_29
  5941  000BA8  6E65               	movwf	(sprintf@fmt+1)^0,c
  5942  000BAA  C0E7  F066         	movff	_ValorStateLock,?_sprintf+4
  5943  000BAE  C0E8  F067         	movff	_ValorStateLock+1,?_sprintf+5
  5944  000BB2  EC16  F016         	call	_sprintf	;wreg free
  5945  000BB6                     
  5946                           ;glory.c: 523:                 USART_EnviaMsg(txt);
  5947  000BB6  0EED               	movlw	low _txt
  5948  000BB8  6E01               	movwf	i2USART_EnviaMsg@msgout^0,c
  5949  000BBA  0E00               	movlw	high _txt
  5950  000BBC  6E02               	movwf	(i2USART_EnviaMsg@msgout+1)^0,c
  5951  000BBE  EC78  F015         	call	i2_USART_EnviaMsg	;wreg free
  5952  000BC2                     
  5953                           ;glory.c: 524:                 USART_EnviaMsg(" GATE ");
  5954  000BC2  0ED8               	movlw	low STR_30
  5955  000BC4  6E01               	movwf	i2USART_EnviaMsg@msgout^0,c
  5956  000BC6  0E7F               	movlw	high STR_30
  5957  000BC8  6E02               	movwf	(i2USART_EnviaMsg@msgout+1)^0,c
  5958  000BCA  EC78  F015         	call	i2_USART_EnviaMsg	;wreg free
  5959  000BCE  0EED               	movlw	low _txt
  5960  000BD0  6E62               	movwf	sprintf@s^0,c
  5961  000BD2  0E00               	movlw	high _txt
  5962  000BD4  6E63               	movwf	(sprintf@s+1)^0,c
  5963  000BD6  0EF2               	movlw	low STR_29
  5964  000BD8  6E64               	movwf	sprintf@fmt^0,c
  5965  000BDA  0E7F               	movlw	high STR_29
  5966  000BDC  6E65               	movwf	(sprintf@fmt+1)^0,c
  5967  000BDE  C0EB  F066         	movff	_ValorStateE,?_sprintf+4
  5968  000BE2  C0EC  F067         	movff	_ValorStateE+1,?_sprintf+5
  5969  000BE6  EC16  F016         	call	_sprintf	;wreg free
  5970                           
  5971                           ;glory.c: 526:                 USART_EnviaMsg(txt);
  5972  000BEA  0EED               	movlw	low _txt
  5973  000BEC  6E01               	movwf	i2USART_EnviaMsg@msgout^0,c
  5974  000BEE  0E00               	movlw	high _txt
  5975  000BF0  6E02               	movwf	(i2USART_EnviaMsg@msgout+1)^0,c
  5976  000BF2  EC78  F015         	call	i2_USART_EnviaMsg	;wreg free
  5977                           
  5978                           ;glory.c: 527:                 USART_EnviaMsg(CRLF);
  5979  000BF6  0EFC               	movlw	low _CRLF
  5980  000BF8  6E01               	movwf	i2USART_EnviaMsg@msgout^0,c
  5981  000BFA  0E00               	movlw	high _CRLF
  5982  000BFC  6E02               	movwf	(i2USART_EnviaMsg@msgout+1)^0,c
  5983  000BFE  EC78  F015         	call	i2_USART_EnviaMsg	;wreg free
  5984                           
  5985                           ;glory.c: 528:                 break;
  5986  000C02  EF5E  F006         	goto	i2l248
  5987  000C06                     i2l3868:
  5988                           
  5989                           ;glory.c: 530:                 USART_EnviaMsg(MsgAyuda);
  5990  000C06  0E00               	movlw	low _MsgAyuda
  5991  000C08  6E01               	movwf	i2USART_EnviaMsg@msgout^0,c
  5992  000C0A  0E02               	movlw	high _MsgAyuda
  5993  000C0C  6E02               	movwf	(i2USART_EnviaMsg@msgout+1)^0,c
  5994  000C0E  EC78  F015         	call	i2_USART_EnviaMsg	;wreg free
  5995                           
  5996                           ;glory.c: 531:                 USART_EnviaMsg(CRLF);
  5997  000C12  0EFC               	movlw	low _CRLF
  5998  000C14  6E01               	movwf	i2USART_EnviaMsg@msgout^0,c
  5999  000C16  0E00               	movlw	high _CRLF
  6000  000C18  6E02               	movwf	(i2USART_EnviaMsg@msgout+1)^0,c
  6001  000C1A  EC78  F015         	call	i2_USART_EnviaMsg	;wreg free
  6002                           
  6003                           ;glory.c: 532:                 break;
  6004  000C1E  EF5E  F006         	goto	i2l248
  6005  000C22                     i2l3872:
  6006  000C22  507E               	movf	isr@letrain^0,w,c
  6007  000C24  6E72               	movwf	??_isr^0,c
  6008  000C26  6A73               	clrf	(??_isr+1)^0,c
  6009                           
  6010                           ; Switch on 2 bytes has been partitioned into a top level switch of size 1, and 1 sub-sw
      +                          itches
  6011                           ; Switch size 1, requested type "simple"
  6012                           ; Number of cases is 1, Range of values is 0 to 0
  6013                           ; switch strategies available:
  6014                           ; Name         Instructions Cycles
  6015                           ; simple_byte            4     3 (average)
  6016                           ;	Chosen strategy is simple_byte
  6017  000C28  5073               	movf	(??_isr+1)^0,w,c
  6018  000C2A  0A00               	xorlw	0	; case 0
  6019  000C2C  B4D8               	btfsc	status,2,c
  6020  000C2E  EF1B  F006         	goto	i2l4040
  6021  000C32  EF03  F006         	goto	i2l3868
  6022  000C36                     i2l4040:
  6023                           
  6024                           ; Switch size 1, requested type "simple"
  6025                           ; Number of cases is 16, Range of values is 65 to 118
  6026                           ; switch strategies available:
  6027                           ; Name         Instructions Cycles
  6028                           ; simple_byte           49    25 (average)
  6029                           ;	Chosen strategy is simple_byte
  6030  000C36  5072               	movf	??_isr^0,w,c
  6031  000C38  0A41               	xorlw	65	; case 65
  6032  000C3A  B4D8               	btfsc	status,2,c
  6033  000C3C  EF42  F005         	goto	i2l3832
  6034  000C40  0A03               	xorlw	3	; case 66
  6035  000C42  B4D8               	btfsc	status,2,c
  6036  000C44  EF6D  F005         	goto	i2l3844
  6037  000C48  0A01               	xorlw	1	; case 67
  6038  000C4A  B4D8               	btfsc	status,2,c
  6039  000C4C  EFAD  F004         	goto	i2l3754
  6040  000C50  0A06               	xorlw	6	; case 69
  6041  000C52  B4D8               	btfsc	status,2,c
  6042  000C54  EF3B  F005         	goto	i2l3818
  6043  000C58  0A0A               	xorlw	10	; case 79
  6044  000C5A  B4D8               	btfsc	status,2,c
  6045  000C5C  EFE3  F004         	goto	i2l3776
  6046  000C60  0A1C               	xorlw	28	; case 83
  6047  000C62  B4D8               	btfsc	status,2,c
  6048  000C64  EF93  F005         	goto	i2l3850
  6049  000C68  0A06               	xorlw	6	; case 85
  6050  000C6A  B4D8               	btfsc	status,2,c
  6051  000C6C  EF13  F005         	goto	i2l3798
  6052  000C70  0A03               	xorlw	3	; case 86
  6053  000C72  B4D8               	btfsc	status,2,c
  6054  000C74  EF5F  F005         	goto	i2l3842
  6055  000C78  0A37               	xorlw	55	; case 97
  6056  000C7A  B4D8               	btfsc	status,2,c
  6057  000C7C  EF42  F005         	goto	i2l3832
  6058  000C80  0A03               	xorlw	3	; case 98
  6059  000C82  B4D8               	btfsc	status,2,c
  6060  000C84  EF6D  F005         	goto	i2l3844
  6061  000C88  0A01               	xorlw	1	; case 99
  6062  000C8A  B4D8               	btfsc	status,2,c
  6063  000C8C  EFAD  F004         	goto	i2l3754
  6064  000C90  0A06               	xorlw	6	; case 101
  6065  000C92  B4D8               	btfsc	status,2,c
  6066  000C94  EF3B  F005         	goto	i2l3818
  6067  000C98  0A0A               	xorlw	10	; case 111
  6068  000C9A  B4D8               	btfsc	status,2,c
  6069  000C9C  EFE3  F004         	goto	i2l3776
  6070  000CA0  0A1C               	xorlw	28	; case 115
  6071  000CA2  B4D8               	btfsc	status,2,c
  6072  000CA4  EF93  F005         	goto	i2l3850
  6073  000CA8  0A06               	xorlw	6	; case 117
  6074  000CAA  B4D8               	btfsc	status,2,c
  6075  000CAC  EF13  F005         	goto	i2l3798
  6076  000CB0  0A03               	xorlw	3	; case 118
  6077  000CB2  B4D8               	btfsc	status,2,c
  6078  000CB4  EF5F  F005         	goto	i2l3842
  6079  000CB8  EF03  F006         	goto	i2l3868
  6080  000CBC                     i2l248:
  6081                           
  6082                           ;glory.c: 537:     if (TMR0IF && TMR0IE)
  6083  000CBC  A4F2               	btfss	4082,2,c	;volatile
  6084  000CBE  EF63  F006         	goto	i2u461_41
  6085  000CC2  EF65  F006         	goto	i2u461_40
  6086  000CC6                     i2u461_41:
  6087  000CC6  EFE7  F006         	goto	i2l3914
  6088  000CCA                     i2u461_40:
  6089  000CCA  AAF2               	btfss	4082,5,c	;volatile
  6090  000CCC  EF6A  F006         	goto	i2u462_41
  6091  000CD0  EF6C  F006         	goto	i2u462_40
  6092  000CD4                     i2u462_41:
  6093  000CD4  EFE7  F006         	goto	i2l3914
  6094  000CD8                     i2u462_40:
  6095  000CD8                     
  6096                           ;glory.c: 538:     {;glory.c: 539:         TMR0IF=0;
  6097  000CD8  94F2               	bcf	4082,2,c	;volatile
  6098  000CDA                     
  6099                           ;glory.c: 540:         TMR0H=0x3C;
  6100  000CDA  0E3C               	movlw	60
  6101  000CDC  6ED7               	movwf	215,c	;volatile
  6102                           
  6103                           ;glory.c: 541:         TMR0L=0xB0;
  6104  000CDE  0EB0               	movlw	176
  6105  000CE0  6ED6               	movwf	214,c	;volatile
  6106  000CE2                     
  6107                           ;glory.c: 542:         Tiempo0=Tiempo0+100;
  6108  000CE2  0E64               	movlw	100
  6109  000CE4  0100               	movlb	0	; () banked
  6110  000CE6  25D1               	addwf	_Tiempo0& (0+255),w,b
  6111  000CE8  6FD1               	movwf	_Tiempo0& (0+255),b
  6112  000CEA  0E00               	movlw	0
  6113  000CEC  21D2               	addwfc	(_Tiempo0+1)& (0+255),w,b
  6114  000CEE  6FD2               	movwf	(_Tiempo0+1)& (0+255),b
  6115  000CF0                     
  6116                           ; BSR set to: 0
  6117                           ;glory.c: 545:         if (PulsoArriba==1)
  6118  000CF0  05DB               	decf	_PulsoArriba& (0+255),w,b
  6119  000CF2  11DC               	iorwf	(_PulsoArriba+1)& (0+255),w,b
  6120  000CF4  A4D8               	btfss	status,2,c
  6121  000CF6  EF7F  F006         	goto	i2u463_41
  6122  000CFA  EF81  F006         	goto	i2u463_40
  6123  000CFE                     i2u463_41:
  6124  000CFE  EFA1  F006         	goto	i2l279
  6125  000D02                     i2u463_40:
  6126  000D02                     
  6127                           ; BSR set to: 0
  6128                           ;glory.c: 546:         {;glory.c: 547:             LATA4=1;
  6129  000D02  8889               	bsf	3977,4,c	;volatile
  6130                           
  6131                           ;glory.c: 548:             LATA3=0;
  6132  000D04  9689               	bcf	3977,3,c	;volatile
  6133  000D06                     
  6134                           ; BSR set to: 0
  6135                           ;glory.c: 549:             TiempoPulso=TiempoPulso+100;
  6136  000D06  0E64               	movlw	100
  6137  000D08  25D9               	addwf	_TiempoPulso& (0+255),w,b
  6138  000D0A  6FD9               	movwf	_TiempoPulso& (0+255),b
  6139  000D0C  0E00               	movlw	0
  6140  000D0E  21DA               	addwfc	(_TiempoPulso+1)& (0+255),w,b
  6141  000D10  6FDA               	movwf	(_TiempoPulso+1)& (0+255),b
  6142                           
  6143                           ;glory.c: 550:             if (TiempoPulso>=1200)
  6144  000D12  BFDA               	btfsc	(_TiempoPulso+1)& (0+255),7,b
  6145  000D14  EF95  F006         	goto	i2u464_41
  6146  000D18  0EB0               	movlw	176
  6147  000D1A  5DD9               	subwf	_TiempoPulso& (0+255),w,b
  6148  000D1C  0E04               	movlw	4
  6149  000D1E  59DA               	subwfb	(_TiempoPulso+1)& (0+255),w,b
  6150  000D20  A0D8               	btfss	status,0,c
  6151  000D22  EF95  F006         	goto	i2u464_41
  6152  000D26  EF97  F006         	goto	i2u464_40
  6153  000D2A                     i2u464_41:
  6154  000D2A  EFBF  F006         	goto	i2l3894
  6155  000D2E                     i2u464_40:
  6156  000D2E                     
  6157                           ; BSR set to: 0
  6158                           ;glory.c: 551:             {;glory.c: 552:                 PulsoArriba=0;
  6159  000D2E  0E00               	movlw	0
  6160  000D30  6FDC               	movwf	(_PulsoArriba+1)& (0+255),b
  6161  000D32  0E00               	movlw	0
  6162  000D34  6FDB               	movwf	_PulsoArriba& (0+255),b
  6163                           
  6164                           ;glory.c: 553:                 TiempoPulso=0;
  6165  000D36  0E00               	movlw	0
  6166  000D38  6FDA               	movwf	(_TiempoPulso+1)& (0+255),b
  6167  000D3A  0E00               	movlw	0
  6168  000D3C  6FD9               	movwf	_TiempoPulso& (0+255),b
  6169  000D3E  EFBF  F006         	goto	i2l3894
  6170  000D42                     i2l279:
  6171                           
  6172                           ; BSR set to: 0
  6173                           ;glory.c: 556:             LATA4=0;
  6174  000D42  9889               	bcf	3977,4,c	;volatile
  6175                           
  6176                           ;glory.c: 557:             LATA3=0;
  6177  000D44  9689               	bcf	3977,3,c	;volatile
  6178  000D46                     
  6179                           ; BSR set to: 0
  6180                           ;glory.c: 558:             TiempoPulso=TiempoPulso+100;
  6181  000D46  0E64               	movlw	100
  6182  000D48  25D9               	addwf	_TiempoPulso& (0+255),w,b
  6183  000D4A  6FD9               	movwf	_TiempoPulso& (0+255),b
  6184  000D4C  0E00               	movlw	0
  6185  000D4E  21DA               	addwfc	(_TiempoPulso+1)& (0+255),w,b
  6186  000D50  6FDA               	movwf	(_TiempoPulso+1)& (0+255),b
  6187                           
  6188                           ;glory.c: 559:             if (TiempoPulso>=400)
  6189  000D52  BFDA               	btfsc	(_TiempoPulso+1)& (0+255),7,b
  6190  000D54  EFB5  F006         	goto	i2u465_41
  6191  000D58  0E90               	movlw	144
  6192  000D5A  5DD9               	subwf	_TiempoPulso& (0+255),w,b
  6193  000D5C  0E01               	movlw	1
  6194  000D5E  59DA               	subwfb	(_TiempoPulso+1)& (0+255),w,b
  6195  000D60  A0D8               	btfss	status,0,c
  6196  000D62  EFB5  F006         	goto	i2u465_41
  6197  000D66  EFB7  F006         	goto	i2u465_40
  6198  000D6A                     i2u465_41:
  6199  000D6A  EFBF  F006         	goto	i2l3894
  6200  000D6E                     i2u465_40:
  6201  000D6E                     
  6202                           ; BSR set to: 0
  6203                           ;glory.c: 560:             {;glory.c: 561:                 PulsoArriba=1;
  6204  000D6E  0E00               	movlw	0
  6205  000D70  6FDC               	movwf	(_PulsoArriba+1)& (0+255),b
  6206  000D72  0E01               	movlw	1
  6207  000D74  6FDB               	movwf	_PulsoArriba& (0+255),b
  6208                           
  6209                           ;glory.c: 562:                 TiempoPulso=0;
  6210  000D76  0E00               	movlw	0
  6211  000D78  6FDA               	movwf	(_TiempoPulso+1)& (0+255),b
  6212  000D7A  0E00               	movlw	0
  6213  000D7C  6FD9               	movwf	_TiempoPulso& (0+255),b
  6214  000D7E                     i2l3894:
  6215                           
  6216                           ; BSR set to: 0
  6217                           ;glory.c: 565:         if (Tiempo0>=10500)
  6218  000D7E  BFD2               	btfsc	(_Tiempo0+1)& (0+255),7,b
  6219  000D80  EFCB  F006         	goto	i2u466_41
  6220  000D84  0E04               	movlw	4
  6221  000D86  5DD1               	subwf	_Tiempo0& (0+255),w,b
  6222  000D88  0E29               	movlw	41
  6223  000D8A  59D2               	subwfb	(_Tiempo0+1)& (0+255),w,b
  6224  000D8C  A0D8               	btfss	status,0,c
  6225  000D8E  EFCB  F006         	goto	i2u466_41
  6226  000D92  EFCD  F006         	goto	i2u466_40
  6227  000D96                     i2u466_41:
  6228  000D96  EFE7  F006         	goto	i2l3914
  6229  000D9A                     i2u466_40:
  6230  000D9A                     
  6231                           ; BSR set to: 0
  6232                           ;glory.c: 566:         {;glory.c: 567:             ValorStateLock=0;
  6233  000D9A  0E00               	movlw	0
  6234  000D9C  6FE8               	movwf	(_ValorStateLock+1)& (0+255),b
  6235  000D9E  0E00               	movlw	0
  6236  000DA0  6FE7               	movwf	_ValorStateLock& (0+255),b
  6237                           
  6238                           ;glory.c: 568:             Tiempo0=0;
  6239  000DA2  0E00               	movlw	0
  6240  000DA4  6FD2               	movwf	(_Tiempo0+1)& (0+255),b
  6241  000DA6  0E00               	movlw	0
  6242  000DA8  6FD1               	movwf	_Tiempo0& (0+255),b
  6243  000DAA                     
  6244                           ; BSR set to: 0
  6245                           ;glory.c: 569:             TMR0IE=0;
  6246  000DAA  9AF2               	bcf	4082,5,c	;volatile
  6247  000DAC                     
  6248                           ; BSR set to: 0
  6249                           ;glory.c: 570:             LATA2=0;
  6250  000DAC  9489               	bcf	3977,2,c	;volatile
  6251  000DAE                     
  6252                           ; BSR set to: 0
  6253                           ;glory.c: 572:             LATA1=0;
  6254  000DAE  9289               	bcf	3977,1,c	;volatile
  6255  000DB0                     
  6256                           ; BSR set to: 0
  6257                           ;glory.c: 573:             LATA0=0;
  6258  000DB0  9089               	bcf	3977,0,c	;volatile
  6259  000DB2                     
  6260                           ; BSR set to: 0
  6261                           ;glory.c: 575:             LATA4=0;
  6262  000DB2  9889               	bcf	3977,4,c	;volatile
  6263  000DB4                     
  6264                           ; BSR set to: 0
  6265                           ;glory.c: 576:             LATA3=0;
  6266  000DB4  9689               	bcf	3977,3,c	;volatile
  6267  000DB6                     
  6268                           ; BSR set to: 0
  6269                           ;glory.c: 577:             USART_EnviaMsg("CRITICAL: timeout waiting for door, locked");
  6270  000DB6  0E67               	movlw	low STR_32
  6271  000DB8  6E01               	movwf	i2USART_EnviaMsg@msgout^0,c
  6272  000DBA  0E7E               	movlw	high STR_32
  6273  000DBC  6E02               	movwf	(i2USART_EnviaMsg@msgout+1)^0,c
  6274  000DBE  EC78  F015         	call	i2_USART_EnviaMsg	;wreg free
  6275  000DC2                     
  6276                           ;glory.c: 578:             USART_EnviaMsg(CRLF);
  6277  000DC2  0EFC               	movlw	low _CRLF
  6278  000DC4  6E01               	movwf	i2USART_EnviaMsg@msgout^0,c
  6279  000DC6  0E00               	movlw	high _CRLF
  6280  000DC8  6E02               	movwf	(i2USART_EnviaMsg@msgout+1)^0,c
  6281  000DCA  EC78  F015         	call	i2_USART_EnviaMsg	;wreg free
  6282  000DCE                     i2l3914:
  6283                           
  6284                           ;glory.c: 582:     if (TMR1IF && TMR1IE)
  6285  000DCE  A09E               	btfss	3998,0,c	;volatile
  6286  000DD0  EFEC  F006         	goto	i2u467_41
  6287  000DD4  EFEE  F006         	goto	i2u467_40
  6288  000DD8                     i2u467_41:
  6289  000DD8  EF4D  F007         	goto	i2l3948
  6290  000DDC                     i2u467_40:
  6291  000DDC  A09D               	btfss	3997,0,c	;volatile
  6292  000DDE  EFF3  F006         	goto	i2u468_41
  6293  000DE2  EFF5  F006         	goto	i2u468_40
  6294  000DE6                     i2u468_41:
  6295  000DE6  EF4D  F007         	goto	i2l3948
  6296  000DEA                     i2u468_40:
  6297  000DEA                     
  6298                           ;glory.c: 583:     {;glory.c: 584:         TMR1IF=0;
  6299  000DEA  909E               	bcf	3998,0,c	;volatile
  6300  000DEC                     
  6301                           ;glory.c: 585:         TMR1H=0xB1;
  6302  000DEC  0EB1               	movlw	177
  6303  000DEE  6ECF               	movwf	207,c	;volatile
  6304                           
  6305                           ;glory.c: 586:         TMR1L=0xE0;
  6306  000DF0  0EE0               	movlw	224
  6307  000DF2  6ECE               	movwf	206,c	;volatile
  6308  000DF4                     
  6309                           ;glory.c: 587:         Tiempo1=Tiempo1+10;
  6310  000DF4  0E0A               	movlw	10
  6311  000DF6  0100               	movlb	0	; () banked
  6312  000DF8  25CF               	addwf	_Tiempo1& (0+255),w,b
  6313  000DFA  6FCF               	movwf	_Tiempo1& (0+255),b
  6314  000DFC  0E00               	movlw	0
  6315  000DFE  21D0               	addwfc	(_Tiempo1+1)& (0+255),w,b
  6316  000E00  6FD0               	movwf	(_Tiempo1+1)& (0+255),b
  6317  000E02                     
  6318                           ; BSR set to: 0
  6319                           ;glory.c: 590:         if (Tiempo1>=2020)
  6320  000E02  BFD0               	btfsc	(_Tiempo1+1)& (0+255),7,b
  6321  000E04  EF0D  F007         	goto	i2u469_41
  6322  000E08  0EE4               	movlw	228
  6323  000E0A  5DCF               	subwf	_Tiempo1& (0+255),w,b
  6324  000E0C  0E07               	movlw	7
  6325  000E0E  59D0               	subwfb	(_Tiempo1+1)& (0+255),w,b
  6326  000E10  A0D8               	btfss	status,0,c
  6327  000E12  EF0D  F007         	goto	i2u469_41
  6328  000E16  EF0F  F007         	goto	i2u469_40
  6329  000E1A                     i2u469_41:
  6330  000E1A  EF4D  F007         	goto	i2l3948
  6331  000E1E                     i2u469_40:
  6332  000E1E                     
  6333                           ; BSR set to: 0
  6334                           ;glory.c: 592:         {;glory.c: 593:             Tiempo1=0;
  6335  000E1E  0E00               	movlw	0
  6336  000E20  6FD0               	movwf	(_Tiempo1+1)& (0+255),b
  6337  000E22  0E00               	movlw	0
  6338  000E24  6FCF               	movwf	_Tiempo1& (0+255),b
  6339  000E26                     
  6340                           ; BSR set to: 0
  6341                           ;glory.c: 594:             TMR1IE=0;
  6342  000E26  909D               	bcf	3997,0,c	;volatile
  6343  000E28                     
  6344                           ; BSR set to: 0
  6345                           ;glory.c: 595:             LATC1=0;
  6346  000E28  928B               	bcf	3979,1,c	;volatile
  6347  000E2A                     
  6348                           ; BSR set to: 0
  6349                           ;glory.c: 597:             LATE0=0;
  6350  000E2A  908D               	bcf	3981,0,c	;volatile
  6351  000E2C                     
  6352                           ; BSR set to: 0
  6353                           ;glory.c: 598:             LATA5=0;
  6354  000E2C  9A89               	bcf	3977,5,c	;volatile
  6355  000E2E                     
  6356                           ; BSR set to: 0
  6357                           ;glory.c: 599:             if (ValorStateShutter==3)
  6358  000E2E  0E03               	movlw	3
  6359  000E30  19E9               	xorwf	_ValorStateShutter& (0+255),w,b
  6360  000E32  11EA               	iorwf	(_ValorStateShutter+1)& (0+255),w,b
  6361  000E34  A4D8               	btfss	status,2,c
  6362  000E36  EF1F  F007         	goto	i2u470_41
  6363  000E3A  EF21  F007         	goto	i2u470_40
  6364  000E3E                     i2u470_41:
  6365  000E3E  EF32  F007         	goto	i2l3942
  6366  000E42                     i2u470_40:
  6367  000E42                     
  6368                           ; BSR set to: 0
  6369                           ;glory.c: 600:             {;glory.c: 601:                 USART_EnviaMsg("CLOSED");
  6370  000E42  0EE6               	movlw	low STR_33
  6371  000E44  6E01               	movwf	i2USART_EnviaMsg@msgout^0,c
  6372  000E46  0E7F               	movlw	high STR_33
  6373  000E48  6E02               	movwf	(i2USART_EnviaMsg@msgout+1)^0,c
  6374  000E4A  EC78  F015         	call	i2_USART_EnviaMsg	;wreg free
  6375                           
  6376                           ;glory.c: 602:                 USART_EnviaMsg(CRLF);
  6377  000E4E  0EFC               	movlw	low _CRLF
  6378  000E50  6E01               	movwf	i2USART_EnviaMsg@msgout^0,c
  6379  000E52  0E00               	movlw	high _CRLF
  6380  000E54  6E02               	movwf	(i2USART_EnviaMsg@msgout+1)^0,c
  6381  000E56  EC78  F015         	call	i2_USART_EnviaMsg	;wreg free
  6382  000E5A                     
  6383                           ;glory.c: 603:                 ValorStateShutter=9;
  6384  000E5A  0E00               	movlw	0
  6385  000E5C  0100               	movlb	0	; () banked
  6386  000E5E  6FEA               	movwf	(_ValorStateShutter+1)& (0+255),b
  6387  000E60  0E09               	movlw	9
  6388  000E62  6FE9               	movwf	_ValorStateShutter& (0+255),b
  6389  000E64                     i2l3942:
  6390                           
  6391                           ; BSR set to: 0
  6392                           ;glory.c: 605:             if (ValorStateShutter==2)
  6393  000E64  0E02               	movlw	2
  6394  000E66  19E9               	xorwf	_ValorStateShutter& (0+255),w,b
  6395  000E68  11EA               	iorwf	(_ValorStateShutter+1)& (0+255),w,b
  6396  000E6A  A4D8               	btfss	status,2,c
  6397  000E6C  EF3A  F007         	goto	i2u471_41
  6398  000E70  EF3C  F007         	goto	i2u471_40
  6399  000E74                     i2u471_41:
  6400  000E74  EF4D  F007         	goto	i2l3948
  6401  000E78                     i2u471_40:
  6402  000E78                     
  6403                           ; BSR set to: 0
  6404                           ;glory.c: 606:             {;glory.c: 607:                 USART_EnviaMsg("OPEN");
  6405  000E78  0EC9               	movlw	low (STR_19+6)
  6406  000E7A  6E01               	movwf	i2USART_EnviaMsg@msgout^0,c
  6407  000E7C  0E7F               	movlw	high (STR_19+6)
  6408  000E7E  6E02               	movwf	(i2USART_EnviaMsg@msgout+1)^0,c
  6409  000E80  EC78  F015         	call	i2_USART_EnviaMsg	;wreg free
  6410                           
  6411                           ;glory.c: 608:                 USART_EnviaMsg(CRLF);
  6412  000E84  0EFC               	movlw	low _CRLF
  6413  000E86  6E01               	movwf	i2USART_EnviaMsg@msgout^0,c
  6414  000E88  0E00               	movlw	high _CRLF
  6415  000E8A  6E02               	movwf	(i2USART_EnviaMsg@msgout+1)^0,c
  6416  000E8C  EC78  F015         	call	i2_USART_EnviaMsg	;wreg free
  6417  000E90                     
  6418                           ;glory.c: 609:                 ValorStateShutter=8;
  6419  000E90  0E00               	movlw	0
  6420  000E92  0100               	movlb	0	; () banked
  6421  000E94  6FEA               	movwf	(_ValorStateShutter+1)& (0+255),b
  6422  000E96  0E08               	movlw	8
  6423  000E98  6FE9               	movwf	_ValorStateShutter& (0+255),b
  6424  000E9A                     i2l3948:
  6425                           
  6426                           ;glory.c: 615:     if (TMR2IF && TMR2IE)
  6427  000E9A  A29E               	btfss	3998,1,c	;volatile
  6428  000E9C  EF52  F007         	goto	i2u472_41
  6429  000EA0  EF54  F007         	goto	i2u472_40
  6430  000EA4                     i2u472_41:
  6431  000EA4  EFAA  F007         	goto	i2l293
  6432  000EA8                     i2u472_40:
  6433  000EA8  A29D               	btfss	3997,1,c	;volatile
  6434  000EAA  EF59  F007         	goto	i2u473_41
  6435  000EAE  EF5B  F007         	goto	i2u473_40
  6436  000EB2                     i2u473_41:
  6437  000EB2  EFAA  F007         	goto	i2l293
  6438  000EB6                     i2u473_40:
  6439  000EB6                     
  6440                           ;glory.c: 616:     {;glory.c: 617:         TMR2IF=0;
  6441  000EB6  929E               	bcf	3998,1,c	;volatile
  6442  000EB8                     
  6443                           ;glory.c: 618:         Tiempo2=Tiempo2+10;
  6444  000EB8  0E0A               	movlw	10
  6445  000EBA  0100               	movlb	0	; () banked
  6446  000EBC  25CD               	addwf	_Tiempo2& (0+255),w,b
  6447  000EBE  6FCD               	movwf	_Tiempo2& (0+255),b
  6448  000EC0  0E00               	movlw	0
  6449  000EC2  21CE               	addwfc	(_Tiempo2+1)& (0+255),w,b
  6450  000EC4  6FCE               	movwf	(_Tiempo2+1)& (0+255),b
  6451                           
  6452                           ;glory.c: 619:         if (PulsoArribaBuzzer==1)
  6453  000EC6  05D7               	decf	_PulsoArribaBuzzer& (0+255),w,b
  6454  000EC8  11D8               	iorwf	(_PulsoArribaBuzzer+1)& (0+255),w,b
  6455  000ECA  A4D8               	btfss	status,2,c
  6456  000ECC  EF6A  F007         	goto	i2u474_41
  6457  000ED0  EF6C  F007         	goto	i2u474_40
  6458  000ED4                     i2u474_41:
  6459  000ED4  EF8C  F007         	goto	i2l289
  6460  000ED8                     i2u474_40:
  6461  000ED8                     
  6462                           ; BSR set to: 0
  6463                           ;glory.c: 620:         {;glory.c: 621:             LATE2=1;
  6464  000ED8  848D               	bsf	3981,2,c	;volatile
  6465                           
  6466                           ;glory.c: 622:             LATE1=0;
  6467  000EDA  928D               	bcf	3981,1,c	;volatile
  6468  000EDC                     
  6469                           ; BSR set to: 0
  6470                           ;glory.c: 623:             TiempoPulsoBuzzer=TiempoPulsoBuzzer+10;
  6471  000EDC  0E0A               	movlw	10
  6472  000EDE  25D5               	addwf	_TiempoPulsoBuzzer& (0+255),w,b
  6473  000EE0  6FD5               	movwf	_TiempoPulsoBuzzer& (0+255),b
  6474  000EE2  0E00               	movlw	0
  6475  000EE4  21D6               	addwfc	(_TiempoPulsoBuzzer+1)& (0+255),w,b
  6476  000EE6  6FD6               	movwf	(_TiempoPulsoBuzzer+1)& (0+255),b
  6477                           
  6478                           ;glory.c: 624:             if (TiempoPulsoBuzzer>=140)
  6479  000EE8  BFD6               	btfsc	(_TiempoPulsoBuzzer+1)& (0+255),7,b
  6480  000EEA  EF80  F007         	goto	i2u475_41
  6481  000EEE  51D6               	movf	(_TiempoPulsoBuzzer+1)& (0+255),w,b
  6482  000EF0  E109               	bnz	i2u475_40
  6483  000EF2  0E8C               	movlw	140
  6484  000EF4  5DD5               	subwf	_TiempoPulsoBuzzer& (0+255),w,b
  6485  000EF6  A0D8               	btfss	status,0,c
  6486  000EF8  EF80  F007         	goto	i2u475_41
  6487  000EFC  EF82  F007         	goto	i2u475_40
  6488  000F00                     i2u475_41:
  6489  000F00  EFAA  F007         	goto	i2l293
  6490  000F04                     i2u475_40:
  6491  000F04                     
  6492                           ; BSR set to: 0
  6493                           ;glory.c: 625:             {;glory.c: 626:                 PulsoArribaBuzzer=0;
  6494  000F04  0E00               	movlw	0
  6495  000F06  6FD8               	movwf	(_PulsoArribaBuzzer+1)& (0+255),b
  6496  000F08  0E00               	movlw	0
  6497  000F0A  6FD7               	movwf	_PulsoArribaBuzzer& (0+255),b
  6498                           
  6499                           ;glory.c: 627:                 TiempoPulsoBuzzer=0;
  6500  000F0C  0E00               	movlw	0
  6501  000F0E  6FD6               	movwf	(_TiempoPulsoBuzzer+1)& (0+255),b
  6502  000F10  0E00               	movlw	0
  6503  000F12  6FD5               	movwf	_TiempoPulsoBuzzer& (0+255),b
  6504  000F14  EFAA  F007         	goto	i2l293
  6505  000F18                     i2l289:
  6506                           
  6507                           ; BSR set to: 0
  6508                           ;glory.c: 630:             LATE2=0;
  6509  000F18  948D               	bcf	3981,2,c	;volatile
  6510                           
  6511                           ;glory.c: 631:             LATE1=0;
  6512  000F1A  928D               	bcf	3981,1,c	;volatile
  6513  000F1C                     
  6514                           ; BSR set to: 0
  6515                           ;glory.c: 632:             TiempoPulsoBuzzer=TiempoPulsoBuzzer+10;
  6516  000F1C  0E0A               	movlw	10
  6517  000F1E  25D5               	addwf	_TiempoPulsoBuzzer& (0+255),w,b
  6518  000F20  6FD5               	movwf	_TiempoPulsoBuzzer& (0+255),b
  6519  000F22  0E00               	movlw	0
  6520  000F24  21D6               	addwfc	(_TiempoPulsoBuzzer+1)& (0+255),w,b
  6521  000F26  6FD6               	movwf	(_TiempoPulsoBuzzer+1)& (0+255),b
  6522                           
  6523                           ;glory.c: 633:             if (TiempoPulsoBuzzer>=1920)
  6524  000F28  BFD6               	btfsc	(_TiempoPulsoBuzzer+1)& (0+255),7,b
  6525  000F2A  EFA0  F007         	goto	i2u476_41
  6526  000F2E  0E80               	movlw	128
  6527  000F30  5DD5               	subwf	_TiempoPulsoBuzzer& (0+255),w,b
  6528  000F32  0E07               	movlw	7
  6529  000F34  59D6               	subwfb	(_TiempoPulsoBuzzer+1)& (0+255),w,b
  6530  000F36  A0D8               	btfss	status,0,c
  6531  000F38  EFA0  F007         	goto	i2u476_41
  6532  000F3C  EFA2  F007         	goto	i2u476_40
  6533  000F40                     i2u476_41:
  6534  000F40  EFAA  F007         	goto	i2l293
  6535  000F44                     i2u476_40:
  6536  000F44                     
  6537                           ; BSR set to: 0
  6538                           ;glory.c: 634:             {;glory.c: 635:                 PulsoArribaBuzzer=1;
  6539  000F44  0E00               	movlw	0
  6540  000F46  6FD8               	movwf	(_PulsoArribaBuzzer+1)& (0+255),b
  6541  000F48  0E01               	movlw	1
  6542  000F4A  6FD7               	movwf	_PulsoArribaBuzzer& (0+255),b
  6543                           
  6544                           ;glory.c: 636:                 TiempoPulsoBuzzer=0;
  6545  000F4C  0E00               	movlw	0
  6546  000F4E  6FD6               	movwf	(_TiempoPulsoBuzzer+1)& (0+255),b
  6547  000F50  0E00               	movlw	0
  6548  000F52  6FD5               	movwf	_TiempoPulsoBuzzer& (0+255),b
  6549  000F54                     i2l293:
  6550  000F54  C07D  FFF5         	movff	??_isr+11,tablat
  6551  000F58  C07C  FFF8         	movff	??_isr+10,tblptru
  6552  000F5C  C07B  FFF7         	movff	??_isr+9,tblptrh
  6553  000F60  C07A  FFF6         	movff	??_isr+8,tblptrl
  6554  000F64  C079  FFF4         	movff	??_isr+7,prodh
  6555  000F68  C078  FFF3         	movff	??_isr+6,prodl
  6556  000F6C  C077  FFDA         	movff	??_isr+5,fsr2h
  6557  000F70  C076  FFD9         	movff	??_isr+4,fsr2l
  6558  000F74  C075  FFE2         	movff	??_isr+3,fsr1h
  6559  000F78  C074  FFE1         	movff	??_isr+2,fsr1l
  6560  000F7C  927F               	bcf	int$flags,1,c	;clear compiler interrupt flag (level 2)
  6561  000F7E  0011               	retfie		f
  6562  000F80                     __end_of_isr:
  6563                           	callstack 0
  6564                           
  6565 ;; *************** function i2_USART_EnviaMsg *****************
  6566 ;; Defined at:
  6567 ;;		line 642 in file "glory.c"
  6568 ;; Parameters:    Size  Location     Type
  6569 ;;  msgout          2    0[COMRAM] PTR unsigned char 
  6570 ;;		 -> STR_34(5), STR_33(7), STR_32(43), MsgAyuda(107), 
  6571 ;;		 -> STR_30(7), STR_28(7), STR_26(10), txt(5), 
  6572 ;;		 -> STR_24(13), MsgPersonalidad2(29), MsgPersonalidad1(26), MsgVersion(20), 
  6573 ;;		 -> STR_23(44), STR_22(20), STR_21(24), STR_20(29), 
  6574 ;;		 -> STR_19(11), STR_18(30), STR_17(12), STR_16(22), 
  6575 ;;		 -> STR_15(22), STR_14(22), STR_13(20), STR_12(30), 
  6576 ;;		 -> STR_11(12), STR_10(33), STR_9(19), STR_8(2), 
  6577 ;;		 -> STR_7(20), STR_6(2), STR_5(20), STR_4(33), 
  6578 ;;		 -> STR_3(21), CRLF(3), STR_2(2), STR_1(2), 
  6579 ;; Auto vars:     Size  Location     Type
  6580 ;;  letraout        1    2[COMRAM] unsigned char 
  6581 ;; Return value:  Size  Location     Type
  6582 ;;                  1    wreg      void 
  6583 ;; Registers used:
  6584 ;;		wreg, fsr1l, fsr1h, status,2, status,0, tblptrl, tblptrh, tblptru
  6585 ;; Tracked objects:
  6586 ;;		On entry : 0/0
  6587 ;;		On exit  : 0/0
  6588 ;;		Unchanged: 0/0
  6589 ;; Data sizes:     COMRAM   BANK0   BANK1   BANK2   BANK3   BANK4   BANK5
  6590 ;;      Params:         2       0       0       0       0       0       0
  6591 ;;      Locals:         1       0       0       0       0       0       0
  6592 ;;      Temps:          0       0       0       0       0       0       0
  6593 ;;      Totals:         3       0       0       0       0       0       0
  6594 ;;Total ram usage:        3 bytes
  6595 ;; Hardware stack levels used: 1
  6596 ;; This function calls:
  6597 ;;		Nothing
  6598 ;; This function is called by:
  6599 ;;		_isr
  6600 ;; This function uses a non-reentrant model
  6601 ;;
  6602                           
  6603                           	psect	text8
  6604  002AF0                     __ptext8:
  6605                           	callstack 0
  6606  002AF0                     i2_USART_EnviaMsg:
  6607                           	callstack 27
  6608  002AF0                     
  6609                           ;glory.c: 642: void USART_EnviaMsg (char *msgout);glory.c: 643: {;glory.c: 644:     char
      +                           letraout;;glory.c: 645:     while(*msgout != 0x00)
  6610  002AF0  EF96  F015         	goto	i2l3482
  6611  002AF4                     i2l3478:
  6612                           
  6613                           ;glory.c: 646:     {;glory.c: 647:         letraout=*msgout;
  6614  002AF4  C001  FFF6         	movff	i2USART_EnviaMsg@msgout,tblptrl
  6615  002AF8  C002  FFF7         	movff	i2USART_EnviaMsg@msgout+1,tblptrh
  6616  002AFC  6AF8               	clrf	tblptru,c
  6617  002AFE  0E05               	movlw	(high __ramtop+-1)
  6618  002B00  64F7               	cpfsgt	tblptrh,c
  6619  002B02  D003               	bra	i2u396_47
  6620  002B04  0008               	tblrd		*
  6621  002B06  50F5               	movf	tablat,w,c
  6622  002B08  D005               	bra	i2u396_40
  6623  002B0A                     i2u396_47:
  6624  002B0A  CFF6 FFE1          	movff	tblptrl,fsr1l
  6625  002B0E  CFF7 FFE2          	movff	tblptrh,fsr1h
  6626  002B12  50E7               	movf	indf1,w,c
  6627  002B14                     i2u396_40:
  6628  002B14  6E03               	movwf	i2USART_EnviaMsg@letraout^0,c
  6629  002B16                     
  6630                           ;glory.c: 648:         msgout++;
  6631  002B16  4A01               	infsnz	i2USART_EnviaMsg@msgout^0,f,c
  6632  002B18  2A02               	incf	(i2USART_EnviaMsg@msgout+1)^0,f,c
  6633  002B1A                     i2l298:
  6634  002B1A  A89E               	btfss	3998,4,c	;volatile
  6635  002B1C  EF92  F015         	goto	i2u397_41
  6636  002B20  EF94  F015         	goto	i2u397_40
  6637  002B24                     i2u397_41:
  6638  002B24  EF8D  F015         	goto	i2l298
  6639  002B28                     i2u397_40:
  6640  002B28                     
  6641                           ;glory.c: 650:         TXREG=letraout;
  6642  002B28  C003  FFAD         	movff	i2USART_EnviaMsg@letraout,4013	;volatile
  6643  002B2C                     i2l3482:
  6644                           
  6645                           ;glory.c: 645:     while(*msgout != 0x00)
  6646  002B2C  C001  FFF6         	movff	i2USART_EnviaMsg@msgout,tblptrl
  6647  002B30  C002  FFF7         	movff	i2USART_EnviaMsg@msgout+1,tblptrh
  6648  002B34  6AF8               	clrf	tblptru,c
  6649  002B36  0E05               	movlw	(high __ramtop+-1)
  6650  002B38  64F7               	cpfsgt	tblptrh,c
  6651  002B3A  D003               	bra	i2u398_47
  6652  002B3C  0008               	tblrd		*
  6653  002B3E  50F5               	movf	tablat,w,c
  6654  002B40  D005               	bra	i2u398_40
  6655  002B42                     i2u398_47:
  6656  002B42  CFF6 FFE1          	movff	tblptrl,fsr1l
  6657  002B46  CFF7 FFE2          	movff	tblptrh,fsr1h
  6658  002B4A  50E7               	movf	indf1,w,c
  6659  002B4C                     i2u398_40:
  6660  002B4C  0900               	iorlw	0
  6661  002B4E  A4D8               	btfss	status,2,c
  6662  002B50  EFAC  F015         	goto	i2u399_41
  6663  002B54  EFAE  F015         	goto	i2u399_40
  6664  002B58                     i2u399_41:
  6665  002B58  EF7A  F015         	goto	i2l3478
  6666  002B5C                     i2u399_40:
  6667  002B5C  0012               	return		;funcret
  6668  002B5E                     __end_ofi2_USART_EnviaMsg:
  6669                           	callstack 0
  6670                           
  6671 ;; *************** function _sprintf *****************
  6672 ;; Defined at:
  6673 ;;		line 9 in file "C:\Program Files\Microchip\xc8\v2.32\pic\sources\c99\common\nf_sprintf.c"
  6674 ;; Parameters:    Size  Location     Type
  6675 ;;  s               2   97[COMRAM] PTR unsigned char 
  6676 ;;		 -> txt(5), 
  6677 ;;  fmt             2   99[COMRAM] PTR const unsigned char 
  6678 ;;		 -> STR_31(5), STR_29(5), STR_27(5), STR_25(5), 
  6679 ;; Auto vars:     Size  Location     Type
  6680 ;;  f               6  107[COMRAM] struct _IO_FILE
  6681 ;;  ap              2  105[COMRAM] PTR void [1]
  6682 ;;		 -> ?_sprintf(2), 
  6683 ;;  ret             2  103[COMRAM] int 
  6684 ;; Return value:  Size  Location     Type
  6685 ;;                  2   97[COMRAM] int 
  6686 ;; Registers used:
  6687 ;;		wreg, fsr1l, fsr1h, fsr2l, fsr2h, status,2, status,0, tblptrl, tblptrh, tblptru, prodl, prodh, cstack
  6688 ;; Tracked objects:
  6689 ;;		On entry : 0/0
  6690 ;;		On exit  : 0/0
  6691 ;;		Unchanged: 0/0
  6692 ;; Data sizes:     COMRAM   BANK0   BANK1   BANK2   BANK3   BANK4   BANK5
  6693 ;;      Params:         6       0       0       0       0       0       0
  6694 ;;      Locals:        10       0       0       0       0       0       0
  6695 ;;      Temps:          0       0       0       0       0       0       0
  6696 ;;      Totals:        16       0       0       0       0       0       0
  6697 ;;Total ram usage:       16 bytes
  6698 ;; Hardware stack levels used: 1
  6699 ;; Hardware stack levels required when called: 7
  6700 ;; This function calls:
  6701 ;;		_vfprintf
  6702 ;; This function is called by:
  6703 ;;		_isr
  6704 ;; This function uses a non-reentrant model
  6705 ;;
  6706                           
  6707                           	psect	text9
  6708  002C2C                     __ptext9:
  6709                           	callstack 0
  6710  002C2C                     _sprintf:
  6711                           	callstack 20
  6712  002C2C  0E66               	movlw	low (?_sprintf+4)
  6713  002C2E  6E6A               	movwf	sprintf@ap^0,c
  6714  002C30  0E00               	movlw	high (?_sprintf+4)
  6715  002C32  6E6B               	movwf	(sprintf@ap+1)^0,c
  6716  002C34  C062  F06C         	movff	sprintf@s,sprintf@f
  6717  002C38  C063  F06D         	movff	sprintf@s+1,sprintf@f+1
  6718  002C3C  0E00               	movlw	0
  6719  002C3E  6E6F               	movwf	(sprintf@f+3)^0,c
  6720  002C40  0E00               	movlw	0
  6721  002C42  6E6E               	movwf	(sprintf@f+2)^0,c
  6722  002C44  0E00               	movlw	0
  6723  002C46  6E71               	movwf	(sprintf@f+5)^0,c
  6724  002C48  0E00               	movlw	0
  6725  002C4A  6E70               	movwf	(sprintf@f+4)^0,c
  6726  002C4C  0E6C               	movlw	low sprintf@f
  6727  002C4E  6E5A               	movwf	vfprintf@fp^0,c
  6728  002C50  0E00               	movlw	high sprintf@f
  6729  002C52  6E5B               	movwf	(vfprintf@fp+1)^0,c
  6730  002C54  C064  F05C         	movff	sprintf@fmt,vfprintf@fmt
  6731  002C58  C065  F05D         	movff	sprintf@fmt+1,vfprintf@fmt+1
  6732  002C5C  0E6A               	movlw	low sprintf@ap
  6733  002C5E  6E5E               	movwf	vfprintf@ap^0,c
  6734  002C60  0E00               	movlw	high sprintf@ap
  6735  002C62  6E5F               	movwf	(vfprintf@ap+1)^0,c
  6736  002C64  ECE5  F015         	call	_vfprintf	;wreg free
  6737  002C68  C05A  F068         	movff	?_vfprintf,sprintf@ret
  6738  002C6C  C05B  F069         	movff	?_vfprintf+1,sprintf@ret+1
  6739  002C70  506E               	movf	(sprintf@f+2)^0,w,c
  6740  002C72  2462               	addwf	sprintf@s^0,w,c
  6741  002C74  6ED9               	movwf	fsr2l,c
  6742  002C76  506F               	movf	(sprintf@f+3)^0,w,c
  6743  002C78  2063               	addwfc	(sprintf@s+1)^0,w,c
  6744  002C7A  6EDA               	movwf	fsr2h,c
  6745  002C7C  0E00               	movlw	0
  6746  002C7E  6EDF               	movwf	indf2,c
  6747  002C80  C068  F062         	movff	sprintf@ret,?_sprintf
  6748  002C84  C069  F063         	movff	sprintf@ret+1,?_sprintf+1
  6749  002C88  0012               	return		;funcret
  6750  002C8A                     __end_of_sprintf:
  6751                           	callstack 0
  6752                           
  6753 ;; *************** function _vfprintf *****************
  6754 ;; Defined at:
  6755 ;;		line 1390 in file "C:\Program Files\Microchip\xc8\v2.32\pic\sources\c99\common\doprnt.c"
  6756 ;; Parameters:    Size  Location     Type
  6757 ;;  fp              2   89[COMRAM] PTR struct _IO_FILE
  6758 ;;		 -> sprintf@f(6), 
  6759 ;;  fmt             2   91[COMRAM] PTR const unsigned char 
  6760 ;;		 -> STR_31(5), STR_29(5), STR_27(5), STR_25(5), 
  6761 ;;  ap              2   93[COMRAM] PTR PTR void 
  6762 ;;		 -> sprintf@ap(2), 
  6763 ;; Auto vars:     Size  Location     Type
  6764 ;;  cfmt            2   95[COMRAM] PTR unsigned char 
  6765 ;;		 -> STR_31(5), STR_29(5), STR_27(5), STR_25(5), 
  6766 ;; Return value:  Size  Location     Type
  6767 ;;                  2   89[COMRAM] int 
  6768 ;; Registers used:
  6769 ;;		wreg, fsr1l, fsr1h, fsr2l, fsr2h, status,2, status,0, tblptrl, tblptrh, tblptru, prodl, prodh, cstack
  6770 ;; Tracked objects:
  6771 ;;		On entry : 0/0
  6772 ;;		On exit  : 0/0
  6773 ;;		Unchanged: 0/0
  6774 ;; Data sizes:     COMRAM   BANK0   BANK1   BANK2   BANK3   BANK4   BANK5
  6775 ;;      Params:         6       0       0       0       0       0       0
  6776 ;;      Locals:         2       0       0       0       0       0       0
  6777 ;;      Temps:          0       0       0       0       0       0       0
  6778 ;;      Totals:         8       0       0       0       0       0       0
  6779 ;;Total ram usage:        8 bytes
  6780 ;; Hardware stack levels used: 1
  6781 ;; Hardware stack levels required when called: 6
  6782 ;; This function calls:
  6783 ;;		_vfpfcnvrt
  6784 ;; This function is called by:
  6785 ;;		_sprintf
  6786 ;; This function uses a non-reentrant model
  6787 ;;
  6788                           
  6789                           	psect	text10
  6790  002BCA                     __ptext10:
  6791                           	callstack 0
  6792  002BCA                     _vfprintf:
  6793                           	callstack 20
  6794  002BCA                     
  6795                           ;C:\Program Files\Microchip\xc8\v2.32\pic\sources\c99\common\doprnt.c: 1390: int vfprint
      +                          f(FILE *fp, const char *fmt, va_list ap);C:\Program Files\Microchip\xc8\v2.32\pic\source
      +                          s\c99\common\doprnt.c: 1391: {;C:\Program Files\Microchip\xc8\v2.32\pic\sources\c99\comm
      +                          on\doprnt.c: 1393:     char *cfmt;;C:\Program Files\Microchip\xc8\v2.32\pic\sources\c99\
      +                          common\doprnt.c: 1395:     cfmt = (char *)fmt;
  6796  002BCA  C05C  F060         	movff	vfprintf@fmt,vfprintf@cfmt
  6797  002BCE  C05D  F061         	movff	vfprintf@fmt+1,vfprintf@cfmt+1
  6798  002BD2                     
  6799                           ;C:\Program Files\Microchip\xc8\v2.32\pic\sources\c99\common\doprnt.c: 1396:     nout = 
      +                          0;
  6800  002BD2  0E00               	movlw	0
  6801  002BD4  0100               	movlb	0	; () banked
  6802  002BD6  6FC6               	movwf	(_nout+1)& (0+255),b
  6803  002BD8  0E00               	movlw	0
  6804  002BDA  6FC5               	movwf	_nout& (0+255),b
  6805                           
  6806                           ;C:\Program Files\Microchip\xc8\v2.32\pic\sources\c99\common\doprnt.c: 1397:     while (
      +                          *cfmt) {
  6807  002BDC  EF03  F016         	goto	i2l3446
  6808  002BE0                     i2l3444:
  6809                           
  6810                           ; BSR set to: 0
  6811                           ;C:\Program Files\Microchip\xc8\v2.32\pic\sources\c99\common\doprnt.c: 1398:         nou
      +                          t += vfpfcnvrt(fp, &cfmt, ap);
  6812  002BE0  C05A  F043         	movff	vfprintf@fp,vfpfcnvrt@fp
  6813  002BE4  C05B  F044         	movff	vfprintf@fp+1,vfpfcnvrt@fp+1
  6814  002BE8  0E60               	movlw	low vfprintf@cfmt
  6815  002BEA  6E45               	movwf	vfpfcnvrt@fmt^0,c
  6816  002BEC  0E00               	movlw	high vfprintf@cfmt
  6817  002BEE  6E46               	movwf	(vfpfcnvrt@fmt+1)^0,c
  6818  002BF0  C05E  F047         	movff	vfprintf@ap,vfpfcnvrt@ap
  6819  002BF4  C05F  F048         	movff	vfprintf@ap+1,vfpfcnvrt@ap+1
  6820  002BF8  EC21  F00A         	call	_vfpfcnvrt	;wreg free
  6821  002BFC  5043               	movf	?_vfpfcnvrt^0,w,c
  6822  002BFE  0100               	movlb	0	; () banked
  6823  002C00  27C5               	addwf	_nout& (0+255),f,b
  6824  002C02  5044               	movf	(?_vfpfcnvrt+1)^0,w,c
  6825  002C04  23C6               	addwfc	(_nout+1)& (0+255),f,b
  6826  002C06                     i2l3446:
  6827                           
  6828                           ; BSR set to: 0
  6829                           ;C:\Program Files\Microchip\xc8\v2.32\pic\sources\c99\common\doprnt.c: 1397:     while (
      +                          *cfmt) {
  6830  002C06  C060  FFF6         	movff	vfprintf@cfmt,tblptrl
  6831  002C0A  C061  FFF7         	movff	vfprintf@cfmt+1,tblptrh
  6832  002C0E                     	if	0	;tblptru may be non-zero
  6833  002C0E                     	endif
  6834  002C0E                     	if	0	;tblptru may be non-zero
  6835  002C0E                     	endif
  6836  002C0E  0008               	tblrd		*
  6837  002C10  50F5               	movf	tablat,w,c
  6838  002C12  0900               	iorlw	0
  6839  002C14  A4D8               	btfss	status,2,c
  6840  002C16  EF0F  F016         	goto	i2u391_41
  6841  002C1A  EF11  F016         	goto	i2u391_40
  6842  002C1E                     i2u391_41:
  6843  002C1E  EFF0  F015         	goto	i2l3444
  6844  002C22                     i2u391_40:
  6845  002C22                     
  6846                           ; BSR set to: 0
  6847                           ;C:\Program Files\Microchip\xc8\v2.32\pic\sources\c99\common\doprnt.c: 1400:     return 
      +                          nout;
  6848  002C22  C0C5  F05A         	movff	_nout,?_vfprintf
  6849  002C26  C0C6  F05B         	movff	_nout+1,?_vfprintf+1
  6850  002C2A                     
  6851                           ; BSR set to: 0
  6852  002C2A  0012               	return		;funcret
  6853  002C2C                     __end_of_vfprintf:
  6854                           	callstack 0
  6855                           
  6856 ;; *************** function _vfpfcnvrt *****************
  6857 ;; Defined at:
  6858 ;;		line 692 in file "C:\Program Files\Microchip\xc8\v2.32\pic\sources\c99\common\doprnt.c"
  6859 ;; Parameters:    Size  Location     Type
  6860 ;;  fp              2   66[COMRAM] PTR struct _IO_FILE
  6861 ;;		 -> sprintf@f(6), 
  6862 ;;  fmt             2   68[COMRAM] PTR PTR unsigned char 
  6863 ;;		 -> vfprintf@cfmt(2), 
  6864 ;;  ap              2   70[COMRAM] PTR PTR void 
  6865 ;;		 -> sprintf@ap(2), 
  6866 ;; Auto vars:     Size  Location     Type
  6867 ;;  llu             8   81[COMRAM] unsigned long long 
  6868 ;;  ll              8    0        long long 
  6869 ;;  f               4    0        long long 
  6870 ;;  vp              3    0        PTR void 
  6871 ;;  ct              3    0        unsigned char [3]
  6872 ;;  cp              3    0        PTR unsigned char 
  6873 ;;  done            2   76[COMRAM] int 
  6874 ;;  i               2    0        int 
  6875 ;;  c               1   80[COMRAM] unsigned char 
  6876 ;; Return value:  Size  Location     Type
  6877 ;;                  2   66[COMRAM] int 
  6878 ;; Registers used:
  6879 ;;		wreg, fsr1l, fsr1h, fsr2l, fsr2h, status,2, status,0, tblptrl, tblptrh, tblptru, prodl, prodh, cstack
  6880 ;; Tracked objects:
  6881 ;;		On entry : 0/0
  6882 ;;		On exit  : 0/0
  6883 ;;		Unchanged: 0/0
  6884 ;; Data sizes:     COMRAM   BANK0   BANK1   BANK2   BANK3   BANK4   BANK5
  6885 ;;      Params:         6       0       0       0       0       0       0
  6886 ;;      Locals:        13       0       0       0       0       0       0
  6887 ;;      Temps:          4       0       0       0       0       0       0
  6888 ;;      Totals:        23       0       0       0       0       0       0
  6889 ;;Total ram usage:       23 bytes
  6890 ;; Hardware stack levels used: 1
  6891 ;; Hardware stack levels required when called: 5
  6892 ;; This function calls:
  6893 ;;		_atoi
  6894 ;;		_fputc
  6895 ;;		_isdigit
  6896 ;;		_utoa
  6897 ;;		_xtoa
  6898 ;; This function is called by:
  6899 ;;		_vfprintf
  6900 ;; This function uses a non-reentrant model
  6901 ;;
  6902                           
  6903                           	psect	text11
  6904  001442                     __ptext11:
  6905                           	callstack 0
  6906  001442                     _vfpfcnvrt:
  6907                           	callstack 20
  6908  001442                     
  6909                           ;C:\Program Files\Microchip\xc8\v2.32\pic\sources\c99\common\doprnt.c: 692: static int v
      +                          fpfcnvrt(FILE *fp, char *fmt[], va_list ap);C:\Program Files\Microchip\xc8\v2.32\pic\sou
      +                          rces\c99\common\doprnt.c: 693: {;C:\Program Files\Microchip\xc8\v2.32\pic\sources\c99\co
      +                          mmon\doprnt.c: 694:     char c, *cp, ct[3];;C:\Program Files\Microchip\xc8\v2.32\pic\sou
      +                          rces\c99\common\doprnt.c: 695:     int done, i;;C:\Program Files\Microchip\xc8\v2.32\pic
      +                          \sources\c99\common\doprnt.c: 696:     long long ll;;C:\Program Files\Microchip\xc8\v2.3
      +                          2\pic\sources\c99\common\doprnt.c: 697:     unsigned long long llu;
  6910  001442  C045  FFD9         	movff	vfpfcnvrt@fmt,fsr2l
  6911  001446  C046  FFDA         	movff	vfpfcnvrt@fmt+1,fsr2h
  6912  00144A  CFDE FFF6          	movff	postinc2,tblptrl
  6913  00144E  CFDD FFF7          	movff	postdec2,tblptrh
  6914  001452                     	if	0	;tblptru may be non-zero
  6915  001452                     	endif
  6916  001452                     	if	0	;tblptru may be non-zero
  6917  001452                     	endif
  6918  001452  0008               	tblrd		*
  6919  001454  50F5               	movf	tablat,w,c
  6920  001456  0A25               	xorlw	37
  6921  001458  A4D8               	btfss	status,2,c
  6922  00145A  EF31  F00A         	goto	i2u300_41
  6923  00145E  EF33  F00A         	goto	i2u300_40
  6924  001462                     i2u300_41:
  6925  001462  EF21  F00C         	goto	i2l2996
  6926  001466                     i2u300_40:
  6927  001466                     
  6928                           ;C:\Program Files\Microchip\xc8\v2.32\pic\sources\c99\common\doprnt.c: 703:         ++*f
      +                          mt;
  6929  001466  C045  FFD9         	movff	vfpfcnvrt@fmt,fsr2l
  6930  00146A  C046  FFDA         	movff	vfpfcnvrt@fmt+1,fsr2h
  6931  00146E  2ADE               	incf	postinc2,f,c
  6932  001470  0E00               	movlw	0
  6933  001472  22DD               	addwfc	postdec2,f,c
  6934  001474                     
  6935                           ;C:\Program Files\Microchip\xc8\v2.32\pic\sources\c99\common\doprnt.c: 705:         flag
      +                          s = width = 0;
  6936  001474  0E00               	movlw	0
  6937  001476  0100               	movlb	0	; () banked
  6938  001478  6FC8               	movwf	(_width+1)& (0+255),b
  6939  00147A  0E00               	movlw	0
  6940  00147C  6FC7               	movwf	_width& (0+255),b
  6941  00147E  C0C7  F0CB         	movff	_width,_flags
  6942  001482  C0C8  F0CC         	movff	_width+1,_flags+1
  6943  001486                     
  6944                           ; BSR set to: 0
  6945                           ;C:\Program Files\Microchip\xc8\v2.32\pic\sources\c99\common\doprnt.c: 706:         prec
      +                           = -1;
  6946  001486  69C9               	setf	_prec& (0+255),b
  6947  001488  69CA               	setf	(_prec+1)& (0+255),b
  6948  00148A                     
  6949                           ; BSR set to: 0
  6950                           ;C:\Program Files\Microchip\xc8\v2.32\pic\sources\c99\common\doprnt.c: 710:         done
      +                           = 0;
  6951  00148A  0E00               	movlw	0
  6952  00148C  6E4E               	movwf	(vfpfcnvrt@done+1)^0,c
  6953  00148E  0E00               	movlw	0
  6954  001490  6E4D               	movwf	vfpfcnvrt@done^0,c
  6955                           
  6956                           ;C:\Program Files\Microchip\xc8\v2.32\pic\sources\c99\common\doprnt.c: 711:         whil
      +                          e (!done) {
  6957  001492  EF96  F00A         	goto	i2l2936
  6958  001496                     i2l2910:
  6959                           
  6960                           ;C:\Program Files\Microchip\xc8\v2.32\pic\sources\c99\common\doprnt.c: 714:             
      +                                  flags |= (1 << 0);
  6961  001496  0100               	movlb	0	; () banked
  6962  001498  81CB               	bsf	_flags& (0+255),0,b
  6963  00149A                     i2l2912:
  6964                           
  6965                           ; BSR set to: 0
  6966                           ;C:\Program Files\Microchip\xc8\v2.32\pic\sources\c99\common\doprnt.c: 715:             
      +                                  ++*fmt;
  6967  00149A  C045  FFD9         	movff	vfpfcnvrt@fmt,fsr2l
  6968  00149E  C046  FFDA         	movff	vfpfcnvrt@fmt+1,fsr2h
  6969  0014A2  2ADE               	incf	postinc2,f,c
  6970  0014A4  0E00               	movlw	0
  6971  0014A6  22DD               	addwfc	postdec2,f,c
  6972                           
  6973                           ;C:\Program Files\Microchip\xc8\v2.32\pic\sources\c99\common\doprnt.c: 716:             
      +                                  break;
  6974  0014A8  EF96  F00A         	goto	i2l2936
  6975  0014AC                     i2l2914:
  6976                           
  6977                           ;C:\Program Files\Microchip\xc8\v2.32\pic\sources\c99\common\doprnt.c: 718:             
      +                                  flags |= (1 << 1);
  6978  0014AC  0100               	movlb	0	; () banked
  6979  0014AE  83CB               	bsf	_flags& (0+255),1,b
  6980  0014B0  EF4D  F00A         	goto	i2l2912
  6981  0014B4                     i2l2918:
  6982                           
  6983                           ;C:\Program Files\Microchip\xc8\v2.32\pic\sources\c99\common\doprnt.c: 722:             
      +                                  flags |= (1 << 2);
  6984  0014B4  0100               	movlb	0	; () banked
  6985  0014B6  85CB               	bsf	_flags& (0+255),2,b
  6986  0014B8  EF4D  F00A         	goto	i2l2912
  6987  0014BC                     i2l2922:
  6988                           
  6989                           ;C:\Program Files\Microchip\xc8\v2.32\pic\sources\c99\common\doprnt.c: 726:             
      +                                  flags |= (1 << 3);
  6990  0014BC  0100               	movlb	0	; () banked
  6991  0014BE  87CB               	bsf	_flags& (0+255),3,b
  6992  0014C0  EF4D  F00A         	goto	i2l2912
  6993  0014C4                     i2l2926:
  6994                           
  6995                           ;C:\Program Files\Microchip\xc8\v2.32\pic\sources\c99\common\doprnt.c: 730:             
      +                                  flags |= (1 << 4);
  6996  0014C4  0100               	movlb	0	; () banked
  6997  0014C6  89CB               	bsf	_flags& (0+255),4,b
  6998  0014C8  EF4D  F00A         	goto	i2l2912
  6999  0014CC                     i2l2930:
  7000                           
  7001                           ;C:\Program Files\Microchip\xc8\v2.32\pic\sources\c99\common\doprnt.c: 734:             
      +                                  done = 1;
  7002  0014CC  0E00               	movlw	0
  7003  0014CE  6E4E               	movwf	(vfpfcnvrt@done+1)^0,c
  7004  0014D0  0E01               	movlw	1
  7005  0014D2  6E4D               	movwf	vfpfcnvrt@done^0,c
  7006                           
  7007                           ;C:\Program Files\Microchip\xc8\v2.32\pic\sources\c99\common\doprnt.c: 735:             
      +                                  break;
  7008  0014D4  EF96  F00A         	goto	i2l2936
  7009  0014D8                     i2l2934:
  7010  0014D8  C045  FFD9         	movff	vfpfcnvrt@fmt,fsr2l
  7011  0014DC  C046  FFDA         	movff	vfpfcnvrt@fmt+1,fsr2h
  7012  0014E0  CFDE FFF6          	movff	postinc2,tblptrl
  7013  0014E4  CFDD FFF7          	movff	postdec2,tblptrh
  7014  0014E8                     	if	0	;tblptru may be non-zero
  7015  0014E8                     	endif
  7016  0014E8                     	if	0	;tblptru may be non-zero
  7017  0014E8                     	endif
  7018  0014E8  0008               	tblrd		*
  7019  0014EA  50F5               	movf	tablat,w,c
  7020  0014EC  6E49               	movwf	??_vfpfcnvrt^0,c
  7021  0014EE  6A4A               	clrf	(??_vfpfcnvrt+1)^0,c
  7022                           
  7023                           ; Switch on 2 bytes has been partitioned into a top level switch of size 1, and 1 sub-sw
      +                          itches
  7024                           ; Switch size 1, requested type "simple"
  7025                           ; Number of cases is 1, Range of values is 0 to 0
  7026                           ; switch strategies available:
  7027                           ; Name         Instructions Cycles
  7028                           ; simple_byte            4     3 (average)
  7029                           ;	Chosen strategy is simple_byte
  7030  0014F0  504A               	movf	(??_vfpfcnvrt+1)^0,w,c
  7031  0014F2  0A00               	xorlw	0	; case 0
  7032  0014F4  B4D8               	btfsc	status,2,c
  7033  0014F6  EF7F  F00A         	goto	i2l4042
  7034  0014FA  EF66  F00A         	goto	i2l2930
  7035  0014FE                     i2l4042:
  7036                           
  7037                           ; Switch size 1, requested type "simple"
  7038                           ; Number of cases is 5, Range of values is 32 to 48
  7039                           ; switch strategies available:
  7040                           ; Name         Instructions Cycles
  7041                           ; simple_byte           16     9 (average)
  7042                           ;	Chosen strategy is simple_byte
  7043  0014FE  5049               	movf	??_vfpfcnvrt^0,w,c
  7044  001500  0A20               	xorlw	32	; case 32
  7045  001502  B4D8               	btfsc	status,2,c
  7046  001504  EF5E  F00A         	goto	i2l2922
  7047  001508  0A03               	xorlw	3	; case 35
  7048  00150A  B4D8               	btfsc	status,2,c
  7049  00150C  EF62  F00A         	goto	i2l2926
  7050  001510  0A08               	xorlw	8	; case 43
  7051  001512  B4D8               	btfsc	status,2,c
  7052  001514  EF5A  F00A         	goto	i2l2918
  7053  001518  0A06               	xorlw	6	; case 45
  7054  00151A  B4D8               	btfsc	status,2,c
  7055  00151C  EF4B  F00A         	goto	i2l2910
  7056  001520  0A1D               	xorlw	29	; case 48
  7057  001522  B4D8               	btfsc	status,2,c
  7058  001524  EF56  F00A         	goto	i2l2914
  7059  001528  EF66  F00A         	goto	i2l2930
  7060  00152C                     i2l2936:
  7061                           
  7062                           ;C:\Program Files\Microchip\xc8\v2.32\pic\sources\c99\common\doprnt.c: 711:         whil
      +                          e (!done) {
  7063  00152C  504D               	movf	vfpfcnvrt@done^0,w,c
  7064  00152E  104E               	iorwf	(vfpfcnvrt@done+1)^0,w,c
  7065  001530  B4D8               	btfsc	status,2,c
  7066  001532  EF9D  F00A         	goto	i2u301_41
  7067  001536  EF9F  F00A         	goto	i2u301_40
  7068  00153A                     i2u301_41:
  7069  00153A  EF6C  F00A         	goto	i2l2934
  7070  00153E                     i2u301_40:
  7071  00153E                     
  7072                           ;C:\Program Files\Microchip\xc8\v2.32\pic\sources\c99\common\doprnt.c: 738:         if (
      +                          flags & (1 << 0)) {
  7073  00153E  0100               	movlb	0	; () banked
  7074  001540  A1CB               	btfss	_flags& (0+255),0,b
  7075  001542  EFA5  F00A         	goto	i2u302_41
  7076  001546  EFA7  F00A         	goto	i2u302_40
  7077  00154A                     i2u302_41:
  7078  00154A  EFA8  F00A         	goto	i2l2940
  7079  00154E                     i2u302_40:
  7080  00154E                     
  7081                           ; BSR set to: 0
  7082                           ;C:\Program Files\Microchip\xc8\v2.32\pic\sources\c99\common\doprnt.c: 739:             
      +                          flags &= ~(1 << 1);
  7083  00154E  93CB               	bcf	_flags& (0+255),1,b
  7084  001550                     i2l2940:
  7085                           
  7086                           ; BSR set to: 0
  7087                           ;C:\Program Files\Microchip\xc8\v2.32\pic\sources\c99\common\doprnt.c: 745:         if (
      +                          (*fmt)[0] == '*') {
  7088  001550  C045  FFD9         	movff	vfpfcnvrt@fmt,fsr2l
  7089  001554  C046  FFDA         	movff	vfpfcnvrt@fmt+1,fsr2h
  7090  001558  CFDE FFF6          	movff	postinc2,tblptrl
  7091  00155C  CFDD FFF7          	movff	postdec2,tblptrh
  7092  001560                     	if	0	;tblptru may be non-zero
  7093  001560                     	endif
  7094  001560                     	if	0	;tblptru may be non-zero
  7095  001560                     	endif
  7096  001560  0008               	tblrd		*
  7097  001562  50F5               	movf	tablat,w,c
  7098  001564  0A2A               	xorlw	42
  7099  001566  A4D8               	btfss	status,2,c
  7100  001568  EFB8  F00A         	goto	i2u303_41
  7101  00156C  EFBA  F00A         	goto	i2u303_40
  7102  001570                     i2u303_41:
  7103  001570  EFE3  F00A         	goto	i2l2948
  7104  001574                     i2u303_40:
  7105  001574                     
  7106                           ; BSR set to: 0
  7107                           ;C:\Program Files\Microchip\xc8\v2.32\pic\sources\c99\common\doprnt.c: 746:             
      +                          ++*fmt;
  7108  001574  C045  FFD9         	movff	vfpfcnvrt@fmt,fsr2l
  7109  001578  C046  FFDA         	movff	vfpfcnvrt@fmt+1,fsr2h
  7110  00157C  2ADE               	incf	postinc2,f,c
  7111  00157E  0E00               	movlw	0
  7112  001580  22DD               	addwfc	postdec2,f,c
  7113                           
  7114                           ;C:\Program Files\Microchip\xc8\v2.32\pic\sources\c99\common\doprnt.c: 747:             
      +                          width = (*(int *)__va_arg(*(int **)ap, (int)0));
  7115  001582  C047  FFD9         	movff	vfpfcnvrt@ap,fsr2l
  7116  001586  C048  FFDA         	movff	vfpfcnvrt@ap+1,fsr2h
  7117  00158A  CFDF F049          	movff	indf2,??_vfpfcnvrt
  7118  00158E  0E02               	movlw	2
  7119  001590  26DE               	addwf	postinc2,f,c
  7120  001592  CFDF F04A          	movff	indf2,??_vfpfcnvrt+1
  7121  001596  0E00               	movlw	0
  7122  001598  22DD               	addwfc	postdec2,f,c
  7123  00159A  C049  FFD9         	movff	??_vfpfcnvrt,fsr2l
  7124  00159E  C04A  FFDA         	movff	??_vfpfcnvrt+1,fsr2h
  7125  0015A2  CFDE F0C7          	movff	postinc2,_width
  7126  0015A6  CFDD F0C8          	movff	postdec2,_width+1
  7127  0015AA                     
  7128                           ; BSR set to: 0
  7129                           ;C:\Program Files\Microchip\xc8\v2.32\pic\sources\c99\common\doprnt.c: 748:             
      +                          if (width < 0) {
  7130  0015AA  BFC8               	btfsc	(_width+1)& (0+255),7,b
  7131  0015AC  EFDC  F00A         	goto	i2u304_40
  7132  0015B0  EFDA  F00A         	goto	i2u304_41
  7133  0015B4                     i2u304_41:
  7134  0015B4  EF26  F00B         	goto	i2l2958
  7135  0015B8                     i2u304_40:
  7136  0015B8                     
  7137                           ; BSR set to: 0
  7138                           ;C:\Program Files\Microchip\xc8\v2.32\pic\sources\c99\common\doprnt.c: 749:             
      +                              flags |= (1 << 0);
  7139  0015B8  81CB               	bsf	_flags& (0+255),0,b
  7140                           
  7141                           ;C:\Program Files\Microchip\xc8\v2.32\pic\sources\c99\common\doprnt.c: 750:             
      +                              width = -width;
  7142  0015BA  6DC7               	negf	_width& (0+255),b
  7143  0015BC  1FC8               	comf	(_width+1)& (0+255),f,b
  7144  0015BE  B0D8               	btfsc	status,0,c
  7145  0015C0  2BC8               	incf	(_width+1)& (0+255),f,b
  7146  0015C2  EF26  F00B         	goto	i2l2958
  7147  0015C6                     i2l2948:
  7148                           
  7149                           ; BSR set to: 0
  7150                           ;C:\Program Files\Microchip\xc8\v2.32\pic\sources\c99\common\doprnt.c: 753:             
      +                          width = atoi(*fmt);
  7151  0015C6  C045  FFD9         	movff	vfpfcnvrt@fmt,fsr2l
  7152  0015CA  C046  FFDA         	movff	vfpfcnvrt@fmt+1,fsr2h
  7153  0015CE  CFDE F008          	movff	postinc2,atoi@s
  7154  0015D2  CFDD F009          	movff	postdec2,atoi@s+1
  7155  0015D6  EC56  F011         	call	_atoi	;wreg free
  7156  0015DA  C008  F0C7         	movff	?_atoi,_width
  7157  0015DE  C009  F0C8         	movff	?_atoi+1,_width+1
  7158                           
  7159                           ;C:\Program Files\Microchip\xc8\v2.32\pic\sources\c99\common\doprnt.c: 754:             
      +                          while ((0 ? isdigit((*fmt)[0]) : ((unsigned)((*fmt)[0])-'0') < 10)) {
  7160  0015E2  EFFA  F00A         	goto	i2l2952
  7161  0015E6                     i2l2950:
  7162                           
  7163                           ;C:\Program Files\Microchip\xc8\v2.32\pic\sources\c99\common\doprnt.c: 755:             
      +                              ++*fmt;
  7164  0015E6  C045  FFD9         	movff	vfpfcnvrt@fmt,fsr2l
  7165  0015EA  C046  FFDA         	movff	vfpfcnvrt@fmt+1,fsr2h
  7166  0015EE  2ADE               	incf	postinc2,f,c
  7167  0015F0  0E00               	movlw	0
  7168  0015F2  22DD               	addwfc	postdec2,f,c
  7169  0015F4                     i2l2952:
  7170  0015F4  0ED0               	movlw	208
  7171  0015F6  6E49               	movwf	??_vfpfcnvrt^0,c
  7172  0015F8  0EFF               	movlw	255
  7173  0015FA  6E4A               	movwf	(??_vfpfcnvrt+1)^0,c
  7174  0015FC  C045  FFD9         	movff	vfpfcnvrt@fmt,fsr2l
  7175  001600  C046  FFDA         	movff	vfpfcnvrt@fmt+1,fsr2h
  7176  001604  CFDE FFF6          	movff	postinc2,tblptrl
  7177  001608  CFDD FFF7          	movff	postdec2,tblptrh
  7178  00160C                     	if	0	;tblptru may be non-zero
  7179  00160C                     	endif
  7180  00160C                     	if	0	;tblptru may be non-zero
  7181  00160C                     	endif
  7182  00160C  0008               	tblrd		*
  7183  00160E  50F5               	movf	tablat,w,c
  7184  001610  6E4B               	movwf	(??_vfpfcnvrt+2)^0,c
  7185  001612  6A4C               	clrf	(??_vfpfcnvrt+3)^0,c
  7186  001614  5049               	movf	??_vfpfcnvrt^0,w,c
  7187  001616  264B               	addwf	(??_vfpfcnvrt+2)^0,f,c
  7188  001618  504A               	movf	(??_vfpfcnvrt+1)^0,w,c
  7189  00161A  224C               	addwfc	(??_vfpfcnvrt+3)^0,f,c
  7190  00161C  504C               	movf	(??_vfpfcnvrt+3)^0,w,c
  7191  00161E  E10A               	bnz	i2u305_40
  7192  001620  0E0A               	movlw	10
  7193  001622  5C4B               	subwf	(??_vfpfcnvrt+2)^0,w,c
  7194  001624  A0D8               	btfss	status,0,c
  7195  001626  EF17  F00B         	goto	i2u305_41
  7196  00162A  EF1A  F00B         	goto	i2u305_40
  7197  00162E                     i2u305_41:
  7198  00162E  0E01               	movlw	1
  7199  001630  EF1B  F00B         	goto	i2u306_40
  7200  001634                     i2u305_40:
  7201  001634  0E00               	movlw	0
  7202  001636                     i2u306_40:
  7203  001636  6E4F               	movwf	_vfpfcnvrt$960^0,c
  7204  001638  6A50               	clrf	(_vfpfcnvrt$960+1)^0,c
  7205  00163A  504F               	movf	_vfpfcnvrt$960^0,w,c
  7206  00163C  1050               	iorwf	(_vfpfcnvrt$960+1)^0,w,c
  7207  00163E  A4D8               	btfss	status,2,c
  7208  001640  EF24  F00B         	goto	i2u307_41
  7209  001644  EF26  F00B         	goto	i2u307_40
  7210  001648                     i2u307_41:
  7211  001648  EFF3  F00A         	goto	i2l2950
  7212  00164C                     i2u307_40:
  7213  00164C                     i2l2958:
  7214                           
  7215                           ;C:\Program Files\Microchip\xc8\v2.32\pic\sources\c99\common\doprnt.c: 1204:         if 
      +                          (*fmt[0] == 'u') {
  7216  00164C  C045  FFD9         	movff	vfpfcnvrt@fmt,fsr2l
  7217  001650  C046  FFDA         	movff	vfpfcnvrt@fmt+1,fsr2h
  7218  001654  CFDE FFF6          	movff	postinc2,tblptrl
  7219  001658  CFDD FFF7          	movff	postdec2,tblptrh
  7220  00165C                     	if	0	;tblptru may be non-zero
  7221  00165C                     	endif
  7222  00165C                     	if	0	;tblptru may be non-zero
  7223  00165C                     	endif
  7224  00165C  0008               	tblrd		*
  7225  00165E  50F5               	movf	tablat,w,c
  7226  001660  0A75               	xorlw	117
  7227  001662  A4D8               	btfss	status,2,c
  7228  001664  EF36  F00B         	goto	i2u308_41
  7229  001668  EF38  F00B         	goto	i2u308_40
  7230  00166C                     i2u308_41:
  7231  00166C  EF79  F00B         	goto	i2l2966
  7232  001670                     i2u308_40:
  7233  001670                     
  7234                           ;C:\Program Files\Microchip\xc8\v2.32\pic\sources\c99\common\doprnt.c: 1206:            
      +                           ++*fmt;
  7235  001670  C045  FFD9         	movff	vfpfcnvrt@fmt,fsr2l
  7236  001674  C046  FFDA         	movff	vfpfcnvrt@fmt+1,fsr2h
  7237  001678  2ADE               	incf	postinc2,f,c
  7238  00167A  0E00               	movlw	0
  7239  00167C  22DD               	addwfc	postdec2,f,c
  7240                           
  7241                           ;C:\Program Files\Microchip\xc8\v2.32\pic\sources\c99\common\doprnt.c: 1207:            
      +                           llu = (unsigned long long)(*(unsigned int *)__va_arg(*(unsigned int **)ap, (unsigned in
      +                          t)0));
  7242  00167E  C047  FFD9         	movff	vfpfcnvrt@ap,fsr2l
  7243  001682  C048  FFDA         	movff	vfpfcnvrt@ap+1,fsr2h
  7244  001686  CFDF F049          	movff	indf2,??_vfpfcnvrt
  7245  00168A  0E02               	movlw	2
  7246  00168C  26DE               	addwf	postinc2,f,c
  7247  00168E  CFDF F04A          	movff	indf2,??_vfpfcnvrt+1
  7248  001692  0E00               	movlw	0
  7249  001694  22DD               	addwfc	postdec2,f,c
  7250  001696  C049  FFD9         	movff	??_vfpfcnvrt,fsr2l
  7251  00169A  C04A  FFDA         	movff	??_vfpfcnvrt+1,fsr2h
  7252  00169E  CFDE F04B          	movff	postinc2,??_vfpfcnvrt+2
  7253  0016A2  CFDD F04C          	movff	postdec2,??_vfpfcnvrt+3
  7254  0016A6  C04B  F052         	movff	??_vfpfcnvrt+2,vfpfcnvrt@llu
  7255  0016AA  C04C  F053         	movff	??_vfpfcnvrt+3,vfpfcnvrt@llu+1
  7256  0016AE  6A54               	clrf	(vfpfcnvrt@llu+2)^0,c
  7257  0016B0  6A55               	clrf	(vfpfcnvrt@llu+3)^0,c
  7258  0016B2  6A56               	clrf	(vfpfcnvrt@llu+4)^0,c
  7259  0016B4  6A57               	clrf	(vfpfcnvrt@llu+5)^0,c
  7260  0016B6  6A58               	clrf	(vfpfcnvrt@llu+6)^0,c
  7261  0016B8  6A59               	clrf	(vfpfcnvrt@llu+7)^0,c
  7262  0016BA                     
  7263                           ;C:\Program Files\Microchip\xc8\v2.32\pic\sources\c99\common\doprnt.c: 1209:            
      +                           return utoa(fp, llu);
  7264  0016BA  C043  F01C         	movff	vfpfcnvrt@fp,utoa@fp
  7265  0016BE  C044  F01D         	movff	vfpfcnvrt@fp+1,utoa@fp+1
  7266  0016C2  C052  F01E         	movff	vfpfcnvrt@llu,utoa@d
  7267  0016C6  C053  F01F         	movff	vfpfcnvrt@llu+1,utoa@d+1
  7268  0016CA  C054  F020         	movff	vfpfcnvrt@llu+2,utoa@d+2
  7269  0016CE  C055  F021         	movff	vfpfcnvrt@llu+3,utoa@d+3
  7270  0016D2  C056  F022         	movff	vfpfcnvrt@llu+4,utoa@d+4
  7271  0016D6  C057  F023         	movff	vfpfcnvrt@llu+5,utoa@d+5
  7272  0016DA  C058  F024         	movff	vfpfcnvrt@llu+6,utoa@d+6
  7273  0016DE  C059  F025         	movff	vfpfcnvrt@llu+7,utoa@d+7
  7274  0016E2  EC78  F00F         	call	_utoa	;wreg free
  7275  0016E6  C01C  F043         	movff	?_utoa,?_vfpfcnvrt
  7276  0016EA  C01D  F044         	movff	?_utoa+1,?_vfpfcnvrt+1
  7277  0016EE  EF3C  F00C         	goto	i2l1095
  7278  0016F2                     i2l2966:
  7279                           
  7280                           ;C:\Program Files\Microchip\xc8\v2.32\pic\sources\c99\common\doprnt.c: 1296:         if 
      +                          ((*fmt[0] == 'x') || (*fmt[0] == 'X')) {
  7281  0016F2  C045  FFD9         	movff	vfpfcnvrt@fmt,fsr2l
  7282  0016F6  C046  FFDA         	movff	vfpfcnvrt@fmt+1,fsr2h
  7283  0016FA  CFDE FFF6          	movff	postinc2,tblptrl
  7284  0016FE  CFDD FFF7          	movff	postdec2,tblptrh
  7285  001702                     	if	0	;tblptru may be non-zero
  7286  001702                     	endif
  7287  001702                     	if	0	;tblptru may be non-zero
  7288  001702                     	endif
  7289  001702  0008               	tblrd		*
  7290  001704  50F5               	movf	tablat,w,c
  7291  001706  0A78               	xorlw	120
  7292  001708  B4D8               	btfsc	status,2,c
  7293  00170A  EF89  F00B         	goto	i2u309_41
  7294  00170E  EF8B  F00B         	goto	i2u309_40
  7295  001712                     i2u309_41:
  7296  001712  EF9D  F00B         	goto	i2l2970
  7297  001716                     i2u309_40:
  7298  001716  C045  FFD9         	movff	vfpfcnvrt@fmt,fsr2l
  7299  00171A  C046  FFDA         	movff	vfpfcnvrt@fmt+1,fsr2h
  7300  00171E  CFDE FFF6          	movff	postinc2,tblptrl
  7301  001722  CFDD FFF7          	movff	postdec2,tblptrh
  7302  001726                     	if	0	;tblptru may be non-zero
  7303  001726                     	endif
  7304  001726                     	if	0	;tblptru may be non-zero
  7305  001726                     	endif
  7306  001726  0008               	tblrd		*
  7307  001728  50F5               	movf	tablat,w,c
  7308  00172A  0A58               	xorlw	88
  7309  00172C  A4D8               	btfss	status,2,c
  7310  00172E  EF9B  F00B         	goto	i2u310_41
  7311  001732  EF9D  F00B         	goto	i2u310_40
  7312  001736                     i2u310_41:
  7313  001736  EFEB  F00B         	goto	i2l2980
  7314  00173A                     i2u310_40:
  7315  00173A                     i2l2970:
  7316                           
  7317                           ;C:\Program Files\Microchip\xc8\v2.32\pic\sources\c99\common\doprnt.c: 1298:            
      +                           c = (*fmt)[0];
  7318  00173A  C045  FFD9         	movff	vfpfcnvrt@fmt,fsr2l
  7319  00173E  C046  FFDA         	movff	vfpfcnvrt@fmt+1,fsr2h
  7320  001742  CFDE FFF6          	movff	postinc2,tblptrl
  7321  001746  CFDD FFF7          	movff	postdec2,tblptrh
  7322  00174A                     	if	0	;tblptru may be non-zero
  7323  00174A                     	endif
  7324  00174A                     	if	0	;tblptru may be non-zero
  7325  00174A                     	endif
  7326  00174A  0008               	tblrd		*
  7327  00174C  CFF5 F051          	movff	tablat,vfpfcnvrt@c
  7328  001750                     
  7329                           ;C:\Program Files\Microchip\xc8\v2.32\pic\sources\c99\common\doprnt.c: 1299:            
      +                           ++*fmt;
  7330  001750  C045  FFD9         	movff	vfpfcnvrt@fmt,fsr2l
  7331  001754  C046  FFDA         	movff	vfpfcnvrt@fmt+1,fsr2h
  7332  001758  2ADE               	incf	postinc2,f,c
  7333  00175A  0E00               	movlw	0
  7334  00175C  22DD               	addwfc	postdec2,f,c
  7335  00175E                     
  7336                           ;C:\Program Files\Microchip\xc8\v2.32\pic\sources\c99\common\doprnt.c: 1300:            
      +                           llu = (unsigned long long)(*(unsigned int *)__va_arg(*(unsigned int **)ap, (unsigned in
      +                          t)0));
  7337  00175E  C047  FFD9         	movff	vfpfcnvrt@ap,fsr2l
  7338  001762  C048  FFDA         	movff	vfpfcnvrt@ap+1,fsr2h
  7339  001766  CFDF F049          	movff	indf2,??_vfpfcnvrt
  7340  00176A  0E02               	movlw	2
  7341  00176C  26DE               	addwf	postinc2,f,c
  7342  00176E  CFDF F04A          	movff	indf2,??_vfpfcnvrt+1
  7343  001772  0E00               	movlw	0
  7344  001774  22DD               	addwfc	postdec2,f,c
  7345  001776  C049  FFD9         	movff	??_vfpfcnvrt,fsr2l
  7346  00177A  C04A  FFDA         	movff	??_vfpfcnvrt+1,fsr2h
  7347  00177E  CFDE F04B          	movff	postinc2,??_vfpfcnvrt+2
  7348  001782  CFDD F04C          	movff	postdec2,??_vfpfcnvrt+3
  7349  001786  C04B  F052         	movff	??_vfpfcnvrt+2,vfpfcnvrt@llu
  7350  00178A  C04C  F053         	movff	??_vfpfcnvrt+3,vfpfcnvrt@llu+1
  7351  00178E  6A54               	clrf	(vfpfcnvrt@llu+2)^0,c
  7352  001790  6A55               	clrf	(vfpfcnvrt@llu+3)^0,c
  7353  001792  6A56               	clrf	(vfpfcnvrt@llu+4)^0,c
  7354  001794  6A57               	clrf	(vfpfcnvrt@llu+5)^0,c
  7355  001796  6A58               	clrf	(vfpfcnvrt@llu+6)^0,c
  7356  001798  6A59               	clrf	(vfpfcnvrt@llu+7)^0,c
  7357  00179A                     
  7358                           ;C:\Program Files\Microchip\xc8\v2.32\pic\sources\c99\common\doprnt.c: 1302:            
      +                           return xtoa(fp, llu, c);
  7359  00179A  C043  F01C         	movff	vfpfcnvrt@fp,xtoa@fp
  7360  00179E  C044  F01D         	movff	vfpfcnvrt@fp+1,xtoa@fp+1
  7361  0017A2  C052  F01E         	movff	vfpfcnvrt@llu,xtoa@d
  7362  0017A6  C053  F01F         	movff	vfpfcnvrt@llu+1,xtoa@d+1
  7363  0017AA  C054  F020         	movff	vfpfcnvrt@llu+2,xtoa@d+2
  7364  0017AE  C055  F021         	movff	vfpfcnvrt@llu+3,xtoa@d+3
  7365  0017B2  C056  F022         	movff	vfpfcnvrt@llu+4,xtoa@d+4
  7366  0017B6  C057  F023         	movff	vfpfcnvrt@llu+5,xtoa@d+5
  7367  0017BA  C058  F024         	movff	vfpfcnvrt@llu+6,xtoa@d+6
  7368  0017BE  C059  F025         	movff	vfpfcnvrt@llu+7,xtoa@d+7
  7369  0017C2  C051  F026         	movff	vfpfcnvrt@c,xtoa@x
  7370  0017C6  EC0B  F00E         	call	_xtoa	;wreg free
  7371  0017CA  C01C  F043         	movff	?_xtoa,?_vfpfcnvrt
  7372  0017CE  C01D  F044         	movff	?_xtoa+1,?_vfpfcnvrt+1
  7373  0017D2  EF3C  F00C         	goto	i2l1095
  7374  0017D6                     i2l2980:
  7375                           
  7376                           ;C:\Program Files\Microchip\xc8\v2.32\pic\sources\c99\common\doprnt.c: 1372:         if 
      +                          ((*fmt)[0] == '%') {
  7377  0017D6  C045  FFD9         	movff	vfpfcnvrt@fmt,fsr2l
  7378  0017DA  C046  FFDA         	movff	vfpfcnvrt@fmt+1,fsr2h
  7379  0017DE  CFDE FFF6          	movff	postinc2,tblptrl
  7380  0017E2  CFDD FFF7          	movff	postdec2,tblptrh
  7381  0017E6                     	if	0	;tblptru may be non-zero
  7382  0017E6                     	endif
  7383  0017E6                     	if	0	;tblptru may be non-zero
  7384  0017E6                     	endif
  7385  0017E6  0008               	tblrd		*
  7386  0017E8  50F5               	movf	tablat,w,c
  7387  0017EA  0A25               	xorlw	37
  7388  0017EC  A4D8               	btfss	status,2,c
  7389  0017EE  EFFB  F00B         	goto	i2u311_41
  7390  0017F2  EFFD  F00B         	goto	i2u311_40
  7391  0017F6                     i2u311_41:
  7392  0017F6  EF14  F00C         	goto	i2l2990
  7393  0017FA                     i2u311_40:
  7394  0017FA                     
  7395                           ;C:\Program Files\Microchip\xc8\v2.32\pic\sources\c99\common\doprnt.c: 1373:            
      +                           ++*fmt;
  7396  0017FA  C045  FFD9         	movff	vfpfcnvrt@fmt,fsr2l
  7397  0017FE  C046  FFDA         	movff	vfpfcnvrt@fmt+1,fsr2h
  7398  001802  2ADE               	incf	postinc2,f,c
  7399  001804  0E00               	movlw	0
  7400  001806  22DD               	addwfc	postdec2,f,c
  7401  001808                     
  7402                           ;C:\Program Files\Microchip\xc8\v2.32\pic\sources\c99\common\doprnt.c: 1374:            
      +                           fputc((int)'%', fp);
  7403  001808  0E00               	movlw	0
  7404  00180A  6E02               	movwf	(fputc@c+1)^0,c
  7405  00180C  0E25               	movlw	37
  7406  00180E  6E01               	movwf	fputc@c^0,c
  7407  001810  C043  F003         	movff	vfpfcnvrt@fp,fputc@fp
  7408  001814  C044  F004         	movff	vfpfcnvrt@fp+1,fputc@fp+1
  7409  001818  ECEA  F013         	call	_fputc	;wreg free
  7410  00181C                     i2l2986:
  7411                           
  7412                           ;C:\Program Files\Microchip\xc8\v2.32\pic\sources\c99\common\doprnt.c: 1375:            
      +                           return 1;
  7413  00181C  0E00               	movlw	0
  7414  00181E  6E44               	movwf	(?_vfpfcnvrt+1)^0,c
  7415  001820  0E01               	movlw	1
  7416  001822  6E43               	movwf	?_vfpfcnvrt^0,c
  7417  001824  EF3C  F00C         	goto	i2l1095
  7418  001828                     i2l2990:
  7419                           
  7420                           ;C:\Program Files\Microchip\xc8\v2.32\pic\sources\c99\common\doprnt.c: 1379:         ++*
      +                          fmt;
  7421  001828  C045  FFD9         	movff	vfpfcnvrt@fmt,fsr2l
  7422  00182C  C046  FFDA         	movff	vfpfcnvrt@fmt+1,fsr2h
  7423  001830  2ADE               	incf	postinc2,f,c
  7424  001832  0E00               	movlw	0
  7425  001834  22DD               	addwfc	postdec2,f,c
  7426  001836                     
  7427                           ;C:\Program Files\Microchip\xc8\v2.32\pic\sources\c99\common\doprnt.c: 1380:         ret
      +                          urn 0;
  7428  001836  0E00               	movlw	0
  7429  001838  6E44               	movwf	(?_vfpfcnvrt+1)^0,c
  7430  00183A  0E00               	movlw	0
  7431  00183C  6E43               	movwf	?_vfpfcnvrt^0,c
  7432  00183E  EF3C  F00C         	goto	i2l1095
  7433  001842                     i2l2996:
  7434                           
  7435                           ;C:\Program Files\Microchip\xc8\v2.32\pic\sources\c99\common\doprnt.c: 1384:     fputc((
      +                          int)(*fmt)[0], fp);
  7436  001842  C045  FFD9         	movff	vfpfcnvrt@fmt,fsr2l
  7437  001846  C046  FFDA         	movff	vfpfcnvrt@fmt+1,fsr2h
  7438  00184A  CFDE FFF6          	movff	postinc2,tblptrl
  7439  00184E  CFDD FFF7          	movff	postdec2,tblptrh
  7440  001852                     	if	0	;tblptru may be non-zero
  7441  001852                     	endif
  7442  001852                     	if	0	;tblptru may be non-zero
  7443  001852                     	endif
  7444  001852  0008               	tblrd		*
  7445  001854  50F5               	movf	tablat,w,c
  7446  001856  6E01               	movwf	fputc@c^0,c
  7447  001858  6A02               	clrf	(fputc@c+1)^0,c
  7448  00185A  C043  F003         	movff	vfpfcnvrt@fp,fputc@fp
  7449  00185E  C044  F004         	movff	vfpfcnvrt@fp+1,fputc@fp+1
  7450  001862  ECEA  F013         	call	_fputc	;wreg free
  7451  001866                     
  7452                           ;C:\Program Files\Microchip\xc8\v2.32\pic\sources\c99\common\doprnt.c: 1385:     ++*fmt;
  7453  001866  C045  FFD9         	movff	vfpfcnvrt@fmt,fsr2l
  7454  00186A  C046  FFDA         	movff	vfpfcnvrt@fmt+1,fsr2h
  7455  00186E  2ADE               	incf	postinc2,f,c
  7456  001870  0E00               	movlw	0
  7457  001872  22DD               	addwfc	postdec2,f,c
  7458  001874  EF0E  F00C         	goto	i2l2986
  7459  001878                     i2l1095:
  7460  001878  0012               	return		;funcret
  7461  00187A                     __end_of_vfpfcnvrt:
  7462                           	callstack 0
  7463                           
  7464 ;; *************** function _xtoa *****************
  7465 ;; Defined at:
  7466 ;;		line 645 in file "C:\Program Files\Microchip\xc8\v2.32\pic\sources\c99\common\doprnt.c"
  7467 ;; Parameters:    Size  Location     Type
  7468 ;;  fp              2   27[COMRAM] PTR struct _IO_FILE
  7469 ;;		 -> sprintf@f(6), 
  7470 ;;  d               8   29[COMRAM] unsigned long long 
  7471 ;;  x               1   37[COMRAM] unsigned char 
  7472 ;; Auto vars:     Size  Location     Type
  7473 ;;  n               8   54[COMRAM] unsigned long long 
  7474 ;;  c               2   64[COMRAM] int 
  7475 ;;  i               2   62[COMRAM] int 
  7476 ;;  w               2   52[COMRAM] int 
  7477 ;;  p               2   50[COMRAM] int 
  7478 ;; Return value:  Size  Location     Type
  7479 ;;                  2   27[COMRAM] int 
  7480 ;; Registers used:
  7481 ;;		wreg, fsr1l, fsr1h, fsr2l, fsr2h, status,2, status,0, cstack
  7482 ;; Tracked objects:
  7483 ;;		On entry : 0/0
  7484 ;;		On exit  : 0/0
  7485 ;;		Unchanged: 0/0
  7486 ;; Data sizes:     COMRAM   BANK0   BANK1   BANK2   BANK3   BANK4   BANK5
  7487 ;;      Params:        11       0       0       0       0       0       0
  7488 ;;      Locals:        20       0       0       0       0       0       0
  7489 ;;      Temps:          8       0       0       0       0       0       0
  7490 ;;      Totals:        39       0       0       0       0       0       0
  7491 ;;Total ram usage:       39 bytes
  7492 ;; Hardware stack levels used: 1
  7493 ;; Hardware stack levels required when called: 4
  7494 ;; This function calls:
  7495 ;;		_isalpha
  7496 ;;		_isupper
  7497 ;;		_pad
  7498 ;;		_toupper
  7499 ;; This function is called by:
  7500 ;;		_vfpfcnvrt
  7501 ;; This function uses a non-reentrant model
  7502 ;;
  7503                           
  7504                           	psect	text12
  7505  001C16                     __ptext12:
  7506                           	callstack 0
  7507  001C16                     _xtoa:
  7508                           	callstack 20
  7509  001C16                     
  7510                           ;C:\Program Files\Microchip\xc8\v2.32\pic\sources\c99\common\doprnt.c: 645: static int x
      +                          toa(FILE *fp, unsigned long long d, char x);C:\Program Files\Microchip\xc8\v2.32\pic\sou
      +                          rces\c99\common\doprnt.c: 646: {;C:\Program Files\Microchip\xc8\v2.32\pic\sources\c99\co
      +                          mmon\doprnt.c: 647:     int c, i, p, w;;C:\Program Files\Microchip\xc8\v2.32\pic\sources
      +                          \c99\common\doprnt.c: 648:     unsigned long long n;;C:\Program Files\Microchip\xc8\v2.3
      +                          2\pic\sources\c99\common\doprnt.c: 651:     if (!(prec < 0)) {
  7511  001C16  0100               	movlb	0	; () banked
  7512  001C18  BFCA               	btfsc	(_prec+1)& (0+255),7,b
  7513  001C1A  EF11  F00E         	goto	i2u276_41
  7514  001C1E  EF13  F00E         	goto	i2u276_40
  7515  001C22                     i2u276_41:
  7516  001C22  EF14  F00E         	goto	i2l2796
  7517  001C26                     i2u276_40:
  7518  001C26                     
  7519                           ; BSR set to: 0
  7520                           ;C:\Program Files\Microchip\xc8\v2.32\pic\sources\c99\common\doprnt.c: 652:         flag
      +                          s &= ~(1 << 1);
  7521  001C26  93CB               	bcf	_flags& (0+255),1,b
  7522  001C28                     i2l2796:
  7523                           
  7524                           ; BSR set to: 0
  7525                           ;C:\Program Files\Microchip\xc8\v2.32\pic\sources\c99\common\doprnt.c: 654:     p = (0 <
      +                           prec) ? prec : 1;
  7526  001C28  BFCA               	btfsc	(_prec+1)& (0+255),7,b
  7527  001C2A  EF21  F00E         	goto	i2u277_40
  7528  001C2E  51CA               	movf	(_prec+1)& (0+255),w,b
  7529  001C30  E106               	bnz	i2u277_41
  7530  001C32  05C9               	decf	_prec& (0+255),w,b
  7531  001C34  B0D8               	btfsc	status,0,c
  7532  001C36  EF1F  F00E         	goto	i2u277_41
  7533  001C3A  EF21  F00E         	goto	i2u277_40
  7534  001C3E                     i2u277_41:
  7535  001C3E  EF27  F00E         	goto	i2l1043
  7536  001C42                     i2u277_40:
  7537  001C42                     
  7538                           ; BSR set to: 0
  7539  001C42  0E00               	movlw	0
  7540  001C44  6E34               	movwf	(xtoa@p+1)^0,c
  7541  001C46  0E01               	movlw	1
  7542  001C48  6E33               	movwf	xtoa@p^0,c
  7543  001C4A  EF2B  F00E         	goto	i2l1045
  7544  001C4E                     i2l1043:
  7545                           
  7546                           ; BSR set to: 0
  7547  001C4E  C0C9  F033         	movff	_prec,xtoa@p
  7548  001C52  C0CA  F034         	movff	_prec+1,xtoa@p+1
  7549  001C56                     i2l1045:
  7550                           
  7551                           ; BSR set to: 0
  7552                           ;C:\Program Files\Microchip\xc8\v2.32\pic\sources\c99\common\doprnt.c: 655:     w = widt
      +                          h;
  7553  001C56  C0C7  F035         	movff	_width,xtoa@w
  7554  001C5A  C0C8  F036         	movff	_width+1,xtoa@w+1
  7555                           
  7556                           ;C:\Program Files\Microchip\xc8\v2.32\pic\sources\c99\common\doprnt.c: 656:     if (flag
      +                          s & (1 << 4)) {
  7557  001C5E  A9CB               	btfss	_flags& (0+255),4,b
  7558  001C60  EF34  F00E         	goto	i2u278_41
  7559  001C64  EF36  F00E         	goto	i2u278_40
  7560  001C68                     i2u278_41:
  7561  001C68  EF3A  F00E         	goto	i2l2802
  7562  001C6C                     i2u278_40:
  7563  001C6C                     
  7564                           ; BSR set to: 0
  7565                           ;C:\Program Files\Microchip\xc8\v2.32\pic\sources\c99\common\doprnt.c: 657:         w -=
      +                           2;
  7566  001C6C  0EFE               	movlw	254
  7567  001C6E  2635               	addwf	xtoa@w^0,f,c
  7568  001C70  0EFF               	movlw	255
  7569  001C72  2236               	addwfc	(xtoa@w+1)^0,f,c
  7570  001C74                     i2l2802:
  7571                           
  7572                           ; BSR set to: 0
  7573                           ;C:\Program Files\Microchip\xc8\v2.32\pic\sources\c99\common\doprnt.c: 661:     n = d;
  7574  001C74  C01E  F037         	movff	xtoa@d,xtoa@n
  7575  001C78  C01F  F038         	movff	xtoa@d+1,xtoa@n+1
  7576  001C7C  C020  F039         	movff	xtoa@d+2,xtoa@n+2
  7577  001C80  C021  F03A         	movff	xtoa@d+3,xtoa@n+3
  7578  001C84  C022  F03B         	movff	xtoa@d+4,xtoa@n+4
  7579  001C88  C023  F03C         	movff	xtoa@d+5,xtoa@n+5
  7580  001C8C  C024  F03D         	movff	xtoa@d+6,xtoa@n+6
  7581  001C90  C025  F03E         	movff	xtoa@d+7,xtoa@n+7
  7582  001C94                     
  7583                           ; BSR set to: 0
  7584                           ;C:\Program Files\Microchip\xc8\v2.32\pic\sources\c99\common\doprnt.c: 662:     i = size
      +                          of(dbuf) - 1;
  7585  001C94  0E00               	movlw	0
  7586  001C96  6E40               	movwf	(xtoa@i+1)^0,c
  7587  001C98  0E1F               	movlw	31
  7588  001C9A  6E3F               	movwf	xtoa@i^0,c
  7589  001C9C                     
  7590                           ; BSR set to: 0
  7591                           ;C:\Program Files\Microchip\xc8\v2.32\pic\sources\c99\common\doprnt.c: 663:     dbuf[i] 
      +                          = '\0';
  7592  001C9C  0E00               	movlw	0
  7593  001C9E  0101               	movlb	1	; () banked
  7594  001CA0  6FEE               	movwf	(_dbuf+31)& (0+255),b
  7595                           
  7596                           ;C:\Program Files\Microchip\xc8\v2.32\pic\sources\c99\common\doprnt.c: 664:     while (!
      +                          (i < 2) && (n || (0 < p) || ((0 < w) && (flags & (1 << 1))))) {
  7597  001CA2  EF06  F00F         	goto	i2l2838
  7598  001CA6                     i2l2808:
  7599                           
  7600                           ;C:\Program Files\Microchip\xc8\v2.32\pic\sources\c99\common\doprnt.c: 665:         --i;
  7601  001CA6  063F               	decf	xtoa@i^0,f,c
  7602  001CA8  A0D8               	btfss	status,0,c
  7603  001CAA  0640               	decf	(xtoa@i+1)^0,f,c
  7604  001CAC                     
  7605                           ;C:\Program Files\Microchip\xc8\v2.32\pic\sources\c99\common\doprnt.c: 666:         c = 
      +                          n & 0x0f;
  7606  001CAC  0E0F               	movlw	15
  7607  001CAE  1437               	andwf	xtoa@n^0,w,c
  7608  001CB0  6E41               	movwf	xtoa@c^0,c
  7609  001CB2  6A42               	clrf	(xtoa@c+1)^0,c
  7610  001CB4                     
  7611                           ;C:\Program Files\Microchip\xc8\v2.32\pic\sources\c99\common\doprnt.c: 667:         c = 
      +                          (c < 10) ? (int)'0' + c : (int)'a' + (c - 10);
  7612  001CB4  BE42               	btfsc	(xtoa@c+1)^0,7,c
  7613  001CB6  EF66  F00E         	goto	i2u279_41
  7614  001CBA  5042               	movf	(xtoa@c+1)^0,w,c
  7615  001CBC  E109               	bnz	i2u279_40
  7616  001CBE  0E0A               	movlw	10
  7617  001CC0  5C41               	subwf	xtoa@c^0,w,c
  7618  001CC2  A0D8               	btfss	status,0,c
  7619  001CC4  EF66  F00E         	goto	i2u279_41
  7620  001CC8  EF68  F00E         	goto	i2u279_40
  7621  001CCC                     i2u279_41:
  7622  001CCC  EF70  F00E         	goto	i2l2816
  7623  001CD0                     i2u279_40:
  7624  001CD0  0E57               	movlw	87
  7625  001CD2  2441               	addwf	xtoa@c^0,w,c
  7626  001CD4  6E41               	movwf	xtoa@c^0,c
  7627  001CD6  0E00               	movlw	0
  7628  001CD8  2042               	addwfc	(xtoa@c+1)^0,w,c
  7629  001CDA  6E42               	movwf	(xtoa@c+1)^0,c
  7630  001CDC  EF76  F00E         	goto	i2l1052
  7631  001CE0                     i2l2816:
  7632  001CE0  0E30               	movlw	48
  7633  001CE2  2441               	addwf	xtoa@c^0,w,c
  7634  001CE4  6E41               	movwf	xtoa@c^0,c
  7635  001CE6  0E00               	movlw	0
  7636  001CE8  2042               	addwfc	(xtoa@c+1)^0,w,c
  7637  001CEA  6E42               	movwf	(xtoa@c+1)^0,c
  7638  001CEC                     i2l1052:
  7639  001CEC  0EBF               	movlw	191
  7640  001CEE  6E27               	movwf	??_xtoa^0,c
  7641  001CF0  0EFF               	movlw	255
  7642  001CF2  6E28               	movwf	(??_xtoa+1)^0,c
  7643  001CF4  5026               	movf	xtoa@x^0,w,c
  7644  001CF6  6E29               	movwf	(??_xtoa+2)^0,c
  7645  001CF8  6A2A               	clrf	(??_xtoa+3)^0,c
  7646  001CFA  5027               	movf	??_xtoa^0,w,c
  7647  001CFC  2629               	addwf	(??_xtoa+2)^0,f,c
  7648  001CFE  5028               	movf	(??_xtoa+1)^0,w,c
  7649  001D00  222A               	addwfc	(??_xtoa+3)^0,f,c
  7650  001D02  502A               	movf	(??_xtoa+3)^0,w,c
  7651  001D04  E10A               	bnz	i2u280_40
  7652  001D06  0E1A               	movlw	26
  7653  001D08  5C29               	subwf	(??_xtoa+2)^0,w,c
  7654  001D0A  A0D8               	btfss	status,0,c
  7655  001D0C  EF8A  F00E         	goto	i2u280_41
  7656  001D10  EF8D  F00E         	goto	i2u280_40
  7657  001D14                     i2u280_41:
  7658  001D14  0E01               	movlw	1
  7659  001D16  EF8E  F00E         	goto	i2u281_40
  7660  001D1A                     i2u280_40:
  7661  001D1A  0E00               	movlw	0
  7662  001D1C                     i2u281_40:
  7663  001D1C  6E2F               	movwf	_xtoa$945^0,c
  7664  001D1E  6A30               	clrf	(_xtoa$945+1)^0,c
  7665  001D20  502F               	movf	_xtoa$945^0,w,c
  7666  001D22  1030               	iorwf	(_xtoa$945+1)^0,w,c
  7667  001D24  B4D8               	btfsc	status,2,c
  7668  001D26  EF97  F00E         	goto	i2u282_41
  7669  001D2A  EF99  F00E         	goto	i2u282_40
  7670  001D2E                     i2u282_41:
  7671  001D2E  EFC9  F00E         	goto	i2l2830
  7672  001D32                     i2u282_40:
  7673  001D32  0E9F               	movlw	159
  7674  001D34  6E27               	movwf	??_xtoa^0,c
  7675  001D36  0EFF               	movlw	255
  7676  001D38  6E28               	movwf	(??_xtoa+1)^0,c
  7677  001D3A  0E20               	movlw	32
  7678  001D3C  1041               	iorwf	xtoa@c^0,w,c
  7679  001D3E  6E29               	movwf	(??_xtoa+2)^0,c
  7680  001D40  0E00               	movlw	0
  7681  001D42  1042               	iorwf	(xtoa@c+1)^0,w,c
  7682  001D44  6E2A               	movwf	(??_xtoa+3)^0,c
  7683  001D46  5027               	movf	??_xtoa^0,w,c
  7684  001D48  2629               	addwf	(??_xtoa+2)^0,f,c
  7685  001D4A  5028               	movf	(??_xtoa+1)^0,w,c
  7686  001D4C  222A               	addwfc	(??_xtoa+3)^0,f,c
  7687  001D4E  502A               	movf	(??_xtoa+3)^0,w,c
  7688  001D50  E10A               	bnz	i2u283_40
  7689  001D52  0E1A               	movlw	26
  7690  001D54  5C29               	subwf	(??_xtoa+2)^0,w,c
  7691  001D56  A0D8               	btfss	status,0,c
  7692  001D58  EFB0  F00E         	goto	i2u283_41
  7693  001D5C  EFB3  F00E         	goto	i2u283_40
  7694  001D60                     i2u283_41:
  7695  001D60  0E01               	movlw	1
  7696  001D62  EFB4  F00E         	goto	i2u284_40
  7697  001D66                     i2u283_40:
  7698  001D66  0E00               	movlw	0
  7699  001D68                     i2u284_40:
  7700  001D68  6E31               	movwf	_xtoa$946^0,c
  7701  001D6A  6A32               	clrf	(_xtoa$946+1)^0,c
  7702  001D6C  5031               	movf	_xtoa$946^0,w,c
  7703  001D6E  1032               	iorwf	(_xtoa$946+1)^0,w,c
  7704  001D70  B4D8               	btfsc	status,2,c
  7705  001D72  EFBD  F00E         	goto	i2u285_41
  7706  001D76  EFBF  F00E         	goto	i2u285_40
  7707  001D7A                     i2u285_41:
  7708  001D7A  EFC9  F00E         	goto	i2l2830
  7709  001D7E                     i2u285_40:
  7710  001D7E                     
  7711                           ;C:\Program Files\Microchip\xc8\v2.32\pic\sources\c99\common\doprnt.c: 669:             
      +                          c = toupper(c);
  7712  001D7E  C041  F007         	movff	xtoa@c,toupper@c
  7713  001D82  C042  F008         	movff	xtoa@c+1,toupper@c+1
  7714  001D86  EC45  F016         	call	_toupper	;wreg free
  7715  001D8A  C007  F041         	movff	?_toupper,xtoa@c
  7716  001D8E  C008  F042         	movff	?_toupper+1,xtoa@c+1
  7717  001D92                     i2l2830:
  7718                           
  7719                           ;C:\Program Files\Microchip\xc8\v2.32\pic\sources\c99\common\doprnt.c: 671:         dbuf
      +                          [i] = (char)c;
  7720  001D92  0ECF               	movlw	low _dbuf
  7721  001D94  243F               	addwf	xtoa@i^0,w,c
  7722  001D96  6ED9               	movwf	fsr2l,c
  7723  001D98  0E01               	movlw	high _dbuf
  7724  001D9A  2040               	addwfc	(xtoa@i+1)^0,w,c
  7725  001D9C  6EDA               	movwf	fsr2h,c
  7726  001D9E  C041  FFDF         	movff	xtoa@c,indf2
  7727  001DA2                     
  7728                           ;C:\Program Files\Microchip\xc8\v2.32\pic\sources\c99\common\doprnt.c: 672:         --p;
  7729  001DA2  0633               	decf	xtoa@p^0,f,c
  7730  001DA4  A0D8               	btfss	status,0,c
  7731  001DA6  0634               	decf	(xtoa@p+1)^0,f,c
  7732  001DA8                     
  7733                           ;C:\Program Files\Microchip\xc8\v2.32\pic\sources\c99\common\doprnt.c: 673:         --w;
  7734  001DA8  0635               	decf	xtoa@w^0,f,c
  7735  001DAA  A0D8               	btfss	status,0,c
  7736  001DAC  0636               	decf	(xtoa@w+1)^0,f,c
  7737  001DAE                     
  7738                           ;C:\Program Files\Microchip\xc8\v2.32\pic\sources\c99\common\doprnt.c: 674:         n = 
      +                          n >> 4;
  7739  001DAE  C037  F027         	movff	xtoa@n,??_xtoa
  7740  001DB2  C038  F028         	movff	xtoa@n+1,??_xtoa+1
  7741  001DB6  C039  F029         	movff	xtoa@n+2,??_xtoa+2
  7742  001DBA  C03A  F02A         	movff	xtoa@n+3,??_xtoa+3
  7743  001DBE  C03B  F02B         	movff	xtoa@n+4,??_xtoa+4
  7744  001DC2  C03C  F02C         	movff	xtoa@n+5,??_xtoa+5
  7745  001DC6  C03D  F02D         	movff	xtoa@n+6,??_xtoa+6
  7746  001DCA  C03E  F02E         	movff	xtoa@n+7,??_xtoa+7
  7747  001DCE  0E05               	movlw	5
  7748  001DD0  EFF3  F00E         	goto	i2u286_40
  7749  001DD4                     i2u286_45:
  7750  001DD4  90D8               	bcf	status,0,c
  7751  001DD6  322E               	rrcf	(??_xtoa+7)^0,f,c
  7752  001DD8  322D               	rrcf	(??_xtoa+6)^0,f,c
  7753  001DDA  322C               	rrcf	(??_xtoa+5)^0,f,c
  7754  001DDC  322B               	rrcf	(??_xtoa+4)^0,f,c
  7755  001DDE  322A               	rrcf	(??_xtoa+3)^0,f,c
  7756  001DE0  3229               	rrcf	(??_xtoa+2)^0,f,c
  7757  001DE2  3228               	rrcf	(??_xtoa+1)^0,f,c
  7758  001DE4  3227               	rrcf	??_xtoa^0,f,c
  7759  001DE6                     i2u286_40:
  7760  001DE6  2EE8               	decfsz	wreg,f,c
  7761  001DE8  EFEA  F00E         	goto	i2u286_45
  7762  001DEC  C027  F037         	movff	??_xtoa,xtoa@n
  7763  001DF0  C028  F038         	movff	??_xtoa+1,xtoa@n+1
  7764  001DF4  C029  F039         	movff	??_xtoa+2,xtoa@n+2
  7765  001DF8  C02A  F03A         	movff	??_xtoa+3,xtoa@n+3
  7766  001DFC  C02B  F03B         	movff	??_xtoa+4,xtoa@n+4
  7767  001E00  C02C  F03C         	movff	??_xtoa+5,xtoa@n+5
  7768  001E04  C02D  F03D         	movff	??_xtoa+6,xtoa@n+6
  7769  001E08  C02E  F03E         	movff	??_xtoa+7,xtoa@n+7
  7770  001E0C                     i2l2838:
  7771                           
  7772                           ;C:\Program Files\Microchip\xc8\v2.32\pic\sources\c99\common\doprnt.c: 664:     while (!
      +                          (i < 2) && (n || (0 < p) || ((0 < w) && (flags & (1 << 1))))) {
  7773  001E0C  BE40               	btfsc	(xtoa@i+1)^0,7,c
  7774  001E0E  EF12  F00F         	goto	i2u287_41
  7775  001E12  5040               	movf	(xtoa@i+1)^0,w,c
  7776  001E14  E109               	bnz	i2u287_40
  7777  001E16  0E02               	movlw	2
  7778  001E18  5C3F               	subwf	xtoa@i^0,w,c
  7779  001E1A  A0D8               	btfss	status,0,c
  7780  001E1C  EF12  F00F         	goto	i2u287_41
  7781  001E20  EF14  F00F         	goto	i2u287_40
  7782  001E24                     i2u287_41:
  7783  001E24  EF45  F00F         	goto	i2l1066
  7784  001E28                     i2u287_40:
  7785  001E28  5037               	movf	xtoa@n^0,w,c
  7786  001E2A  1038               	iorwf	(xtoa@n+1)^0,w,c
  7787  001E2C  1039               	iorwf	(xtoa@n+2)^0,w,c
  7788  001E2E  103A               	iorwf	(xtoa@n+3)^0,w,c
  7789  001E30  103B               	iorwf	(xtoa@n+4)^0,w,c
  7790  001E32  103C               	iorwf	(xtoa@n+5)^0,w,c
  7791  001E34  103D               	iorwf	(xtoa@n+6)^0,w,c
  7792  001E36  103E               	iorwf	(xtoa@n+7)^0,w,c
  7793  001E38  A4D8               	btfss	status,2,c
  7794  001E3A  EF21  F00F         	goto	i2u288_41
  7795  001E3E  EF23  F00F         	goto	i2u288_40
  7796  001E42                     i2u288_41:
  7797  001E42  EF53  F00E         	goto	i2l2808
  7798  001E46                     i2u288_40:
  7799  001E46  BE34               	btfsc	(xtoa@p+1)^0,7,c
  7800  001E48  EF30  F00F         	goto	i2u289_40
  7801  001E4C  5034               	movf	(xtoa@p+1)^0,w,c
  7802  001E4E  E106               	bnz	i2u289_41
  7803  001E50  0433               	decf	xtoa@p^0,w,c
  7804  001E52  B0D8               	btfsc	status,0,c
  7805  001E54  EF2E  F00F         	goto	i2u289_41
  7806  001E58  EF30  F00F         	goto	i2u289_40
  7807  001E5C                     i2u289_41:
  7808  001E5C  EF53  F00E         	goto	i2l2808
  7809  001E60                     i2u289_40:
  7810  001E60  BE36               	btfsc	(xtoa@w+1)^0,7,c
  7811  001E62  EF3B  F00F         	goto	i2u290_41
  7812  001E66  5036               	movf	(xtoa@w+1)^0,w,c
  7813  001E68  E108               	bnz	i2u290_40
  7814  001E6A  0435               	decf	xtoa@w^0,w,c
  7815  001E6C  A0D8               	btfss	status,0,c
  7816  001E6E  EF3B  F00F         	goto	i2u290_41
  7817  001E72  EF3D  F00F         	goto	i2u290_40
  7818  001E76                     i2u290_41:
  7819  001E76  EF45  F00F         	goto	i2l1066
  7820  001E7A                     i2u290_40:
  7821  001E7A  0100               	movlb	0	; () banked
  7822  001E7C  B3CB               	btfsc	_flags& (0+255),1,b
  7823  001E7E  EF43  F00F         	goto	i2u291_41
  7824  001E82  EF45  F00F         	goto	i2u291_40
  7825  001E86                     i2u291_41:
  7826  001E86  EF53  F00E         	goto	i2l2808
  7827  001E8A                     i2u291_40:
  7828  001E8A                     i2l1066:
  7829                           
  7830                           ;C:\Program Files\Microchip\xc8\v2.32\pic\sources\c99\common\doprnt.c: 678:     if (flag
      +                          s & (1 << 4)) {
  7831  001E8A  0100               	movlb	0	; () banked
  7832  001E8C  A9CB               	btfss	_flags& (0+255),4,b
  7833  001E8E  EF4B  F00F         	goto	i2u292_41
  7834  001E92  EF4D  F00F         	goto	i2u292_40
  7835  001E96                     i2u292_41:
  7836  001E96  EF63  F00F         	goto	i2l2854
  7837  001E9A                     i2u292_40:
  7838  001E9A                     
  7839                           ; BSR set to: 0
  7840                           ;C:\Program Files\Microchip\xc8\v2.32\pic\sources\c99\common\doprnt.c: 679:         --i;
  7841  001E9A  063F               	decf	xtoa@i^0,f,c
  7842  001E9C  A0D8               	btfss	status,0,c
  7843  001E9E  0640               	decf	(xtoa@i+1)^0,f,c
  7844  001EA0                     
  7845                           ; BSR set to: 0
  7846                           ;C:\Program Files\Microchip\xc8\v2.32\pic\sources\c99\common\doprnt.c: 680:         dbuf
      +                          [i] = x;
  7847  001EA0  0ECF               	movlw	low _dbuf
  7848  001EA2  243F               	addwf	xtoa@i^0,w,c
  7849  001EA4  6ED9               	movwf	fsr2l,c
  7850  001EA6  0E01               	movlw	high _dbuf
  7851  001EA8  2040               	addwfc	(xtoa@i+1)^0,w,c
  7852  001EAA  6EDA               	movwf	fsr2h,c
  7853  001EAC  C026  FFDF         	movff	xtoa@x,indf2
  7854  001EB0                     
  7855                           ; BSR set to: 0
  7856                           ;C:\Program Files\Microchip\xc8\v2.32\pic\sources\c99\common\doprnt.c: 681:         --i;
  7857  001EB0  063F               	decf	xtoa@i^0,f,c
  7858  001EB2  A0D8               	btfss	status,0,c
  7859  001EB4  0640               	decf	(xtoa@i+1)^0,f,c
  7860                           
  7861                           ;C:\Program Files\Microchip\xc8\v2.32\pic\sources\c99\common\doprnt.c: 682:         dbuf
      +                          [i] = '0';
  7862  001EB6  0ECF               	movlw	low _dbuf
  7863  001EB8  243F               	addwf	xtoa@i^0,w,c
  7864  001EBA  6ED9               	movwf	fsr2l,c
  7865  001EBC  0E01               	movlw	high _dbuf
  7866  001EBE  2040               	addwfc	(xtoa@i+1)^0,w,c
  7867  001EC0  6EDA               	movwf	fsr2h,c
  7868  001EC2  0E30               	movlw	48
  7869  001EC4  6EDF               	movwf	indf2,c
  7870  001EC6                     i2l2854:
  7871                           
  7872                           ; BSR set to: 0
  7873                           ;C:\Program Files\Microchip\xc8\v2.32\pic\sources\c99\common\doprnt.c: 686:     return p
      +                          ad(fp, &dbuf[i], w);
  7874  001EC6  C01C  F011         	movff	xtoa@fp,pad@fp
  7875  001ECA  C01D  F012         	movff	xtoa@fp+1,pad@fp+1
  7876  001ECE  0ECF               	movlw	low _dbuf
  7877  001ED0  243F               	addwf	xtoa@i^0,w,c
  7878  001ED2  6E13               	movwf	pad@buf^0,c
  7879  001ED4  0E01               	movlw	high _dbuf
  7880  001ED6  2040               	addwfc	(xtoa@i+1)^0,w,c
  7881  001ED8  6E14               	movwf	(pad@buf+1)^0,c
  7882  001EDA  C035  F015         	movff	xtoa@w,pad@p
  7883  001EDE  C036  F016         	movff	xtoa@w+1,pad@p+1
  7884  001EE2  EC4F  F014         	call	_pad	;wreg free
  7885  001EE6  C011  F01C         	movff	?_pad,?_xtoa
  7886  001EEA  C012  F01D         	movff	?_pad+1,?_xtoa+1
  7887  001EEE  0012               	return		;funcret
  7888  001EF0                     __end_of_xtoa:
  7889                           	callstack 0
  7890                           
  7891 ;; *************** function _toupper *****************
  7892 ;; Defined at:
  7893 ;;		line 4 in file "C:\Program Files\Microchip\xc8\v2.32\pic\sources\c99\common\toupper.c"
  7894 ;; Parameters:    Size  Location     Type
  7895 ;;  c               2    6[COMRAM] int 
  7896 ;; Auto vars:     Size  Location     Type
  7897 ;;		None
  7898 ;; Return value:  Size  Location     Type
  7899 ;;                  2    6[COMRAM] int 
  7900 ;; Registers used:
  7901 ;;		wreg, status,2, status,0
  7902 ;; Tracked objects:
  7903 ;;		On entry : 0/0
  7904 ;;		On exit  : 0/0
  7905 ;;		Unchanged: 0/0
  7906 ;; Data sizes:     COMRAM   BANK0   BANK1   BANK2   BANK3   BANK4   BANK5
  7907 ;;      Params:         2       0       0       0       0       0       0
  7908 ;;      Locals:         2       0       0       0       0       0       0
  7909 ;;      Temps:          4       0       0       0       0       0       0
  7910 ;;      Totals:         8       0       0       0       0       0       0
  7911 ;;Total ram usage:        8 bytes
  7912 ;; Hardware stack levels used: 1
  7913 ;; Hardware stack levels required when called: 1
  7914 ;; This function calls:
  7915 ;;		_islower
  7916 ;; This function is called by:
  7917 ;;		_xtoa
  7918 ;; This function uses a non-reentrant model
  7919 ;;
  7920                           
  7921                           	psect	text13
  7922  002C8A                     __ptext13:
  7923                           	callstack 0
  7924  002C8A                     _toupper:
  7925                           	callstack 22
  7926  002C8A  0E9F               	movlw	159
  7927  002C8C  6E09               	movwf	??_toupper^0,c
  7928  002C8E  0EFF               	movlw	255
  7929  002C90  6E0A               	movwf	(??_toupper+1)^0,c
  7930  002C92  C007  F00B         	movff	toupper@c,??_toupper+2
  7931  002C96  C008  F00C         	movff	toupper@c+1,??_toupper+3
  7932  002C9A  5009               	movf	??_toupper^0,w,c
  7933  002C9C  260B               	addwf	(??_toupper+2)^0,f,c
  7934  002C9E  500A               	movf	(??_toupper+1)^0,w,c
  7935  002CA0  220C               	addwfc	(??_toupper+3)^0,f,c
  7936  002CA2  500C               	movf	(??_toupper+3)^0,w,c
  7937  002CA4  E10A               	bnz	i2u262_40
  7938  002CA6  0E1A               	movlw	26
  7939  002CA8  5C0B               	subwf	(??_toupper+2)^0,w,c
  7940  002CAA  A0D8               	btfss	status,0,c
  7941  002CAC  EF5A  F016         	goto	i2u262_41
  7942  002CB0  EF5D  F016         	goto	i2u262_40
  7943  002CB4                     i2u262_41:
  7944  002CB4  0E01               	movlw	1
  7945  002CB6  EF5E  F016         	goto	i2u263_40
  7946  002CBA                     i2u262_40:
  7947  002CBA  0E00               	movlw	0
  7948  002CBC                     i2u263_40:
  7949  002CBC  6E0D               	movwf	_toupper$1061^0,c
  7950  002CBE  6A0E               	clrf	(_toupper$1061+1)^0,c
  7951  002CC0  500D               	movf	_toupper$1061^0,w,c
  7952  002CC2  100E               	iorwf	(_toupper$1061+1)^0,w,c
  7953  002CC4  B4D8               	btfsc	status,2,c
  7954  002CC6  EF67  F016         	goto	i2u264_41
  7955  002CCA  EF69  F016         	goto	i2u264_40
  7956  002CCE                     i2u264_41:
  7957  002CCE  EF6F  F016         	goto	i2l1196
  7958  002CD2                     i2u264_40:
  7959  002CD2  0E5F               	movlw	95
  7960  002CD4  1407               	andwf	toupper@c^0,w,c
  7961  002CD6  6E07               	movwf	?_toupper^0,c
  7962  002CD8  6A08               	clrf	(?_toupper+1)^0,c
  7963  002CDA  EF73  F016         	goto	i2l1201
  7964  002CDE                     i2l1196:
  7965  002CDE  C007  F007         	movff	toupper@c,?_toupper
  7966  002CE2  C008  F008         	movff	toupper@c+1,?_toupper+1
  7967  002CE6                     i2l1201:
  7968  002CE6  0012               	return		;funcret
  7969  002CE8                     __end_of_toupper:
  7970                           	callstack 0
  7971                           
  7972 ;; *************** function _islower *****************
  7973 ;; Defined at:
  7974 ;;		line 5 in file "C:\Program Files\Microchip\xc8\v2.32\pic\sources\c99\common\islower.c"
  7975 ;; Parameters:    Size  Location     Type
  7976 ;;  c               2    0[COMRAM] int 
  7977 ;; Auto vars:     Size  Location     Type
  7978 ;;		None
  7979 ;; Return value:  Size  Location     Type
  7980 ;;                  2    0[COMRAM] int 
  7981 ;; Registers used:
  7982 ;;		wreg, status,2, status,0
  7983 ;; Tracked objects:
  7984 ;;		On entry : 0/0
  7985 ;;		On exit  : 0/0
  7986 ;;		Unchanged: 0/0
  7987 ;; Data sizes:     COMRAM   BANK0   BANK1   BANK2   BANK3   BANK4   BANK5
  7988 ;;      Params:         2       0       0       0       0       0       0
  7989 ;;      Locals:         0       0       0       0       0       0       0
  7990 ;;      Temps:          4       0       0       0       0       0       0
  7991 ;;      Totals:         6       0       0       0       0       0       0
  7992 ;;Total ram usage:        6 bytes
  7993 ;; Hardware stack levels used: 1
  7994 ;; This function calls:
  7995 ;;		Nothing
  7996 ;; This function is called by:
  7997 ;;		_toupper
  7998 ;; This function uses a non-reentrant model
  7999 ;;
  8000                           
  8001                           	psect	text14
  8002  002DBA                     __ptext14:
  8003                           	callstack 0
  8004  002DBA                     _islower:
  8005                           	callstack 22
  8006  002DBA  0E9F               	movlw	159
  8007  002DBC  6E03               	movwf	??_islower^0,c
  8008  002DBE  0EFF               	movlw	255
  8009  002DC0  6E04               	movwf	(??_islower+1)^0,c
  8010  002DC2  C001  F005         	movff	islower@c,??_islower+2
  8011  002DC6  C002  F006         	movff	islower@c+1,??_islower+3
  8012  002DCA  5003               	movf	??_islower^0,w,c
  8013  002DCC  2605               	addwf	(??_islower+2)^0,f,c
  8014  002DCE  5004               	movf	(??_islower+1)^0,w,c
  8015  002DD0  2206               	addwfc	(??_islower+3)^0,f,c
  8016  002DD2  5006               	movf	(??_islower+3)^0,w,c
  8017  002DD4  E10A               	bnz	i2u245_40
  8018  002DD6  0E1A               	movlw	26
  8019  002DD8  5C05               	subwf	(??_islower+2)^0,w,c
  8020  002DDA  A0D8               	btfss	status,0,c
  8021  002DDC  EFF2  F016         	goto	i2u245_41
  8022  002DE0  EFF5  F016         	goto	i2u245_40
  8023  002DE4                     i2u245_41:
  8024  002DE4  0E01               	movlw	1
  8025  002DE6  EFF6  F016         	goto	i2u246_40
  8026  002DEA                     i2u245_40:
  8027  002DEA  0E00               	movlw	0
  8028  002DEC                     i2u246_40:
  8029  002DEC  6E01               	movwf	?_islower^0,c
  8030  002DEE  6A02               	clrf	(?_islower+1)^0,c
  8031  002DF0  0012               	return		;funcret
  8032  002DF2                     __end_of_islower:
  8033                           	callstack 0
  8034                           
  8035 ;; *************** function _isupper *****************
  8036 ;; Defined at:
  8037 ;;		line 5 in file "C:\Program Files\Microchip\xc8\v2.32\pic\sources\c99\common\isupper.c"
  8038 ;; Parameters:    Size  Location     Type
  8039 ;;  c               2    0[COMRAM] int 
  8040 ;; Auto vars:     Size  Location     Type
  8041 ;;		None
  8042 ;; Return value:  Size  Location     Type
  8043 ;;                  2    0[COMRAM] int 
  8044 ;; Registers used:
  8045 ;;		wreg, status,2, status,0
  8046 ;; Tracked objects:
  8047 ;;		On entry : 0/0
  8048 ;;		On exit  : 0/0
  8049 ;;		Unchanged: 0/0
  8050 ;; Data sizes:     COMRAM   BANK0   BANK1   BANK2   BANK3   BANK4   BANK5
  8051 ;;      Params:         2       0       0       0       0       0       0
  8052 ;;      Locals:         0       0       0       0       0       0       0
  8053 ;;      Temps:          4       0       0       0       0       0       0
  8054 ;;      Totals:         6       0       0       0       0       0       0
  8055 ;;Total ram usage:        6 bytes
  8056 ;; Hardware stack levels used: 1
  8057 ;; This function calls:
  8058 ;;		Nothing
  8059 ;; This function is called by:
  8060 ;;		_xtoa
  8061 ;; This function uses a non-reentrant model
  8062 ;;
  8063                           
  8064                           	psect	text15
  8065  002DF2                     __ptext15:
  8066                           	callstack 0
  8067  002DF2                     _isupper:
  8068                           	callstack 23
  8069  002DF2  0EBF               	movlw	191
  8070  002DF4  6E03               	movwf	??_isupper^0,c
  8071  002DF6  0EFF               	movlw	255
  8072  002DF8  6E04               	movwf	(??_isupper+1)^0,c
  8073  002DFA  C001  F005         	movff	isupper@c,??_isupper+2
  8074  002DFE  C002  F006         	movff	isupper@c+1,??_isupper+3
  8075  002E02  5003               	movf	??_isupper^0,w,c
  8076  002E04  2605               	addwf	(??_isupper+2)^0,f,c
  8077  002E06  5004               	movf	(??_isupper+1)^0,w,c
  8078  002E08  2206               	addwfc	(??_isupper+3)^0,f,c
  8079  002E0A  5006               	movf	(??_isupper+3)^0,w,c
  8080  002E0C  E10A               	bnz	i2u258_40
  8081  002E0E  0E1A               	movlw	26
  8082  002E10  5C05               	subwf	(??_isupper+2)^0,w,c
  8083  002E12  A0D8               	btfss	status,0,c
  8084  002E14  EF0E  F017         	goto	i2u258_41
  8085  002E18  EF11  F017         	goto	i2u258_40
  8086  002E1C                     i2u258_41:
  8087  002E1C  0E01               	movlw	1
  8088  002E1E  EF12  F017         	goto	i2u259_40
  8089  002E22                     i2u258_40:
  8090  002E22  0E00               	movlw	0
  8091  002E24                     i2u259_40:
  8092  002E24  6E01               	movwf	?_isupper^0,c
  8093  002E26  6A02               	clrf	(?_isupper+1)^0,c
  8094  002E28  0012               	return		;funcret
  8095  002E2A                     __end_of_isupper:
  8096                           	callstack 0
  8097                           
  8098 ;; *************** function _isalpha *****************
  8099 ;; Defined at:
  8100 ;;		line 5 in file "C:\Program Files\Microchip\xc8\v2.32\pic\sources\c99\common\isalpha.c"
  8101 ;; Parameters:    Size  Location     Type
  8102 ;;  c               2    0[COMRAM] int 
  8103 ;; Auto vars:     Size  Location     Type
  8104 ;;		None
  8105 ;; Return value:  Size  Location     Type
  8106 ;;                  2    0[COMRAM] int 
  8107 ;; Registers used:
  8108 ;;		wreg, status,2, status,0
  8109 ;; Tracked objects:
  8110 ;;		On entry : 0/0
  8111 ;;		On exit  : 0/0
  8112 ;;		Unchanged: 0/0
  8113 ;; Data sizes:     COMRAM   BANK0   BANK1   BANK2   BANK3   BANK4   BANK5
  8114 ;;      Params:         2       0       0       0       0       0       0
  8115 ;;      Locals:         0       0       0       0       0       0       0
  8116 ;;      Temps:          4       0       0       0       0       0       0
  8117 ;;      Totals:         6       0       0       0       0       0       0
  8118 ;;Total ram usage:        6 bytes
  8119 ;; Hardware stack levels used: 1
  8120 ;; This function calls:
  8121 ;;		Nothing
  8122 ;; This function is called by:
  8123 ;;		_xtoa
  8124 ;; This function uses a non-reentrant model
  8125 ;;
  8126                           
  8127                           	psect	text16
  8128  002D7E                     __ptext16:
  8129                           	callstack 0
  8130  002D7E                     _isalpha:
  8131                           	callstack 23
  8132  002D7E  0E9F               	movlw	159
  8133  002D80  6E03               	movwf	??_isalpha^0,c
  8134  002D82  0EFF               	movlw	255
  8135  002D84  6E04               	movwf	(??_isalpha+1)^0,c
  8136  002D86  0E20               	movlw	32
  8137  002D88  1001               	iorwf	isalpha@c^0,w,c
  8138  002D8A  6E05               	movwf	(??_isalpha+2)^0,c
  8139  002D8C  0E00               	movlw	0
  8140  002D8E  1002               	iorwf	(isalpha@c+1)^0,w,c
  8141  002D90  6E06               	movwf	(??_isalpha+3)^0,c
  8142  002D92  5003               	movf	??_isalpha^0,w,c
  8143  002D94  2605               	addwf	(??_isalpha+2)^0,f,c
  8144  002D96  5004               	movf	(??_isalpha+1)^0,w,c
  8145  002D98  2206               	addwfc	(??_isalpha+3)^0,f,c
  8146  002D9A  5006               	movf	(??_isalpha+3)^0,w,c
  8147  002D9C  E10A               	bnz	i2u260_40
  8148  002D9E  0E1A               	movlw	26
  8149  002DA0  5C05               	subwf	(??_isalpha+2)^0,w,c
  8150  002DA2  A0D8               	btfss	status,0,c
  8151  002DA4  EFD6  F016         	goto	i2u260_41
  8152  002DA8  EFD9  F016         	goto	i2u260_40
  8153  002DAC                     i2u260_41:
  8154  002DAC  0E01               	movlw	1
  8155  002DAE  EFDA  F016         	goto	i2u261_40
  8156  002DB2                     i2u260_40:
  8157  002DB2  0E00               	movlw	0
  8158  002DB4                     i2u261_40:
  8159  002DB4  6E01               	movwf	?_isalpha^0,c
  8160  002DB6  6A02               	clrf	(?_isalpha+1)^0,c
  8161  002DB8  0012               	return		;funcret
  8162  002DBA                     __end_of_isalpha:
  8163                           	callstack 0
  8164                           
  8165 ;; *************** function _utoa *****************
  8166 ;; Defined at:
  8167 ;;		line 615 in file "C:\Program Files\Microchip\xc8\v2.32\pic\sources\c99\common\doprnt.c"
  8168 ;; Parameters:    Size  Location     Type
  8169 ;;  fp              2   27[COMRAM] PTR struct _IO_FILE
  8170 ;;		 -> sprintf@f(6), 
  8171 ;;  d               8   29[COMRAM] unsigned long long 
  8172 ;; Auto vars:     Size  Location     Type
  8173 ;;  n               8   49[COMRAM] unsigned long long 
  8174 ;;  i               2   57[COMRAM] int 
  8175 ;;  w               2   47[COMRAM] int 
  8176 ;;  p               2   45[COMRAM] int 
  8177 ;; Return value:  Size  Location     Type
  8178 ;;                  2   27[COMRAM] int 
  8179 ;; Registers used:
  8180 ;;		wreg, fsr1l, fsr1h, fsr2l, fsr2h, status,2, status,0, cstack
  8181 ;; Tracked objects:
  8182 ;;		On entry : 0/0
  8183 ;;		On exit  : 0/0
  8184 ;;		Unchanged: 0/0
  8185 ;; Data sizes:     COMRAM   BANK0   BANK1   BANK2   BANK3   BANK4   BANK5
  8186 ;;      Params:        10       0       0       0       0       0       0
  8187 ;;      Locals:        14       0       0       0       0       0       0
  8188 ;;      Temps:          8       0       0       0       0       0       0
  8189 ;;      Totals:        32       0       0       0       0       0       0
  8190 ;;Total ram usage:       32 bytes
  8191 ;; Hardware stack levels used: 1
  8192 ;; Hardware stack levels required when called: 4
  8193 ;; This function calls:
  8194 ;;		___lodiv
  8195 ;;		___lomod
  8196 ;;		_pad
  8197 ;; This function is called by:
  8198 ;;		_vfpfcnvrt
  8199 ;; This function uses a non-reentrant model
  8200 ;;
  8201                           
  8202                           	psect	text17
  8203  001EF0                     __ptext17:
  8204                           	callstack 0
  8205  001EF0                     _utoa:
  8206                           	callstack 20
  8207  001EF0                     
  8208                           ;C:\Program Files\Microchip\xc8\v2.32\pic\sources\c99\common\doprnt.c: 615: static int u
      +                          toa(FILE *fp, unsigned long long d);C:\Program Files\Microchip\xc8\v2.32\pic\sources\c99
      +                          \common\doprnt.c: 616: {;C:\Program Files\Microchip\xc8\v2.32\pic\sources\c99\common\dop
      +                          rnt.c: 617:     int i, p, w;;C:\Program Files\Microchip\xc8\v2.32\pic\sources\c99\common
      +                          \doprnt.c: 618:     unsigned long long n;;C:\Program Files\Microchip\xc8\v2.32\pic\sourc
      +                          es\c99\common\doprnt.c: 621:     if (!(prec < 0)) {
  8209  001EF0  0100               	movlb	0	; () banked
  8210  001EF2  BFCA               	btfsc	(_prec+1)& (0+255),7,b
  8211  001EF4  EF7E  F00F         	goto	i2u269_41
  8212  001EF8  EF80  F00F         	goto	i2u269_40
  8213  001EFC                     i2u269_41:
  8214  001EFC  EF81  F00F         	goto	i2l2760
  8215  001F00                     i2u269_40:
  8216  001F00                     
  8217                           ; BSR set to: 0
  8218                           ;C:\Program Files\Microchip\xc8\v2.32\pic\sources\c99\common\doprnt.c: 622:         flag
      +                          s &= ~(1 << 1);
  8219  001F00  93CB               	bcf	_flags& (0+255),1,b
  8220  001F02                     i2l2760:
  8221                           
  8222                           ; BSR set to: 0
  8223                           ;C:\Program Files\Microchip\xc8\v2.32\pic\sources\c99\common\doprnt.c: 624:     p = (0 <
      +                           prec) ? prec : 1;
  8224  001F02  BFCA               	btfsc	(_prec+1)& (0+255),7,b
  8225  001F04  EF8E  F00F         	goto	i2u270_40
  8226  001F08  51CA               	movf	(_prec+1)& (0+255),w,b
  8227  001F0A  E106               	bnz	i2u270_41
  8228  001F0C  05C9               	decf	_prec& (0+255),w,b
  8229  001F0E  B0D8               	btfsc	status,0,c
  8230  001F10  EF8C  F00F         	goto	i2u270_41
  8231  001F14  EF8E  F00F         	goto	i2u270_40
  8232  001F18                     i2u270_41:
  8233  001F18  EF94  F00F         	goto	i2l1028
  8234  001F1C                     i2u270_40:
  8235  001F1C                     
  8236                           ; BSR set to: 0
  8237  001F1C  0E00               	movlw	0
  8238  001F1E  6E2F               	movwf	(utoa@p+1)^0,c
  8239  001F20  0E01               	movlw	1
  8240  001F22  6E2E               	movwf	utoa@p^0,c
  8241  001F24  EF98  F00F         	goto	i2l1030
  8242  001F28                     i2l1028:
  8243                           
  8244                           ; BSR set to: 0
  8245  001F28  C0C9  F02E         	movff	_prec,utoa@p
  8246  001F2C  C0CA  F02F         	movff	_prec+1,utoa@p+1
  8247  001F30                     i2l1030:
  8248                           
  8249                           ; BSR set to: 0
  8250                           ;C:\Program Files\Microchip\xc8\v2.32\pic\sources\c99\common\doprnt.c: 625:     w = widt
      +                          h;
  8251  001F30  C0C7  F030         	movff	_width,utoa@w
  8252  001F34  C0C8  F031         	movff	_width+1,utoa@w+1
  8253                           
  8254                           ;C:\Program Files\Microchip\xc8\v2.32\pic\sources\c99\common\doprnt.c: 628:     n = d;
  8255  001F38  C01E  F032         	movff	utoa@d,utoa@n
  8256  001F3C  C01F  F033         	movff	utoa@d+1,utoa@n+1
  8257  001F40  C020  F034         	movff	utoa@d+2,utoa@n+2
  8258  001F44  C021  F035         	movff	utoa@d+3,utoa@n+3
  8259  001F48  C022  F036         	movff	utoa@d+4,utoa@n+4
  8260  001F4C  C023  F037         	movff	utoa@d+5,utoa@n+5
  8261  001F50  C024  F038         	movff	utoa@d+6,utoa@n+6
  8262  001F54  C025  F039         	movff	utoa@d+7,utoa@n+7
  8263  001F58                     
  8264                           ; BSR set to: 0
  8265                           ;C:\Program Files\Microchip\xc8\v2.32\pic\sources\c99\common\doprnt.c: 629:     i = size
      +                          of(dbuf) - 1;
  8266  001F58  0E00               	movlw	0
  8267  001F5A  6E3B               	movwf	(utoa@i+1)^0,c
  8268  001F5C  0E1F               	movlw	31
  8269  001F5E  6E3A               	movwf	utoa@i^0,c
  8270  001F60                     
  8271                           ; BSR set to: 0
  8272                           ;C:\Program Files\Microchip\xc8\v2.32\pic\sources\c99\common\doprnt.c: 630:     dbuf[i] 
      +                          = '\0';
  8273  001F60  0E00               	movlw	0
  8274  001F62  0101               	movlb	1	; () banked
  8275  001F64  6FEE               	movwf	(_dbuf+31)& (0+255),b
  8276                           
  8277                           ;C:\Program Files\Microchip\xc8\v2.32\pic\sources\c99\common\doprnt.c: 631:     while (i
      +                           && (n || (0 < p) || ((0 < w) && (flags & (1 << 1))))) {
  8278  001F66  EF2B  F010         	goto	i2l2778
  8279  001F6A                     i2l2768:
  8280                           
  8281                           ;C:\Program Files\Microchip\xc8\v2.32\pic\sources\c99\common\doprnt.c: 632:         --i;
  8282  001F6A  063A               	decf	utoa@i^0,f,c
  8283  001F6C  A0D8               	btfss	status,0,c
  8284  001F6E  063B               	decf	(utoa@i+1)^0,f,c
  8285  001F70                     
  8286                           ;C:\Program Files\Microchip\xc8\v2.32\pic\sources\c99\common\doprnt.c: 633:         dbuf
      +                          [i] = '0' + (n % 10);
  8287  001F70  0ECF               	movlw	low _dbuf
  8288  001F72  243A               	addwf	utoa@i^0,w,c
  8289  001F74  6ED9               	movwf	fsr2l,c
  8290  001F76  0E01               	movlw	high _dbuf
  8291  001F78  203B               	addwfc	(utoa@i+1)^0,w,c
  8292  001F7A  6EDA               	movwf	fsr2h,c
  8293  001F7C  C032  F001         	movff	utoa@n,___lomod@dividend
  8294  001F80  C033  F002         	movff	utoa@n+1,___lomod@dividend+1
  8295  001F84  C034  F003         	movff	utoa@n+2,___lomod@dividend+2
  8296  001F88  C035  F004         	movff	utoa@n+3,___lomod@dividend+3
  8297  001F8C  C036  F005         	movff	utoa@n+4,___lomod@dividend+4
  8298  001F90  C037  F006         	movff	utoa@n+5,___lomod@dividend+5
  8299  001F94  C038  F007         	movff	utoa@n+6,___lomod@dividend+6
  8300  001F98  C039  F008         	movff	utoa@n+7,___lomod@dividend+7
  8301  001F9C  0E0A               	movlw	10
  8302  001F9E  6E09               	movwf	___lomod@divisor^0,c
  8303  001FA0  0E00               	movlw	0
  8304  001FA2  6E0A               	movwf	(___lomod@divisor+1)^0,c
  8305  001FA4  0E00               	movlw	0
  8306  001FA6  6E0B               	movwf	(___lomod@divisor+2)^0,c
  8307  001FA8  0E00               	movlw	0
  8308  001FAA  6E0C               	movwf	(___lomod@divisor+3)^0,c
  8309  001FAC  0E00               	movlw	0
  8310  001FAE  6E0D               	movwf	(___lomod@divisor+4)^0,c
  8311  001FB0  0E00               	movlw	0
  8312  001FB2  6E0E               	movwf	(___lomod@divisor+5)^0,c
  8313  001FB4  0E00               	movlw	0
  8314  001FB6  6E0F               	movwf	(___lomod@divisor+6)^0,c
  8315  001FB8  0E00               	movlw	0
  8316  001FBA  6E10               	movwf	(___lomod@divisor+7)^0,c
  8317  001FBC  EC1A  F013         	call	___lomod	;wreg free
  8318  001FC0  C001  F026         	movff	?___lomod,??_utoa
  8319  001FC4  C002  F027         	movff	?___lomod+1,??_utoa+1
  8320  001FC8  C003  F028         	movff	?___lomod+2,??_utoa+2
  8321  001FCC  C004  F029         	movff	?___lomod+3,??_utoa+3
  8322  001FD0  C005  F02A         	movff	?___lomod+4,??_utoa+4
  8323  001FD4  C006  F02B         	movff	?___lomod+5,??_utoa+5
  8324  001FD8  C007  F02C         	movff	?___lomod+6,??_utoa+6
  8325  001FDC  C008  F02D         	movff	?___lomod+7,??_utoa+7
  8326  001FE0  5026               	movf	??_utoa^0,w,c
  8327  001FE2  0F30               	addlw	48
  8328  001FE4  6EDF               	movwf	indf2,c
  8329  001FE6                     
  8330                           ;C:\Program Files\Microchip\xc8\v2.32\pic\sources\c99\common\doprnt.c: 634:         --p;
  8331  001FE6  062E               	decf	utoa@p^0,f,c
  8332  001FE8  A0D8               	btfss	status,0,c
  8333  001FEA  062F               	decf	(utoa@p+1)^0,f,c
  8334  001FEC                     
  8335                           ;C:\Program Files\Microchip\xc8\v2.32\pic\sources\c99\common\doprnt.c: 635:         --w;
  8336  001FEC  0630               	decf	utoa@w^0,f,c
  8337  001FEE  A0D8               	btfss	status,0,c
  8338  001FF0  0631               	decf	(utoa@w+1)^0,f,c
  8339  001FF2                     
  8340                           ;C:\Program Files\Microchip\xc8\v2.32\pic\sources\c99\common\doprnt.c: 636:         n = 
      +                          n / 10;
  8341  001FF2  C032  F001         	movff	utoa@n,___lodiv@dividend
  8342  001FF6  C033  F002         	movff	utoa@n+1,___lodiv@dividend+1
  8343  001FFA  C034  F003         	movff	utoa@n+2,___lodiv@dividend+2
  8344  001FFE  C035  F004         	movff	utoa@n+3,___lodiv@dividend+3
  8345  002002  C036  F005         	movff	utoa@n+4,___lodiv@dividend+4
  8346  002006  C037  F006         	movff	utoa@n+5,___lodiv@dividend+5
  8347  00200A  C038  F007         	movff	utoa@n+6,___lodiv@dividend+6
  8348  00200E  C039  F008         	movff	utoa@n+7,___lodiv@dividend+7
  8349  002012  0E0A               	movlw	10
  8350  002014  6E09               	movwf	___lodiv@divisor^0,c
  8351  002016  0E00               	movlw	0
  8352  002018  6E0A               	movwf	(___lodiv@divisor+1)^0,c
  8353  00201A  0E00               	movlw	0
  8354  00201C  6E0B               	movwf	(___lodiv@divisor+2)^0,c
  8355  00201E  0E00               	movlw	0
  8356  002020  6E0C               	movwf	(___lodiv@divisor+3)^0,c
  8357  002022  0E00               	movlw	0
  8358  002024  6E0D               	movwf	(___lodiv@divisor+4)^0,c
  8359  002026  0E00               	movlw	0
  8360  002028  6E0E               	movwf	(___lodiv@divisor+5)^0,c
  8361  00202A  0E00               	movlw	0
  8362  00202C  6E0F               	movwf	(___lodiv@divisor+6)^0,c
  8363  00202E  0E00               	movlw	0
  8364  002030  6E10               	movwf	(___lodiv@divisor+7)^0,c
  8365  002032  ECA2  F012         	call	___lodiv	;wreg free
  8366  002036  C001  F032         	movff	?___lodiv,utoa@n
  8367  00203A  C002  F033         	movff	?___lodiv+1,utoa@n+1
  8368  00203E  C003  F034         	movff	?___lodiv+2,utoa@n+2
  8369  002042  C004  F035         	movff	?___lodiv+3,utoa@n+3
  8370  002046  C005  F036         	movff	?___lodiv+4,utoa@n+4
  8371  00204A  C006  F037         	movff	?___lodiv+5,utoa@n+5
  8372  00204E  C007  F038         	movff	?___lodiv+6,utoa@n+6
  8373  002052  C008  F039         	movff	?___lodiv+7,utoa@n+7
  8374  002056                     i2l2778:
  8375                           
  8376                           ;C:\Program Files\Microchip\xc8\v2.32\pic\sources\c99\common\doprnt.c: 631:     while (i
      +                           && (n || (0 < p) || ((0 < w) && (flags & (1 << 1))))) {
  8377  002056  503A               	movf	utoa@i^0,w,c
  8378  002058  103B               	iorwf	(utoa@i+1)^0,w,c
  8379  00205A  B4D8               	btfsc	status,2,c
  8380  00205C  EF32  F010         	goto	i2u271_41
  8381  002060  EF34  F010         	goto	i2u271_40
  8382  002064                     i2u271_41:
  8383  002064  EF65  F010         	goto	i2l2788
  8384  002068                     i2u271_40:
  8385  002068  5032               	movf	utoa@n^0,w,c
  8386  00206A  1033               	iorwf	(utoa@n+1)^0,w,c
  8387  00206C  1034               	iorwf	(utoa@n+2)^0,w,c
  8388  00206E  1035               	iorwf	(utoa@n+3)^0,w,c
  8389  002070  1036               	iorwf	(utoa@n+4)^0,w,c
  8390  002072  1037               	iorwf	(utoa@n+5)^0,w,c
  8391  002074  1038               	iorwf	(utoa@n+6)^0,w,c
  8392  002076  1039               	iorwf	(utoa@n+7)^0,w,c
  8393  002078  A4D8               	btfss	status,2,c
  8394  00207A  EF41  F010         	goto	i2u272_41
  8395  00207E  EF43  F010         	goto	i2u272_40
  8396  002082                     i2u272_41:
  8397  002082  EFB5  F00F         	goto	i2l2768
  8398  002086                     i2u272_40:
  8399  002086  BE2F               	btfsc	(utoa@p+1)^0,7,c
  8400  002088  EF50  F010         	goto	i2u273_40
  8401  00208C  502F               	movf	(utoa@p+1)^0,w,c
  8402  00208E  E106               	bnz	i2u273_41
  8403  002090  042E               	decf	utoa@p^0,w,c
  8404  002092  B0D8               	btfsc	status,0,c
  8405  002094  EF4E  F010         	goto	i2u273_41
  8406  002098  EF50  F010         	goto	i2u273_40
  8407  00209C                     i2u273_41:
  8408  00209C  EFB5  F00F         	goto	i2l2768
  8409  0020A0                     i2u273_40:
  8410  0020A0  BE31               	btfsc	(utoa@w+1)^0,7,c
  8411  0020A2  EF5B  F010         	goto	i2u274_41
  8412  0020A6  5031               	movf	(utoa@w+1)^0,w,c
  8413  0020A8  E108               	bnz	i2u274_40
  8414  0020AA  0430               	decf	utoa@w^0,w,c
  8415  0020AC  A0D8               	btfss	status,0,c
  8416  0020AE  EF5B  F010         	goto	i2u274_41
  8417  0020B2  EF5D  F010         	goto	i2u274_40
  8418  0020B6                     i2u274_41:
  8419  0020B6  EF65  F010         	goto	i2l2788
  8420  0020BA                     i2u274_40:
  8421  0020BA  0100               	movlb	0	; () banked
  8422  0020BC  B3CB               	btfsc	_flags& (0+255),1,b
  8423  0020BE  EF63  F010         	goto	i2u275_41
  8424  0020C2  EF65  F010         	goto	i2u275_40
  8425  0020C6                     i2u275_41:
  8426  0020C6  EFB5  F00F         	goto	i2l2768
  8427  0020CA                     i2u275_40:
  8428  0020CA                     i2l2788:
  8429                           
  8430                           ;C:\Program Files\Microchip\xc8\v2.32\pic\sources\c99\common\doprnt.c: 640:     return p
      +                          ad(fp, &dbuf[i], w);
  8431  0020CA  C01C  F011         	movff	utoa@fp,pad@fp
  8432  0020CE  C01D  F012         	movff	utoa@fp+1,pad@fp+1
  8433  0020D2  0ECF               	movlw	low _dbuf
  8434  0020D4  243A               	addwf	utoa@i^0,w,c
  8435  0020D6  6E13               	movwf	pad@buf^0,c
  8436  0020D8  0E01               	movlw	high _dbuf
  8437  0020DA  203B               	addwfc	(utoa@i+1)^0,w,c
  8438  0020DC  6E14               	movwf	(pad@buf+1)^0,c
  8439  0020DE  C030  F015         	movff	utoa@w,pad@p
  8440  0020E2  C031  F016         	movff	utoa@w+1,pad@p+1
  8441  0020E6  EC4F  F014         	call	_pad	;wreg free
  8442  0020EA  C011  F01C         	movff	?_pad,?_utoa
  8443  0020EE  C012  F01D         	movff	?_pad+1,?_utoa+1
  8444  0020F2  0012               	return		;funcret
  8445  0020F4                     __end_of_utoa:
  8446                           	callstack 0
  8447                           
  8448 ;; *************** function _pad *****************
  8449 ;; Defined at:
  8450 ;;		line 72 in file "C:\Program Files\Microchip\xc8\v2.32\pic\sources\c99\common\doprnt.c"
  8451 ;; Parameters:    Size  Location     Type
  8452 ;;  fp              2   16[COMRAM] PTR struct _IO_FILE
  8453 ;;		 -> sprintf@f(6), 
  8454 ;;  buf             2   18[COMRAM] PTR unsigned char 
  8455 ;;		 -> dbuf(32), 
  8456 ;;  p               2   20[COMRAM] int 
  8457 ;; Auto vars:     Size  Location     Type
  8458 ;;  w               2   25[COMRAM] int 
  8459 ;;  i               2   23[COMRAM] int 
  8460 ;; Return value:  Size  Location     Type
  8461 ;;                  2   16[COMRAM] int 
  8462 ;; Registers used:
  8463 ;;		wreg, fsr1l, fsr1h, fsr2l, fsr2h, status,2, status,0, cstack
  8464 ;; Tracked objects:
  8465 ;;		On entry : 0/0
  8466 ;;		On exit  : 0/0
  8467 ;;		Unchanged: 0/0
  8468 ;; Data sizes:     COMRAM   BANK0   BANK1   BANK2   BANK3   BANK4   BANK5
  8469 ;;      Params:         6       0       0       0       0       0       0
  8470 ;;      Locals:         4       0       0       0       0       0       0
  8471 ;;      Temps:          1       0       0       0       0       0       0
  8472 ;;      Totals:        11       0       0       0       0       0       0
  8473 ;;Total ram usage:       11 bytes
  8474 ;; Hardware stack levels used: 1
  8475 ;; Hardware stack levels required when called: 3
  8476 ;; This function calls:
  8477 ;;		_fputc
  8478 ;;		_fputs
  8479 ;;		_strlen
  8480 ;; This function is called by:
  8481 ;;		_utoa
  8482 ;;		_xtoa
  8483 ;; This function uses a non-reentrant model
  8484 ;;
  8485                           
  8486                           	psect	text18
  8487  00289E                     __ptext18:
  8488                           	callstack 0
  8489  00289E                     _pad:
  8490                           	callstack 20
  8491  00289E                     
  8492                           ;C:\Program Files\Microchip\xc8\v2.32\pic\sources\c99\common\doprnt.c: 72: static int pa
      +                          d(FILE *fp, char *buf, int p);C:\Program Files\Microchip\xc8\v2.32\pic\sources\c99\commo
      +                          n\doprnt.c: 73: {;C:\Program Files\Microchip\xc8\v2.32\pic\sources\c99\common\doprnt.c: 
      +                          74:     int i, w;;C:\Program Files\Microchip\xc8\v2.32\pic\sources\c99\common\doprnt.c: 
      +                          77:     if (flags & (1 << 0)) {
  8493  00289E  0100               	movlb	0	; () banked
  8494  0028A0  A1CB               	btfss	_flags& (0+255),0,b
  8495  0028A2  EF55  F014         	goto	i2u254_41
  8496  0028A6  EF57  F014         	goto	i2u254_40
  8497  0028AA                     i2u254_41:
  8498  0028AA  EF61  F014         	goto	i2l2704
  8499  0028AE                     i2u254_40:
  8500  0028AE                     
  8501                           ; BSR set to: 0
  8502                           ;C:\Program Files\Microchip\xc8\v2.32\pic\sources\c99\common\doprnt.c: 78:         fputs
      +                          ((const char *)buf, fp);
  8503  0028AE  C013  F00A         	movff	pad@buf,fputs@s
  8504  0028B2  C014  F00B         	movff	pad@buf+1,fputs@s+1
  8505  0028B6  C011  F00C         	movff	pad@fp,fputs@fp
  8506  0028BA  C012  F00D         	movff	pad@fp+1,fputs@fp+1
  8507  0028BE  EC9D  F016         	call	_fputs	;wreg free
  8508  0028C2                     i2l2704:
  8509                           
  8510                           ;C:\Program Files\Microchip\xc8\v2.32\pic\sources\c99\common\doprnt.c: 82:     w = (p < 
      +                          0) ? 0 : p;
  8511  0028C2  BE16               	btfsc	(pad@p+1)^0,7,c
  8512  0028C4  EF66  F014         	goto	i2u255_41
  8513  0028C8  EF68  F014         	goto	i2u255_40
  8514  0028CC                     i2u255_41:
  8515  0028CC  EF6E  F014         	goto	i2l2708
  8516  0028D0                     i2u255_40:
  8517  0028D0  C015  F01A         	movff	pad@p,pad@w
  8518  0028D4  C016  F01B         	movff	pad@p+1,pad@w+1
  8519  0028D8  EF72  F014         	goto	i2l1018
  8520  0028DC                     i2l2708:
  8521  0028DC  0E00               	movlw	0
  8522  0028DE  6E1B               	movwf	(pad@w+1)^0,c
  8523  0028E0  0E00               	movlw	0
  8524  0028E2  6E1A               	movwf	pad@w^0,c
  8525  0028E4                     i2l1018:
  8526                           
  8527                           ;C:\Program Files\Microchip\xc8\v2.32\pic\sources\c99\common\doprnt.c: 83:     i = 0;
  8528  0028E4  0E00               	movlw	0
  8529  0028E6  6E19               	movwf	(pad@i+1)^0,c
  8530  0028E8  0E00               	movlw	0
  8531  0028EA  6E18               	movwf	pad@i^0,c
  8532                           
  8533                           ;C:\Program Files\Microchip\xc8\v2.32\pic\sources\c99\common\doprnt.c: 84:     while (i 
      +                          < w) {
  8534  0028EC  EF84  F014         	goto	i2l2714
  8535  0028F0                     i2l2710:
  8536                           
  8537                           ;C:\Program Files\Microchip\xc8\v2.32\pic\sources\c99\common\doprnt.c: 85:         fputc
      +                          (' ', fp);
  8538  0028F0  0E00               	movlw	0
  8539  0028F2  6E02               	movwf	(fputc@c+1)^0,c
  8540  0028F4  0E20               	movlw	32
  8541  0028F6  6E01               	movwf	fputc@c^0,c
  8542  0028F8  C011  F003         	movff	pad@fp,fputc@fp
  8543  0028FC  C012  F004         	movff	pad@fp+1,fputc@fp+1
  8544  002900  ECEA  F013         	call	_fputc	;wreg free
  8545  002904                     
  8546                           ;C:\Program Files\Microchip\xc8\v2.32\pic\sources\c99\common\doprnt.c: 86:         ++i;
  8547  002904  4A18               	infsnz	pad@i^0,f,c
  8548  002906  2A19               	incf	(pad@i+1)^0,f,c
  8549  002908                     i2l2714:
  8550                           
  8551                           ;C:\Program Files\Microchip\xc8\v2.32\pic\sources\c99\common\doprnt.c: 84:     while (i 
      +                          < w) {
  8552  002908  501A               	movf	pad@w^0,w,c
  8553  00290A  5C18               	subwf	pad@i^0,w,c
  8554  00290C  5019               	movf	(pad@i+1)^0,w,c
  8555  00290E  0A80               	xorlw	128
  8556  002910  6E17               	movwf	??_pad^0,c
  8557  002912  501B               	movf	(pad@w+1)^0,w,c
  8558  002914  0A80               	xorlw	128
  8559  002916  5817               	subwfb	??_pad^0,w,c
  8560  002918  A0D8               	btfss	status,0,c
  8561  00291A  EF91  F014         	goto	i2u256_41
  8562  00291E  EF93  F014         	goto	i2u256_40
  8563  002922                     i2u256_41:
  8564  002922  EF78  F014         	goto	i2l2710
  8565  002926                     i2u256_40:
  8566  002926                     
  8567                           ;C:\Program Files\Microchip\xc8\v2.32\pic\sources\c99\common\doprnt.c: 90:     if (!(fla
      +                          gs & (1 << 0))) {
  8568  002926  0100               	movlb	0	; () banked
  8569  002928  B1CB               	btfsc	_flags& (0+255),0,b
  8570  00292A  EF99  F014         	goto	i2u257_41
  8571  00292E  EF9B  F014         	goto	i2u257_40
  8572  002932                     i2u257_41:
  8573  002932  EFA5  F014         	goto	i2l2718
  8574  002936                     i2u257_40:
  8575  002936                     
  8576                           ; BSR set to: 0
  8577                           ;C:\Program Files\Microchip\xc8\v2.32\pic\sources\c99\common\doprnt.c: 91:         fputs
      +                          ((const char *)buf, fp);
  8578  002936  C013  F00A         	movff	pad@buf,fputs@s
  8579  00293A  C014  F00B         	movff	pad@buf+1,fputs@s+1
  8580  00293E  C011  F00C         	movff	pad@fp,fputs@fp
  8581  002942  C012  F00D         	movff	pad@fp+1,fputs@fp+1
  8582  002946  EC9D  F016         	call	_fputs	;wreg free
  8583  00294A                     i2l2718:
  8584                           
  8585                           ;C:\Program Files\Microchip\xc8\v2.32\pic\sources\c99\common\doprnt.c: 94:     return (i
      +                          nt)(strlen(buf) + (size_t)w);
  8586  00294A  C013  F001         	movff	pad@buf,strlen@s
  8587  00294E  C014  F002         	movff	pad@buf+1,strlen@s+1
  8588  002952  EC31  F017         	call	_strlen	;wreg free
  8589  002956  501A               	movf	pad@w^0,w,c
  8590  002958  2401               	addwf	?_strlen^0,w,c
  8591  00295A  6E11               	movwf	?_pad^0,c
  8592  00295C  501B               	movf	(pad@w+1)^0,w,c
  8593  00295E  2002               	addwfc	(?_strlen+1)^0,w,c
  8594  002960  6E12               	movwf	(?_pad+1)^0,c
  8595  002962  0012               	return		;funcret
  8596  002964                     __end_of_pad:
  8597                           	callstack 0
  8598                           
  8599 ;; *************** function _strlen *****************
  8600 ;; Defined at:
  8601 ;;		line 5 in file "C:\Program Files\Microchip\xc8\v2.32\pic\sources\c99\common\strlen.c"
  8602 ;; Parameters:    Size  Location     Type
  8603 ;;  s               2    0[COMRAM] PTR const unsigned char 
  8604 ;;		 -> dbuf(32), 
  8605 ;; Auto vars:     Size  Location     Type
  8606 ;;  a               2    2[COMRAM] PTR const unsigned char 
  8607 ;;		 -> dbuf(32), 
  8608 ;; Return value:  Size  Location     Type
  8609 ;;                  2    0[COMRAM] unsigned int 
  8610 ;; Registers used:
  8611 ;;		wreg, fsr2l, fsr2h, status,2, status,0
  8612 ;; Tracked objects:
  8613 ;;		On entry : 0/0
  8614 ;;		On exit  : 0/0
  8615 ;;		Unchanged: 0/0
  8616 ;; Data sizes:     COMRAM   BANK0   BANK1   BANK2   BANK3   BANK4   BANK5
  8617 ;;      Params:         2       0       0       0       0       0       0
  8618 ;;      Locals:         2       0       0       0       0       0       0
  8619 ;;      Temps:          0       0       0       0       0       0       0
  8620 ;;      Totals:         4       0       0       0       0       0       0
  8621 ;;Total ram usage:        4 bytes
  8622 ;; Hardware stack levels used: 1
  8623 ;; This function calls:
  8624 ;;		Nothing
  8625 ;; This function is called by:
  8626 ;;		_pad
  8627 ;; This function uses a non-reentrant model
  8628 ;;
  8629                           
  8630                           	psect	text19
  8631  002E62                     __ptext19:
  8632                           	callstack 0
  8633  002E62                     _strlen:
  8634                           	callstack 22
  8635  002E62  C001  F003         	movff	strlen@s,strlen@a
  8636  002E66  C002  F004         	movff	strlen@s+1,strlen@a+1
  8637  002E6A  EF39  F017         	goto	i2l2646
  8638  002E6E                     i2l2644:
  8639  002E6E  4A01               	infsnz	strlen@s^0,f,c
  8640  002E70  2A02               	incf	(strlen@s+1)^0,f,c
  8641  002E72                     i2l2646:
  8642  002E72  C001  FFD9         	movff	strlen@s,fsr2l
  8643  002E76  C002  FFDA         	movff	strlen@s+1,fsr2h
  8644  002E7A  50DF               	movf	indf2,w,c
  8645  002E7C  A4D8               	btfss	status,2,c
  8646  002E7E  EF43  F017         	goto	i2u244_41
  8647  002E82  EF45  F017         	goto	i2u244_40
  8648  002E86                     i2u244_41:
  8649  002E86  EF37  F017         	goto	i2l2644
  8650  002E8A                     i2u244_40:
  8651  002E8A  5003               	movf	strlen@a^0,w,c
  8652  002E8C  5C01               	subwf	strlen@s^0,w,c
  8653  002E8E  6E01               	movwf	?_strlen^0,c
  8654  002E90  5004               	movf	(strlen@a+1)^0,w,c
  8655  002E92  5802               	subwfb	(strlen@s+1)^0,w,c
  8656  002E94  6E02               	movwf	(?_strlen+1)^0,c
  8657  002E96  0012               	return		;funcret
  8658  002E98                     __end_of_strlen:
  8659                           	callstack 0
  8660                           
  8661 ;; *************** function _fputs *****************
  8662 ;; Defined at:
  8663 ;;		line 8 in file "C:\Program Files\Microchip\xc8\v2.32\pic\sources\c99\common\nf_fputs.c"
  8664 ;; Parameters:    Size  Location     Type
  8665 ;;  s               2    9[COMRAM] PTR const unsigned char 
  8666 ;;		 -> dbuf(32), 
  8667 ;;  fp              2   11[COMRAM] PTR struct _IO_FILE
  8668 ;;		 -> sprintf@f(6), 
  8669 ;; Auto vars:     Size  Location     Type
  8670 ;;  i               2   14[COMRAM] int 
  8671 ;;  c               1   13[COMRAM] unsigned char 
  8672 ;; Return value:  Size  Location     Type
  8673 ;;                  2    9[COMRAM] int 
  8674 ;; Registers used:
  8675 ;;		wreg, fsr1l, fsr1h, fsr2l, fsr2h, status,2, status,0, cstack
  8676 ;; Tracked objects:
  8677 ;;		On entry : 0/0
  8678 ;;		On exit  : 0/0
  8679 ;;		Unchanged: 0/0
  8680 ;; Data sizes:     COMRAM   BANK0   BANK1   BANK2   BANK3   BANK4   BANK5
  8681 ;;      Params:         4       0       0       0       0       0       0
  8682 ;;      Locals:         3       0       0       0       0       0       0
  8683 ;;      Temps:          0       0       0       0       0       0       0
  8684 ;;      Totals:         7       0       0       0       0       0       0
  8685 ;;Total ram usage:        7 bytes
  8686 ;; Hardware stack levels used: 1
  8687 ;; Hardware stack levels required when called: 2
  8688 ;; This function calls:
  8689 ;;		_fputc
  8690 ;; This function is called by:
  8691 ;;		_pad
  8692 ;; This function uses a non-reentrant model
  8693 ;;
  8694                           
  8695                           	psect	text20
  8696  002D3A                     __ptext20:
  8697                           	callstack 0
  8698  002D3A                     _fputs:
  8699                           	callstack 20
  8700  002D3A  0E00               	movlw	0
  8701  002D3C  6E10               	movwf	(fputs@i+1)^0,c
  8702  002D3E  0E00               	movlw	0
  8703  002D40  6E0F               	movwf	fputs@i^0,c
  8704  002D42  EFAE  F016         	goto	i2l2640
  8705  002D46                     i2l2636:
  8706  002D46  C00E  F001         	movff	fputs@c,fputc@c
  8707  002D4A  6A02               	clrf	(fputc@c+1)^0,c
  8708  002D4C  C00C  F003         	movff	fputs@fp,fputc@fp
  8709  002D50  C00D  F004         	movff	fputs@fp+1,fputc@fp+1
  8710  002D54  ECEA  F013         	call	_fputc	;wreg free
  8711  002D58  4A0F               	infsnz	fputs@i^0,f,c
  8712  002D5A  2A10               	incf	(fputs@i+1)^0,f,c
  8713  002D5C                     i2l2640:
  8714  002D5C  500F               	movf	fputs@i^0,w,c
  8715  002D5E  240A               	addwf	fputs@s^0,w,c
  8716  002D60  6ED9               	movwf	fsr2l,c
  8717  002D62  5010               	movf	(fputs@i+1)^0,w,c
  8718  002D64  200B               	addwfc	(fputs@s+1)^0,w,c
  8719  002D66  6EDA               	movwf	fsr2h,c
  8720  002D68  50DF               	movf	indf2,w,c
  8721  002D6A  6E0E               	movwf	fputs@c^0,c
  8722  002D6C  500E               	movf	fputs@c^0,w,c
  8723  002D6E  A4D8               	btfss	status,2,c
  8724  002D70  EFBC  F016         	goto	i2u243_41
  8725  002D74  EFBE  F016         	goto	i2u243_40
  8726  002D78                     i2u243_41:
  8727  002D78  EFA3  F016         	goto	i2l2636
  8728  002D7C                     i2u243_40:
  8729  002D7C  0012               	return		;funcret
  8730  002D7E                     __end_of_fputs:
  8731                           	callstack 0
  8732                           
  8733 ;; *************** function _fputc *****************
  8734 ;; Defined at:
  8735 ;;		line 8 in file "C:\Program Files\Microchip\xc8\v2.32\pic\sources\c99\common\nf_fputc.c"
  8736 ;; Parameters:    Size  Location     Type
  8737 ;;  c               2    0[COMRAM] int 
  8738 ;;  fp              2    2[COMRAM] PTR struct _IO_FILE
  8739 ;;		 -> sprintf@f(6), 
  8740 ;; Auto vars:     Size  Location     Type
  8741 ;;		None
  8742 ;; Return value:  Size  Location     Type
  8743 ;;                  2    0[COMRAM] int 
  8744 ;; Registers used:
  8745 ;;		wreg, fsr1l, fsr1h, fsr2l, fsr2h, status,2, status,0, cstack
  8746 ;; Tracked objects:
  8747 ;;		On entry : 0/0
  8748 ;;		On exit  : 0/0
  8749 ;;		Unchanged: 0/0
  8750 ;; Data sizes:     COMRAM   BANK0   BANK1   BANK2   BANK3   BANK4   BANK5
  8751 ;;      Params:         4       0       0       0       0       0       0
  8752 ;;      Locals:         0       0       0       0       0       0       0
  8753 ;;      Temps:          5       0       0       0       0       0       0
  8754 ;;      Totals:         9       0       0       0       0       0       0
  8755 ;;Total ram usage:        9 bytes
  8756 ;; Hardware stack levels used: 1
  8757 ;; Hardware stack levels required when called: 1
  8758 ;; This function calls:
  8759 ;;		_putch
  8760 ;; This function is called by:
  8761 ;;		_pad
  8762 ;;		_vfpfcnvrt
  8763 ;;		_fputs
  8764 ;; This function uses a non-reentrant model
  8765 ;;
  8766                           
  8767                           	psect	text21
  8768  0027D4                     __ptext21:
  8769                           	callstack 0
  8770  0027D4                     _fputc:
  8771                           	callstack 20
  8772  0027D4  5003               	movf	fputc@fp^0,w,c
  8773  0027D6  1004               	iorwf	(fputc@fp+1)^0,w,c
  8774  0027D8  B4D8               	btfsc	status,2,c
  8775  0027DA  EFF1  F013         	goto	i2u239_41
  8776  0027DE  EFF3  F013         	goto	i2u239_40
  8777  0027E2                     i2u239_41:
  8778  0027E2  EFFC  F013         	goto	i2l2624
  8779  0027E6                     i2u239_40:
  8780  0027E6  5003               	movf	fputc@fp^0,w,c
  8781  0027E8  1004               	iorwf	(fputc@fp+1)^0,w,c
  8782  0027EA  A4D8               	btfss	status,2,c
  8783  0027EC  EFFA  F013         	goto	i2u240_41
  8784  0027F0  EFFC  F013         	goto	i2u240_40
  8785  0027F4                     i2u240_41:
  8786  0027F4  EF01  F014         	goto	i2l2626
  8787  0027F8                     i2u240_40:
  8788  0027F8                     i2l2624:
  8789  0027F8  5001               	movf	fputc@c^0,w,c
  8790  0027FA  EC62  F017         	call	_putch
  8791  0027FE  EF4E  F014         	goto	i2l1174
  8792  002802                     i2l2626:
  8793  002802  EE20 F004          	lfsr	2,4
  8794  002806  5003               	movf	fputc@fp^0,w,c
  8795  002808  26D9               	addwf	fsr2l,f,c
  8796  00280A  5004               	movf	(fputc@fp+1)^0,w,c
  8797  00280C  22DA               	addwfc	fsr2h,f,c
  8798  00280E  50DE               	movf	postinc2,w,c
  8799  002810  10DE               	iorwf	postinc2,w,c
  8800  002812  B4D8               	btfsc	status,2,c
  8801  002814  EF0E  F014         	goto	i2u241_41
  8802  002818  EF10  F014         	goto	i2u241_40
  8803  00281C                     i2u241_41:
  8804  00281C  EF2B  F014         	goto	i2l2630
  8805  002820                     i2u241_40:
  8806  002820  EE20 F004          	lfsr	2,4
  8807  002824  5003               	movf	fputc@fp^0,w,c
  8808  002826  26D9               	addwf	fsr2l,f,c
  8809  002828  5004               	movf	(fputc@fp+1)^0,w,c
  8810  00282A  22DA               	addwfc	fsr2h,f,c
  8811  00282C  EE10 F002          	lfsr	1,2
  8812  002830  5003               	movf	fputc@fp^0,w,c
  8813  002832  26E1               	addwf	fsr1l,f,c
  8814  002834  5004               	movf	(fputc@fp+1)^0,w,c
  8815  002836  22E2               	addwfc	fsr1h,f,c
  8816  002838  50DE               	movf	postinc2,w,c
  8817  00283A  5CE6               	subwf	postinc1,w,c
  8818  00283C  50E6               	movf	postinc1,w,c
  8819  00283E  0A80               	xorlw	128
  8820  002840  6E09               	movwf	(??_fputc+4)^0,c
  8821  002842  50DE               	movf	postinc2,w,c
  8822  002844  0A80               	xorlw	128
  8823  002846  5809               	subwfb	(??_fputc+4)^0,w,c
  8824  002848  B0D8               	btfsc	status,0,c
  8825  00284A  EF29  F014         	goto	i2u242_41
  8826  00284E  EF2B  F014         	goto	i2u242_40
  8827  002852                     i2u242_41:
  8828  002852  EF4E  F014         	goto	i2l1174
  8829  002856                     i2u242_40:
  8830  002856                     i2l2630:
  8831  002856  EE20 F002          	lfsr	2,2
  8832  00285A  5003               	movf	fputc@fp^0,w,c
  8833  00285C  26D9               	addwf	fsr2l,f,c
  8834  00285E  5004               	movf	(fputc@fp+1)^0,w,c
  8835  002860  22DA               	addwfc	fsr2h,f,c
  8836  002862  CFDE F005          	movff	postinc2,??_fputc
  8837  002866  CFDD F006          	movff	postdec2,??_fputc+1
  8838  00286A  C003  FFD9         	movff	fputc@fp,fsr2l
  8839  00286E  C004  FFDA         	movff	fputc@fp+1,fsr2h
  8840  002872  CFDE F007          	movff	postinc2,??_fputc+2
  8841  002876  CFDD F008          	movff	postdec2,??_fputc+3
  8842  00287A  5005               	movf	??_fputc^0,w,c
  8843  00287C  2407               	addwf	(??_fputc+2)^0,w,c
  8844  00287E  6ED9               	movwf	fsr2l,c
  8845  002880  5006               	movf	(??_fputc+1)^0,w,c
  8846  002882  2008               	addwfc	(??_fputc+3)^0,w,c
  8847  002884  6EDA               	movwf	fsr2h,c
  8848  002886  C001  FFDF         	movff	fputc@c,indf2
  8849  00288A  EE20 F002          	lfsr	2,2
  8850  00288E  5003               	movf	fputc@fp^0,w,c
  8851  002890  26D9               	addwf	fsr2l,f,c
  8852  002892  5004               	movf	(fputc@fp+1)^0,w,c
  8853  002894  22DA               	addwfc	fsr2h,f,c
  8854  002896  2ADE               	incf	postinc2,f,c
  8855  002898  0E00               	movlw	0
  8856  00289A  22DD               	addwfc	postdec2,f,c
  8857  00289C                     i2l1174:
  8858  00289C  0012               	return		;funcret
  8859  00289E                     __end_of_fputc:
  8860                           	callstack 0
  8861                           
  8862 ;; *************** function _putch *****************
  8863 ;; Defined at:
  8864 ;;		line 7 in file "C:\Program Files\Microchip\xc8\v2.32\pic\sources\c99\common\putch.c"
  8865 ;; Parameters:    Size  Location     Type
  8866 ;;  c               1    wreg     unsigned char 
  8867 ;; Auto vars:     Size  Location     Type
  8868 ;;  c               1    0[COMRAM] unsigned char 
  8869 ;; Return value:  Size  Location     Type
  8870 ;;                  1    wreg      void 
  8871 ;; Registers used:
  8872 ;;		wreg
  8873 ;; Tracked objects:
  8874 ;;		On entry : 0/0
  8875 ;;		On exit  : 0/0
  8876 ;;		Unchanged: 0/0
  8877 ;; Data sizes:     COMRAM   BANK0   BANK1   BANK2   BANK3   BANK4   BANK5
  8878 ;;      Params:         0       0       0       0       0       0       0
  8879 ;;      Locals:         0       0       0       0       0       0       0
  8880 ;;      Temps:          0       0       0       0       0       0       0
  8881 ;;      Totals:         0       0       0       0       0       0       0
  8882 ;;Total ram usage:        0 bytes
  8883 ;; Hardware stack levels used: 1
  8884 ;; This function calls:
  8885 ;;		Nothing
  8886 ;; This function is called by:
  8887 ;;		_fputc
  8888 ;; This function uses a non-reentrant model
  8889 ;;
  8890                           
  8891                           	psect	text22
  8892  002EC4                     __ptext22:
  8893                           	callstack 0
  8894  002EC4                     _putch:
  8895                           	callstack 20
  8896  002EC4  0012               	return		;funcret
  8897  002EC6                     __end_of_putch:
  8898                           	callstack 0
  8899                           
  8900 ;; *************** function ___lomod *****************
  8901 ;; Defined at:
  8902 ;;		line 9 in file "C:\Program Files\Microchip\xc8\v2.32\pic\sources\c99\common\lomod.c"
  8903 ;; Parameters:    Size  Location     Type
  8904 ;;  dividend        8    0[COMRAM] unsigned long long 
  8905 ;;  divisor         8    8[COMRAM] unsigned long long 
  8906 ;; Auto vars:     Size  Location     Type
  8907 ;;  counter         1   16[COMRAM] unsigned char 
  8908 ;; Return value:  Size  Location     Type
  8909 ;;                  8    0[COMRAM] unsigned long long 
  8910 ;; Registers used:
  8911 ;;		wreg, status,2, status,0
  8912 ;; Tracked objects:
  8913 ;;		On entry : 0/0
  8914 ;;		On exit  : 0/0
  8915 ;;		Unchanged: 0/0
  8916 ;; Data sizes:     COMRAM   BANK0   BANK1   BANK2   BANK3   BANK4   BANK5
  8917 ;;      Params:        16       0       0       0       0       0       0
  8918 ;;      Locals:         1       0       0       0       0       0       0
  8919 ;;      Temps:          0       0       0       0       0       0       0
  8920 ;;      Totals:        17       0       0       0       0       0       0
  8921 ;;Total ram usage:       17 bytes
  8922 ;; Hardware stack levels used: 1
  8923 ;; This function calls:
  8924 ;;		Nothing
  8925 ;; This function is called by:
  8926 ;;		_utoa
  8927 ;; This function uses a non-reentrant model
  8928 ;;
  8929                           
  8930                           	psect	text23
  8931  002634                     __ptext23:
  8932                           	callstack 0
  8933  002634                     ___lomod:
  8934                           	callstack 23
  8935  002634  5009               	movf	___lomod@divisor^0,w,c
  8936  002636  100A               	iorwf	(___lomod@divisor+1)^0,w,c
  8937  002638  100B               	iorwf	(___lomod@divisor+2)^0,w,c
  8938  00263A  100C               	iorwf	(___lomod@divisor+3)^0,w,c
  8939  00263C  100D               	iorwf	(___lomod@divisor+4)^0,w,c
  8940  00263E  100E               	iorwf	(___lomod@divisor+5)^0,w,c
  8941  002640  100F               	iorwf	(___lomod@divisor+6)^0,w,c
  8942  002642  1010               	iorwf	(___lomod@divisor+7)^0,w,c
  8943  002644  B4D8               	btfsc	status,2,c
  8944  002646  EF27  F013         	goto	i2u251_41
  8945  00264A  EF29  F013         	goto	i2u251_40
  8946  00264E                     i2u251_41:
  8947  00264E  EF71  F013         	goto	i2l753
  8948  002652                     i2u251_40:
  8949  002652  0E01               	movlw	1
  8950  002654  6E11               	movwf	___lomod@counter^0,c
  8951  002656  EF37  F013         	goto	i2l2690
  8952  00265A                     i2l2688:
  8953  00265A  90D8               	bcf	status,0,c
  8954  00265C  3609               	rlcf	___lomod@divisor^0,f,c
  8955  00265E  360A               	rlcf	(___lomod@divisor+1)^0,f,c
  8956  002660  360B               	rlcf	(___lomod@divisor+2)^0,f,c
  8957  002662  360C               	rlcf	(___lomod@divisor+3)^0,f,c
  8958  002664  360D               	rlcf	(___lomod@divisor+4)^0,f,c
  8959  002666  360E               	rlcf	(___lomod@divisor+5)^0,f,c
  8960  002668  360F               	rlcf	(___lomod@divisor+6)^0,f,c
  8961  00266A  3610               	rlcf	(___lomod@divisor+7)^0,f,c
  8962  00266C  2A11               	incf	___lomod@counter^0,f,c
  8963  00266E                     i2l2690:
  8964  00266E  AE10               	btfss	(___lomod@divisor+7)^0,7,c
  8965  002670  EF3C  F013         	goto	i2u252_41
  8966  002674  EF3E  F013         	goto	i2u252_40
  8967  002678                     i2u252_41:
  8968  002678  EF2D  F013         	goto	i2l2688
  8969  00267C                     i2u252_40:
  8970  00267C                     i2l2692:
  8971  00267C  5009               	movf	___lomod@divisor^0,w,c
  8972  00267E  5C01               	subwf	___lomod@dividend^0,w,c
  8973  002680  500A               	movf	(___lomod@divisor+1)^0,w,c
  8974  002682  5802               	subwfb	(___lomod@dividend+1)^0,w,c
  8975  002684  500B               	movf	(___lomod@divisor+2)^0,w,c
  8976  002686  5803               	subwfb	(___lomod@dividend+2)^0,w,c
  8977  002688  500C               	movf	(___lomod@divisor+3)^0,w,c
  8978  00268A  5804               	subwfb	(___lomod@dividend+3)^0,w,c
  8979  00268C  500D               	movf	(___lomod@divisor+4)^0,w,c
  8980  00268E  5805               	subwfb	(___lomod@dividend+4)^0,w,c
  8981  002690  500E               	movf	(___lomod@divisor+5)^0,w,c
  8982  002692  5806               	subwfb	(___lomod@dividend+5)^0,w,c
  8983  002694  500F               	movf	(___lomod@divisor+6)^0,w,c
  8984  002696  5807               	subwfb	(___lomod@dividend+6)^0,w,c
  8985  002698  5010               	movf	(___lomod@divisor+7)^0,w,c
  8986  00269A  5808               	subwfb	(___lomod@dividend+7)^0,w,c
  8987  00269C  A0D8               	btfss	status,0,c
  8988  00269E  EF53  F013         	goto	i2u253_41
  8989  0026A2  EF55  F013         	goto	i2u253_40
  8990  0026A6                     i2u253_41:
  8991  0026A6  EF65  F013         	goto	i2l2696
  8992  0026AA                     i2u253_40:
  8993  0026AA  5009               	movf	___lomod@divisor^0,w,c
  8994  0026AC  5E01               	subwf	___lomod@dividend^0,f,c
  8995  0026AE  500A               	movf	(___lomod@divisor+1)^0,w,c
  8996  0026B0  5A02               	subwfb	(___lomod@dividend+1)^0,f,c
  8997  0026B2  500B               	movf	(___lomod@divisor+2)^0,w,c
  8998  0026B4  5A03               	subwfb	(___lomod@dividend+2)^0,f,c
  8999  0026B6  500C               	movf	(___lomod@divisor+3)^0,w,c
  9000  0026B8  5A04               	subwfb	(___lomod@dividend+3)^0,f,c
  9001  0026BA  500D               	movf	(___lomod@divisor+4)^0,w,c
  9002  0026BC  5A05               	subwfb	(___lomod@dividend+4)^0,f,c
  9003  0026BE  500E               	movf	(___lomod@divisor+5)^0,w,c
  9004  0026C0  5A06               	subwfb	(___lomod@dividend+5)^0,f,c
  9005  0026C2  500F               	movf	(___lomod@divisor+6)^0,w,c
  9006  0026C4  5A07               	subwfb	(___lomod@dividend+6)^0,f,c
  9007  0026C6  5010               	movf	(___lomod@divisor+7)^0,w,c
  9008  0026C8  5A08               	subwfb	(___lomod@dividend+7)^0,f,c
  9009  0026CA                     i2l2696:
  9010  0026CA  90D8               	bcf	status,0,c
  9011  0026CC  3210               	rrcf	(___lomod@divisor+7)^0,f,c
  9012  0026CE  320F               	rrcf	(___lomod@divisor+6)^0,f,c
  9013  0026D0  320E               	rrcf	(___lomod@divisor+5)^0,f,c
  9014  0026D2  320D               	rrcf	(___lomod@divisor+4)^0,f,c
  9015  0026D4  320C               	rrcf	(___lomod@divisor+3)^0,f,c
  9016  0026D6  320B               	rrcf	(___lomod@divisor+2)^0,f,c
  9017  0026D8  320A               	rrcf	(___lomod@divisor+1)^0,f,c
  9018  0026DA  3209               	rrcf	___lomod@divisor^0,f,c
  9019  0026DC  2E11               	decfsz	___lomod@counter^0,f,c
  9020  0026DE  EF3E  F013         	goto	i2l2692
  9021  0026E2                     i2l753:
  9022  0026E2  C001  F001         	movff	___lomod@dividend,?___lomod
  9023  0026E6  C002  F002         	movff	___lomod@dividend+1,?___lomod+1
  9024  0026EA  C003  F003         	movff	___lomod@dividend+2,?___lomod+2
  9025  0026EE  C004  F004         	movff	___lomod@dividend+3,?___lomod+3
  9026  0026F2  C005  F005         	movff	___lomod@dividend+4,?___lomod+4
  9027  0026F6  C006  F006         	movff	___lomod@dividend+5,?___lomod+5
  9028  0026FA  C007  F007         	movff	___lomod@dividend+6,?___lomod+6
  9029  0026FE  C008  F008         	movff	___lomod@dividend+7,?___lomod+7
  9030  002702  0012               	return		;funcret
  9031  002704                     __end_of___lomod:
  9032                           	callstack 0
  9033                           
  9034 ;; *************** function ___lodiv *****************
  9035 ;; Defined at:
  9036 ;;		line 9 in file "C:\Program Files\Microchip\xc8\v2.32\pic\sources\c99\common\lodiv.c"
  9037 ;; Parameters:    Size  Location     Type
  9038 ;;  dividend        8    0[COMRAM] unsigned long long 
  9039 ;;  divisor         8    8[COMRAM] unsigned long long 
  9040 ;; Auto vars:     Size  Location     Type
  9041 ;;  quotient        8   16[COMRAM] unsigned long long 
  9042 ;;  counter         1   24[COMRAM] unsigned char 
  9043 ;; Return value:  Size  Location     Type
  9044 ;;                  8    0[COMRAM] unsigned long long 
  9045 ;; Registers used:
  9046 ;;		wreg, fsr2l, fsr2h, status,2, status,0
  9047 ;; Tracked objects:
  9048 ;;		On entry : 0/0
  9049 ;;		On exit  : 0/0
  9050 ;;		Unchanged: 0/0
  9051 ;; Data sizes:     COMRAM   BANK0   BANK1   BANK2   BANK3   BANK4   BANK5
  9052 ;;      Params:        16       0       0       0       0       0       0
  9053 ;;      Locals:         9       0       0       0       0       0       0
  9054 ;;      Temps:          0       0       0       0       0       0       0
  9055 ;;      Totals:        25       0       0       0       0       0       0
  9056 ;;Total ram usage:       25 bytes
  9057 ;; Hardware stack levels used: 1
  9058 ;; This function calls:
  9059 ;;		Nothing
  9060 ;; This function is called by:
  9061 ;;		_utoa
  9062 ;; This function uses a non-reentrant model
  9063 ;;
  9064                           
  9065                           	psect	text24
  9066  002544                     __ptext24:
  9067                           	callstack 0
  9068  002544                     ___lodiv:
  9069                           	callstack 23
  9070  002544  EE20  F011         	lfsr	2,___lodiv@quotient
  9071  002548  0E07               	movlw	7
  9072  00254A                     i2u247_41:
  9073  00254A  6ADE               	clrf	postinc2,c
  9074  00254C  06E8               	decf	wreg,f,c
  9075  00254E  E2FD               	bc	i2u247_41
  9076  002550  5009               	movf	___lodiv@divisor^0,w,c
  9077  002552  100A               	iorwf	(___lodiv@divisor+1)^0,w,c
  9078  002554  100B               	iorwf	(___lodiv@divisor+2)^0,w,c
  9079  002556  100C               	iorwf	(___lodiv@divisor+3)^0,w,c
  9080  002558  100D               	iorwf	(___lodiv@divisor+4)^0,w,c
  9081  00255A  100E               	iorwf	(___lodiv@divisor+5)^0,w,c
  9082  00255C  100F               	iorwf	(___lodiv@divisor+6)^0,w,c
  9083  00255E  1010               	iorwf	(___lodiv@divisor+7)^0,w,c
  9084  002560  B4D8               	btfsc	status,2,c
  9085  002562  EFB5  F012         	goto	i2u248_41
  9086  002566  EFB7  F012         	goto	i2u248_40
  9087  00256A                     i2u248_41:
  9088  00256A  EF09  F013         	goto	i2l743
  9089  00256E                     i2u248_40:
  9090  00256E  0E01               	movlw	1
  9091  002570  6E19               	movwf	___lodiv@counter^0,c
  9092  002572  EFC5  F012         	goto	i2l2670
  9093  002576                     i2l2668:
  9094  002576  90D8               	bcf	status,0,c
  9095  002578  3609               	rlcf	___lodiv@divisor^0,f,c
  9096  00257A  360A               	rlcf	(___lodiv@divisor+1)^0,f,c
  9097  00257C  360B               	rlcf	(___lodiv@divisor+2)^0,f,c
  9098  00257E  360C               	rlcf	(___lodiv@divisor+3)^0,f,c
  9099  002580  360D               	rlcf	(___lodiv@divisor+4)^0,f,c
  9100  002582  360E               	rlcf	(___lodiv@divisor+5)^0,f,c
  9101  002584  360F               	rlcf	(___lodiv@divisor+6)^0,f,c
  9102  002586  3610               	rlcf	(___lodiv@divisor+7)^0,f,c
  9103  002588  2A19               	incf	___lodiv@counter^0,f,c
  9104  00258A                     i2l2670:
  9105  00258A  AE10               	btfss	(___lodiv@divisor+7)^0,7,c
  9106  00258C  EFCA  F012         	goto	i2u249_41
  9107  002590  EFCC  F012         	goto	i2u249_40
  9108  002594                     i2u249_41:
  9109  002594  EFBB  F012         	goto	i2l2668
  9110  002598                     i2u249_40:
  9111  002598                     i2l2672:
  9112  002598  90D8               	bcf	status,0,c
  9113  00259A  3611               	rlcf	___lodiv@quotient^0,f,c
  9114  00259C  3612               	rlcf	(___lodiv@quotient+1)^0,f,c
  9115  00259E  3613               	rlcf	(___lodiv@quotient+2)^0,f,c
  9116  0025A0  3614               	rlcf	(___lodiv@quotient+3)^0,f,c
  9117  0025A2  3615               	rlcf	(___lodiv@quotient+4)^0,f,c
  9118  0025A4  3616               	rlcf	(___lodiv@quotient+5)^0,f,c
  9119  0025A6  3617               	rlcf	(___lodiv@quotient+6)^0,f,c
  9120  0025A8  3618               	rlcf	(___lodiv@quotient+7)^0,f,c
  9121  0025AA  5009               	movf	___lodiv@divisor^0,w,c
  9122  0025AC  5C01               	subwf	___lodiv@dividend^0,w,c
  9123  0025AE  500A               	movf	(___lodiv@divisor+1)^0,w,c
  9124  0025B0  5802               	subwfb	(___lodiv@dividend+1)^0,w,c
  9125  0025B2  500B               	movf	(___lodiv@divisor+2)^0,w,c
  9126  0025B4  5803               	subwfb	(___lodiv@dividend+2)^0,w,c
  9127  0025B6  500C               	movf	(___lodiv@divisor+3)^0,w,c
  9128  0025B8  5804               	subwfb	(___lodiv@dividend+3)^0,w,c
  9129  0025BA  500D               	movf	(___lodiv@divisor+4)^0,w,c
  9130  0025BC  5805               	subwfb	(___lodiv@dividend+4)^0,w,c
  9131  0025BE  500E               	movf	(___lodiv@divisor+5)^0,w,c
  9132  0025C0  5806               	subwfb	(___lodiv@dividend+5)^0,w,c
  9133  0025C2  500F               	movf	(___lodiv@divisor+6)^0,w,c
  9134  0025C4  5807               	subwfb	(___lodiv@dividend+6)^0,w,c
  9135  0025C6  5010               	movf	(___lodiv@divisor+7)^0,w,c
  9136  0025C8  5808               	subwfb	(___lodiv@dividend+7)^0,w,c
  9137  0025CA  A0D8               	btfss	status,0,c
  9138  0025CC  EFEA  F012         	goto	i2u250_41
  9139  0025D0  EFEC  F012         	goto	i2u250_40
  9140  0025D4                     i2u250_41:
  9141  0025D4  EFFD  F012         	goto	i2l2680
  9142  0025D8                     i2u250_40:
  9143  0025D8  5009               	movf	___lodiv@divisor^0,w,c
  9144  0025DA  5E01               	subwf	___lodiv@dividend^0,f,c
  9145  0025DC  500A               	movf	(___lodiv@divisor+1)^0,w,c
  9146  0025DE  5A02               	subwfb	(___lodiv@dividend+1)^0,f,c
  9147  0025E0  500B               	movf	(___lodiv@divisor+2)^0,w,c
  9148  0025E2  5A03               	subwfb	(___lodiv@dividend+2)^0,f,c
  9149  0025E4  500C               	movf	(___lodiv@divisor+3)^0,w,c
  9150  0025E6  5A04               	subwfb	(___lodiv@dividend+3)^0,f,c
  9151  0025E8  500D               	movf	(___lodiv@divisor+4)^0,w,c
  9152  0025EA  5A05               	subwfb	(___lodiv@dividend+4)^0,f,c
  9153  0025EC  500E               	movf	(___lodiv@divisor+5)^0,w,c
  9154  0025EE  5A06               	subwfb	(___lodiv@dividend+5)^0,f,c
  9155  0025F0  500F               	movf	(___lodiv@divisor+6)^0,w,c
  9156  0025F2  5A07               	subwfb	(___lodiv@dividend+6)^0,f,c
  9157  0025F4  5010               	movf	(___lodiv@divisor+7)^0,w,c
  9158  0025F6  5A08               	subwfb	(___lodiv@dividend+7)^0,f,c
  9159  0025F8  8011               	bsf	___lodiv@quotient^0,0,c
  9160  0025FA                     i2l2680:
  9161  0025FA  90D8               	bcf	status,0,c
  9162  0025FC  3210               	rrcf	(___lodiv@divisor+7)^0,f,c
  9163  0025FE  320F               	rrcf	(___lodiv@divisor+6)^0,f,c
  9164  002600  320E               	rrcf	(___lodiv@divisor+5)^0,f,c
  9165  002602  320D               	rrcf	(___lodiv@divisor+4)^0,f,c
  9166  002604  320C               	rrcf	(___lodiv@divisor+3)^0,f,c
  9167  002606  320B               	rrcf	(___lodiv@divisor+2)^0,f,c
  9168  002608  320A               	rrcf	(___lodiv@divisor+1)^0,f,c
  9169  00260A  3209               	rrcf	___lodiv@divisor^0,f,c
  9170  00260C  2E19               	decfsz	___lodiv@counter^0,f,c
  9171  00260E  EFCC  F012         	goto	i2l2672
  9172  002612                     i2l743:
  9173  002612  C011  F001         	movff	___lodiv@quotient,?___lodiv
  9174  002616  C012  F002         	movff	___lodiv@quotient+1,?___lodiv+1
  9175  00261A  C013  F003         	movff	___lodiv@quotient+2,?___lodiv+2
  9176  00261E  C014  F004         	movff	___lodiv@quotient+3,?___lodiv+3
  9177  002622  C015  F005         	movff	___lodiv@quotient+4,?___lodiv+4
  9178  002626  C016  F006         	movff	___lodiv@quotient+5,?___lodiv+5
  9179  00262A  C017  F007         	movff	___lodiv@quotient+6,?___lodiv+6
  9180  00262E  C018  F008         	movff	___lodiv@quotient+7,?___lodiv+7
  9181  002632  0012               	return		;funcret
  9182  002634                     __end_of___lodiv:
  9183                           	callstack 0
  9184                           
  9185 ;; *************** function _atoi *****************
  9186 ;; Defined at:
  9187 ;;		line 4 in file "C:\Program Files\Microchip\xc8\v2.32\pic\sources\c99\common\atoi.c"
  9188 ;; Parameters:    Size  Location     Type
  9189 ;;  s               2    7[COMRAM] PTR const unsigned char 
  9190 ;;		 -> STR_31(5), STR_29(5), STR_27(5), STR_25(5), 
  9191 ;; Auto vars:     Size  Location     Type
  9192 ;;  n               2   20[COMRAM] int 
  9193 ;;  neg             2   13[COMRAM] int 
  9194 ;; Return value:  Size  Location     Type
  9195 ;;                  2    7[COMRAM] int 
  9196 ;; Registers used:
  9197 ;;		wreg, status,2, status,0, tblptrl, tblptrh, tblptru, prodl, prodh, cstack
  9198 ;; Tracked objects:
  9199 ;;		On entry : 0/0
  9200 ;;		On exit  : 0/0
  9201 ;;		Unchanged: 0/0
  9202 ;; Data sizes:     COMRAM   BANK0   BANK1   BANK2   BANK3   BANK4   BANK5
  9203 ;;      Params:         2       0       0       0       0       0       0
  9204 ;;      Locals:         9       0       0       0       0       0       0
  9205 ;;      Temps:          4       0       0       0       0       0       0
  9206 ;;      Totals:        15       0       0       0       0       0       0
  9207 ;;Total ram usage:       15 bytes
  9208 ;; Hardware stack levels used: 1
  9209 ;; Hardware stack levels required when called: 1
  9210 ;; This function calls:
  9211 ;;		___wmul
  9212 ;;		_isdigit
  9213 ;;		_isspace
  9214 ;; This function is called by:
  9215 ;;		_vfpfcnvrt
  9216 ;; This function uses a non-reentrant model
  9217 ;;
  9218                           
  9219                           	psect	text25
  9220  0022AC                     __ptext25:
  9221                           	callstack 0
  9222  0022AC                     _atoi:
  9223                           	callstack 23
  9224  0022AC  0E00               	movlw	0
  9225  0022AE  6E16               	movwf	(atoi@n+1)^0,c
  9226  0022B0  0E00               	movlw	0
  9227  0022B2  6E15               	movwf	atoi@n^0,c
  9228  0022B4  0E00               	movlw	0
  9229  0022B6  6E0F               	movwf	(atoi@neg+1)^0,c
  9230  0022B8  0E00               	movlw	0
  9231  0022BA  6E0E               	movwf	atoi@neg^0,c
  9232  0022BC  EF62  F011         	goto	i2l2862
  9233  0022C0                     i2l2860:
  9234  0022C0  4A08               	infsnz	atoi@s^0,f,c
  9235  0022C2  2A09               	incf	(atoi@s+1)^0,f,c
  9236  0022C4                     i2l2862:
  9237  0022C4  0E01               	movlw	1
  9238  0022C6  6E14               	movwf	_atoi$980^0,c
  9239  0022C8  C008  FFF6         	movff	atoi@s,tblptrl
  9240  0022CC  C009  FFF7         	movff	atoi@s+1,tblptrh
  9241  0022D0                     	if	0	;tblptru may be non-zero
  9242  0022D0                     	endif
  9243  0022D0                     	if	0	;tblptru may be non-zero
  9244  0022D0                     	endif
  9245  0022D0  0008               	tblrd		*
  9246  0022D2  50F5               	movf	tablat,w,c
  9247  0022D4  0A20               	xorlw	32
  9248  0022D6  B4D8               	btfsc	status,2,c
  9249  0022D8  EF70  F011         	goto	i2u293_41
  9250  0022DC  EF72  F011         	goto	i2u293_40
  9251  0022E0                     i2u293_41:
  9252  0022E0  EF8F  F011         	goto	i2l2870
  9253  0022E4                     i2u293_40:
  9254  0022E4  0EF7               	movlw	247
  9255  0022E6  6E0A               	movwf	??_atoi^0,c
  9256  0022E8  0EFF               	movlw	255
  9257  0022EA  6E0B               	movwf	(??_atoi+1)^0,c
  9258  0022EC  C008  FFF6         	movff	atoi@s,tblptrl
  9259  0022F0  C009  FFF7         	movff	atoi@s+1,tblptrh
  9260  0022F4                     	if	0	;tblptru may be non-zero
  9261  0022F4                     	endif
  9262  0022F4                     	if	0	;tblptru may be non-zero
  9263  0022F4                     	endif
  9264  0022F4  0008               	tblrd		*
  9265  0022F6  50F5               	movf	tablat,w,c
  9266  0022F8  6E0C               	movwf	(??_atoi+2)^0,c
  9267  0022FA  6A0D               	clrf	(??_atoi+3)^0,c
  9268  0022FC  500A               	movf	??_atoi^0,w,c
  9269  0022FE  260C               	addwf	(??_atoi+2)^0,f,c
  9270  002300  500B               	movf	(??_atoi+1)^0,w,c
  9271  002302  220D               	addwfc	(??_atoi+3)^0,f,c
  9272  002304  500D               	movf	(??_atoi+3)^0,w,c
  9273  002306  E109               	bnz	i2u294_40
  9274  002308  0E05               	movlw	5
  9275  00230A  5C0C               	subwf	(??_atoi+2)^0,w,c
  9276  00230C  A0D8               	btfss	status,0,c
  9277  00230E  EF8B  F011         	goto	i2u294_41
  9278  002312  EF8D  F011         	goto	i2u294_40
  9279  002316                     i2u294_41:
  9280  002316  EF8F  F011         	goto	i2l2870
  9281  00231A                     i2u294_40:
  9282  00231A  0E00               	movlw	0
  9283  00231C  6E14               	movwf	_atoi$980^0,c
  9284  00231E                     i2l2870:
  9285  00231E  C014  F010         	movff	_atoi$980,_atoi$979
  9286  002322  6A11               	clrf	(_atoi$979+1)^0,c
  9287  002324  5010               	movf	_atoi$979^0,w,c
  9288  002326  1011               	iorwf	(_atoi$979+1)^0,w,c
  9289  002328  A4D8               	btfss	status,2,c
  9290  00232A  EF99  F011         	goto	i2u295_41
  9291  00232E  EF9B  F011         	goto	i2u295_40
  9292  002332                     i2u295_41:
  9293  002332  EF60  F011         	goto	i2l2860
  9294  002336                     i2u295_40:
  9295  002336  EFA5  F011         	goto	i2l2880
  9296  00233A                     i2l2876:
  9297  00233A  0E00               	movlw	0
  9298  00233C  6E0F               	movwf	(atoi@neg+1)^0,c
  9299  00233E  0E01               	movlw	1
  9300  002340  6E0E               	movwf	atoi@neg^0,c
  9301  002342                     i2l2878:
  9302  002342  4A08               	infsnz	atoi@s^0,f,c
  9303  002344  2A09               	incf	(atoi@s+1)^0,f,c
  9304  002346  EFDA  F011         	goto	i2l2886
  9305  00234A                     i2l2880:
  9306  00234A  C008  FFF6         	movff	atoi@s,tblptrl
  9307  00234E  C009  FFF7         	movff	atoi@s+1,tblptrh
  9308  002352                     	if	0	;tblptru may be non-zero
  9309  002352                     	endif
  9310  002352                     	if	0	;tblptru may be non-zero
  9311  002352                     	endif
  9312  002352  0008               	tblrd		*
  9313  002354  50F5               	movf	tablat,w,c
  9314  002356  6E0A               	movwf	??_atoi^0,c
  9315  002358  6A0B               	clrf	(??_atoi+1)^0,c
  9316                           
  9317                           ; Switch on 2 bytes has been partitioned into a top level switch of size 1, and 1 sub-sw
      +                          itches
  9318                           ; Switch size 1, requested type "simple"
  9319                           ; Number of cases is 1, Range of values is 0 to 0
  9320                           ; switch strategies available:
  9321                           ; Name         Instructions Cycles
  9322                           ; simple_byte            4     3 (average)
  9323                           ;	Chosen strategy is simple_byte
  9324  00235A  500B               	movf	(??_atoi+1)^0,w,c
  9325  00235C  0A00               	xorlw	0	; case 0
  9326  00235E  B4D8               	btfsc	status,2,c
  9327  002360  EFB4  F011         	goto	i2l4044
  9328  002364  EFDA  F011         	goto	i2l2886
  9329  002368                     i2l4044:
  9330                           
  9331                           ; Switch size 1, requested type "simple"
  9332                           ; Number of cases is 2, Range of values is 43 to 45
  9333                           ; switch strategies available:
  9334                           ; Name         Instructions Cycles
  9335                           ; simple_byte            7     4 (average)
  9336                           ;	Chosen strategy is simple_byte
  9337  002368  500A               	movf	??_atoi^0,w,c
  9338  00236A  0A2B               	xorlw	43	; case 43
  9339  00236C  B4D8               	btfsc	status,2,c
  9340  00236E  EFA1  F011         	goto	i2l2878
  9341  002372  0A06               	xorlw	6	; case 45
  9342  002374  B4D8               	btfsc	status,2,c
  9343  002376  EF9D  F011         	goto	i2l2876
  9344  00237A  EFDA  F011         	goto	i2l2886
  9345  00237E                     i2l2882:
  9346  00237E  C015  F001         	movff	atoi@n,___wmul@multiplier
  9347  002382  C016  F002         	movff	atoi@n+1,___wmul@multiplier+1
  9348  002386  0E00               	movlw	0
  9349  002388  6E04               	movwf	(___wmul@multiplicand+1)^0,c
  9350  00238A  0E0A               	movlw	10
  9351  00238C  6E03               	movwf	___wmul@multiplicand^0,c
  9352  00238E  EC4C  F017         	call	___wmul	;wreg free
  9353  002392  C008  FFF6         	movff	atoi@s,tblptrl
  9354  002396  C009  FFF7         	movff	atoi@s+1,tblptrh
  9355  00239A                     	if	0	;tblptru may be non-zero
  9356  00239A                     	endif
  9357  00239A                     	if	0	;tblptru may be non-zero
  9358  00239A                     	endif
  9359  00239A  0008               	tblrd		*
  9360  00239C  50F5               	movf	tablat,w,c
  9361  00239E  5E01               	subwf	?___wmul^0,f,c
  9362  0023A0  0E00               	movlw	0
  9363  0023A2  5A02               	subwfb	(?___wmul+1)^0,f,c
  9364  0023A4  0E30               	movlw	48
  9365  0023A6  2401               	addwf	?___wmul^0,w,c
  9366  0023A8  6E15               	movwf	atoi@n^0,c
  9367  0023AA  0E00               	movlw	0
  9368  0023AC  2002               	addwfc	(?___wmul+1)^0,w,c
  9369  0023AE  6E16               	movwf	(atoi@n+1)^0,c
  9370  0023B0  EFA1  F011         	goto	i2l2878
  9371  0023B4                     i2l2886:
  9372  0023B4  0ED0               	movlw	208
  9373  0023B6  6E0A               	movwf	??_atoi^0,c
  9374  0023B8  0EFF               	movlw	255
  9375  0023BA  6E0B               	movwf	(??_atoi+1)^0,c
  9376  0023BC  C008  FFF6         	movff	atoi@s,tblptrl
  9377  0023C0  C009  FFF7         	movff	atoi@s+1,tblptrh
  9378  0023C4                     	if	0	;tblptru may be non-zero
  9379  0023C4                     	endif
  9380  0023C4                     	if	0	;tblptru may be non-zero
  9381  0023C4                     	endif
  9382  0023C4  0008               	tblrd		*
  9383  0023C6  50F5               	movf	tablat,w,c
  9384  0023C8  6E0C               	movwf	(??_atoi+2)^0,c
  9385  0023CA  6A0D               	clrf	(??_atoi+3)^0,c
  9386  0023CC  500A               	movf	??_atoi^0,w,c
  9387  0023CE  260C               	addwf	(??_atoi+2)^0,f,c
  9388  0023D0  500B               	movf	(??_atoi+1)^0,w,c
  9389  0023D2  220D               	addwfc	(??_atoi+3)^0,f,c
  9390  0023D4  500D               	movf	(??_atoi+3)^0,w,c
  9391  0023D6  E10A               	bnz	i2u296_40
  9392  0023D8  0E0A               	movlw	10
  9393  0023DA  5C0C               	subwf	(??_atoi+2)^0,w,c
  9394  0023DC  A0D8               	btfss	status,0,c
  9395  0023DE  EFF3  F011         	goto	i2u296_41
  9396  0023E2  EFF6  F011         	goto	i2u296_40
  9397  0023E6                     i2u296_41:
  9398  0023E6  0E01               	movlw	1
  9399  0023E8  EFF7  F011         	goto	i2u297_40
  9400  0023EC                     i2u296_40:
  9401  0023EC  0E00               	movlw	0
  9402  0023EE                     i2u297_40:
  9403  0023EE  6E12               	movwf	_atoi$981^0,c
  9404  0023F0  6A13               	clrf	(_atoi$981+1)^0,c
  9405  0023F2  5012               	movf	_atoi$981^0,w,c
  9406  0023F4  1013               	iorwf	(_atoi$981+1)^0,w,c
  9407  0023F6  A4D8               	btfss	status,2,c
  9408  0023F8  EF00  F012         	goto	i2u298_41
  9409  0023FC  EF02  F012         	goto	i2u298_40
  9410  002400                     i2u298_41:
  9411  002400  EFBF  F011         	goto	i2l2882
  9412  002404                     i2u298_40:
  9413  002404  500E               	movf	atoi@neg^0,w,c
  9414  002406  100F               	iorwf	(atoi@neg+1)^0,w,c
  9415  002408  A4D8               	btfss	status,2,c
  9416  00240A  EF09  F012         	goto	i2u299_41
  9417  00240E  EF0B  F012         	goto	i2u299_40
  9418  002412                     i2u299_41:
  9419  002412  EF19  F012         	goto	i2l1133
  9420  002416                     i2u299_40:
  9421  002416  C015  F00A         	movff	atoi@n,??_atoi
  9422  00241A  C016  F00B         	movff	atoi@n+1,??_atoi+1
  9423  00241E  1E0A               	comf	??_atoi^0,f,c
  9424  002420  1E0B               	comf	(??_atoi+1)^0,f,c
  9425  002422  4A0A               	infsnz	??_atoi^0,f,c
  9426  002424  2A0B               	incf	(??_atoi+1)^0,f,c
  9427  002426  C00A  F008         	movff	??_atoi,?_atoi
  9428  00242A  C00B  F009         	movff	??_atoi+1,?_atoi+1
  9429  00242E  EF1D  F012         	goto	i2l1136
  9430  002432                     i2l1133:
  9431  002432  C015  F008         	movff	atoi@n,?_atoi
  9432  002436  C016  F009         	movff	atoi@n+1,?_atoi+1
  9433  00243A                     i2l1136:
  9434  00243A  0012               	return		;funcret
  9435  00243C                     __end_of_atoi:
  9436                           	callstack 0
  9437                           
  9438 ;; *************** function _isspace *****************
  9439 ;; Defined at:
  9440 ;;		line 5 in file "C:\Program Files\Microchip\xc8\v2.32\pic\sources\c99\common\isspace.c"
  9441 ;; Parameters:    Size  Location     Type
  9442 ;;  c               2    0[COMRAM] int 
  9443 ;; Auto vars:     Size  Location     Type
  9444 ;;		None
  9445 ;; Return value:  Size  Location     Type
  9446 ;;                  2    0[COMRAM] int 
  9447 ;; Registers used:
  9448 ;;		wreg, status,2, status,0
  9449 ;; Tracked objects:
  9450 ;;		On entry : 0/0
  9451 ;;		On exit  : 0/0
  9452 ;;		Unchanged: 0/0
  9453 ;; Data sizes:     COMRAM   BANK0   BANK1   BANK2   BANK3   BANK4   BANK5
  9454 ;;      Params:         2       0       0       0       0       0       0
  9455 ;;      Locals:         1       0       0       0       0       0       0
  9456 ;;      Temps:          4       0       0       0       0       0       0
  9457 ;;      Totals:         7       0       0       0       0       0       0
  9458 ;;Total ram usage:        7 bytes
  9459 ;; Hardware stack levels used: 1
  9460 ;; This function calls:
  9461 ;;		Nothing
  9462 ;; This function is called by:
  9463 ;;		_atoi
  9464 ;; This function uses a non-reentrant model
  9465 ;;
  9466                           
  9467                           	psect	text26
  9468  002CE8                     __ptext26:
  9469                           	callstack 0
  9470  002CE8                     _isspace:
  9471                           	callstack 23
  9472  002CE8  0E01               	movlw	1
  9473  002CEA  6E07               	movwf	_isspace$1006^0,c
  9474  002CEC  0E20               	movlw	32
  9475  002CEE  1801               	xorwf	isspace@c^0,w,c
  9476  002CF0  1002               	iorwf	(isspace@c+1)^0,w,c
  9477  002CF2  B4D8               	btfsc	status,2,c
  9478  002CF4  EF7E  F016         	goto	i2u267_41
  9479  002CF8  EF80  F016         	goto	i2u267_40
  9480  002CFC                     i2u267_41:
  9481  002CFC  EF99  F016         	goto	i2l2752
  9482  002D00                     i2u267_40:
  9483  002D00  0EF7               	movlw	247
  9484  002D02  6E03               	movwf	??_isspace^0,c
  9485  002D04  0EFF               	movlw	255
  9486  002D06  6E04               	movwf	(??_isspace+1)^0,c
  9487  002D08  C001  F005         	movff	isspace@c,??_isspace+2
  9488  002D0C  C002  F006         	movff	isspace@c+1,??_isspace+3
  9489  002D10  5003               	movf	??_isspace^0,w,c
  9490  002D12  2605               	addwf	(??_isspace+2)^0,f,c
  9491  002D14  5004               	movf	(??_isspace+1)^0,w,c
  9492  002D16  2206               	addwfc	(??_isspace+3)^0,f,c
  9493  002D18  5006               	movf	(??_isspace+3)^0,w,c
  9494  002D1A  E109               	bnz	i2u268_40
  9495  002D1C  0E05               	movlw	5
  9496  002D1E  5C05               	subwf	(??_isspace+2)^0,w,c
  9497  002D20  A0D8               	btfss	status,0,c
  9498  002D22  EF95  F016         	goto	i2u268_41
  9499  002D26  EF97  F016         	goto	i2u268_40
  9500  002D2A                     i2u268_41:
  9501  002D2A  EF99  F016         	goto	i2l2752
  9502  002D2E                     i2u268_40:
  9503  002D2E  0E00               	movlw	0
  9504  002D30  6E07               	movwf	_isspace$1006^0,c
  9505  002D32                     i2l2752:
  9506  002D32  C007  F001         	movff	_isspace$1006,?_isspace
  9507  002D36  6A02               	clrf	(?_isspace+1)^0,c
  9508  002D38  0012               	return		;funcret
  9509  002D3A                     __end_of_isspace:
  9510                           	callstack 0
  9511                           
  9512 ;; *************** function _isdigit *****************
  9513 ;; Defined at:
  9514 ;;		line 5 in file "C:\Program Files\Microchip\xc8\v2.32\pic\sources\c99\common\isdigit.c"
  9515 ;; Parameters:    Size  Location     Type
  9516 ;;  c               2    0[COMRAM] int 
  9517 ;; Auto vars:     Size  Location     Type
  9518 ;;		None
  9519 ;; Return value:  Size  Location     Type
  9520 ;;                  2    0[COMRAM] int 
  9521 ;; Registers used:
  9522 ;;		wreg, status,2, status,0
  9523 ;; Tracked objects:
  9524 ;;		On entry : 0/0
  9525 ;;		On exit  : 0/0
  9526 ;;		Unchanged: 0/0
  9527 ;; Data sizes:     COMRAM   BANK0   BANK1   BANK2   BANK3   BANK4   BANK5
  9528 ;;      Params:         2       0       0       0       0       0       0
  9529 ;;      Locals:         0       0       0       0       0       0       0
  9530 ;;      Temps:          4       0       0       0       0       0       0
  9531 ;;      Totals:         6       0       0       0       0       0       0
  9532 ;;Total ram usage:        6 bytes
  9533 ;; Hardware stack levels used: 1
  9534 ;; This function calls:
  9535 ;;		Nothing
  9536 ;; This function is called by:
  9537 ;;		_vfpfcnvrt
  9538 ;;		_atoi
  9539 ;; This function uses a non-reentrant model
  9540 ;;
  9541                           
  9542                           	psect	text27
  9543  002E2A                     __ptext27:
  9544                           	callstack 0
  9545  002E2A                     _isdigit:
  9546                           	callstack 24
  9547  002E2A  0ED0               	movlw	208
  9548  002E2C  6E03               	movwf	??_isdigit^0,c
  9549  002E2E  0EFF               	movlw	255
  9550  002E30  6E04               	movwf	(??_isdigit+1)^0,c
  9551  002E32  C001  F005         	movff	isdigit@c,??_isdigit+2
  9552  002E36  C002  F006         	movff	isdigit@c+1,??_isdigit+3
  9553  002E3A  5003               	movf	??_isdigit^0,w,c
  9554  002E3C  2605               	addwf	(??_isdigit+2)^0,f,c
  9555  002E3E  5004               	movf	(??_isdigit+1)^0,w,c
  9556  002E40  2206               	addwfc	(??_isdigit+3)^0,f,c
  9557  002E42  5006               	movf	(??_isdigit+3)^0,w,c
  9558  002E44  E10A               	bnz	i2u265_40
  9559  002E46  0E0A               	movlw	10
  9560  002E48  5C05               	subwf	(??_isdigit+2)^0,w,c
  9561  002E4A  A0D8               	btfss	status,0,c
  9562  002E4C  EF2A  F017         	goto	i2u265_41
  9563  002E50  EF2D  F017         	goto	i2u265_40
  9564  002E54                     i2u265_41:
  9565  002E54  0E01               	movlw	1
  9566  002E56  EF2E  F017         	goto	i2u266_40
  9567  002E5A                     i2u265_40:
  9568  002E5A  0E00               	movlw	0
  9569  002E5C                     i2u266_40:
  9570  002E5C  6E01               	movwf	?_isdigit^0,c
  9571  002E5E  6A02               	clrf	(?_isdigit+1)^0,c
  9572  002E60  0012               	return		;funcret
  9573  002E62                     __end_of_isdigit:
  9574                           	callstack 0
  9575                           
  9576 ;; *************** function ___wmul *****************
  9577 ;; Defined at:
  9578 ;;		line 15 in file "C:\Program Files\Microchip\xc8\v2.32\pic\sources\c99\common\Umul16.c"
  9579 ;; Parameters:    Size  Location     Type
  9580 ;;  multiplier      2    0[COMRAM] unsigned int 
  9581 ;;  multiplicand    2    2[COMRAM] unsigned int 
  9582 ;; Auto vars:     Size  Location     Type
  9583 ;;  product         2    4[COMRAM] unsigned int 
  9584 ;; Return value:  Size  Location     Type
  9585 ;;                  2    0[COMRAM] unsigned int 
  9586 ;; Registers used:
  9587 ;;		wreg, status,2, status,0, prodl, prodh
  9588 ;; Tracked objects:
  9589 ;;		On entry : 0/0
  9590 ;;		On exit  : 0/0
  9591 ;;		Unchanged: 0/0
  9592 ;; Data sizes:     COMRAM   BANK0   BANK1   BANK2   BANK3   BANK4   BANK5
  9593 ;;      Params:         4       0       0       0       0       0       0
  9594 ;;      Locals:         2       0       0       0       0       0       0
  9595 ;;      Temps:          0       0       0       0       0       0       0
  9596 ;;      Totals:         6       0       0       0       0       0       0
  9597 ;;Total ram usage:        6 bytes
  9598 ;; Hardware stack levels used: 1
  9599 ;; This function calls:
  9600 ;;		Nothing
  9601 ;; This function is called by:
  9602 ;;		_atoi
  9603 ;; This function uses a non-reentrant model
  9604 ;;
  9605                           
  9606                           	psect	text28
  9607  002E98                     __ptext28:
  9608                           	callstack 0
  9609  002E98                     ___wmul:
  9610                           	callstack 23
  9611  002E98  5001               	movf	___wmul@multiplier^0,w,c
  9612  002E9A  0203               	mulwf	___wmul@multiplicand^0,c
  9613  002E9C  CFF3 F005          	movff	prodl,___wmul@product
  9614  002EA0  CFF4 F006          	movff	prodh,___wmul@product+1
  9615  002EA4  5001               	movf	___wmul@multiplier^0,w,c
  9616  002EA6  0204               	mulwf	(___wmul@multiplicand+1)^0,c
  9617  002EA8  50F3               	movf	243,w,c
  9618  002EAA  2606               	addwf	(___wmul@product+1)^0,f,c
  9619  002EAC  5002               	movf	(___wmul@multiplier+1)^0,w,c
  9620  002EAE  0203               	mulwf	___wmul@multiplicand^0,c
  9621  002EB0  50F3               	movf	243,w,c
  9622  002EB2  2606               	addwf	(___wmul@product+1)^0,f,c
  9623  002EB4  C005  F001         	movff	___wmul@product,?___wmul
  9624  002EB8  C006  F002         	movff	___wmul@product+1,?___wmul+1
  9625  002EBC  0012               	return		;funcret
  9626  002EBE                     __end_of___wmul:
  9627                           	callstack 0
  9628                           
  9629                           	psect	rparam
  9630  0000                     
  9631                           	psect	temp
  9632  00007F                     btemp:
  9633                           	callstack 0
  9634  00007F                     	ds	1
  9635  0000                     int$flags	set	btemp
  9636  0000                     wtemp8	set	btemp+1
  9637  0000                     ttemp5	set	btemp+1
  9638  0000                     ttemp6	set	btemp+4
  9639  0000                     ttemp7	set	btemp+8
  9640                           
  9641                           	psect	idloc
  9642                           
  9643                           ;Config register IDLOC0 @ 0x200000
  9644                           ;	unspecified, using default values
  9645  200000                     	org	2097152
  9646  200000  FF                 	db	255
  9647                           
  9648                           ;Config register IDLOC1 @ 0x200001
  9649                           ;	unspecified, using default values
  9650  200001                     	org	2097153
  9651  200001  FF                 	db	255
  9652                           
  9653                           ;Config register IDLOC2 @ 0x200002
  9654                           ;	unspecified, using default values
  9655  200002                     	org	2097154
  9656  200002  FF                 	db	255
  9657                           
  9658                           ;Config register IDLOC3 @ 0x200003
  9659                           ;	unspecified, using default values
  9660  200003                     	org	2097155
  9661  200003  FF                 	db	255
  9662                           
  9663                           ;Config register IDLOC4 @ 0x200004
  9664                           ;	unspecified, using default values
  9665  200004                     	org	2097156
  9666  200004  FF                 	db	255
  9667                           
  9668                           ;Config register IDLOC5 @ 0x200005
  9669                           ;	unspecified, using default values
  9670  200005                     	org	2097157
  9671  200005  FF                 	db	255
  9672                           
  9673                           ;Config register IDLOC6 @ 0x200006
  9674                           ;	unspecified, using default values
  9675  200006                     	org	2097158
  9676  200006  FF                 	db	255
  9677                           
  9678                           ;Config register IDLOC7 @ 0x200007
  9679                           ;	unspecified, using default values
  9680  200007                     	org	2097159
  9681  200007  FF                 	db	255
  9682                           
  9683                           	psect	config
  9684                           
  9685                           ; Padding undefined space
  9686  300000                     	org	3145728
  9687  300000  FF                 	db	255
  9688                           
  9689                           ;Config register CONFIG1H @ 0x300001
  9690                           ;	Oscillator Selection bits
  9691                           ;	OSC = INTIO67, Internal oscillator block, port function on RA6 and RA7
  9692                           ;	Fail-Safe Clock Monitor Enable bit
  9693                           ;	FCMEN = OFF, Fail-Safe Clock Monitor disabled
  9694                           ;	Internal/External Oscillator Switchover bit
  9695                           ;	IESO = OFF, Oscillator Switchover mode disabled
  9696  300001                     	org	3145729
  9697  300001  08                 	db	8
  9698                           
  9699                           ;Config register CONFIG2L @ 0x300002
  9700                           ;	Power-up Timer Enable bit
  9701                           ;	PWRT = OFF, PWRT disabled
  9702                           ;	Brown-out Reset Enable bits
  9703                           ;	BOREN = OFF, Brown-out Reset disabled in hardware and software
  9704                           ;	Brown Out Reset Voltage bits
  9705                           ;	BORV = 3, Minimum setting
  9706  300002                     	org	3145730
  9707  300002  19                 	db	25
  9708                           
  9709                           ;Config register CONFIG2H @ 0x300003
  9710                           ;	Watchdog Timer Enable bit
  9711                           ;	WDT = OFF, WDT disabled (control is placed on the SWDTEN bit)
  9712                           ;	Watchdog Timer Postscale Select bits
  9713                           ;	WDTPS = 32768, 1:32768
  9714  300003                     	org	3145731
  9715  300003  1E                 	db	30
  9716                           
  9717                           ; Padding undefined space
  9718  300004                     	org	3145732
  9719  300004  FF                 	db	255
  9720                           
  9721                           ;Config register CONFIG3H @ 0x300005
  9722                           ;	CCP2 MUX bit
  9723                           ;	CCP2MX = PORTC, CCP2 input/output is multiplexed with RC1
  9724                           ;	PORTB A/D Enable bit
  9725                           ;	PBADEN = OFF, PORTB<4:0> pins are configured as digital I/O on Reset
  9726                           ;	Low-Power Timer1 Oscillator Enable bit
  9727                           ;	LPT1OSC = OFF, Timer1 configured for higher power operation
  9728                           ;	MCLR Pin Enable bit
  9729                           ;	MCLRE = OFF, RE3 input pin enabled; MCLR disabled
  9730  300005                     	org	3145733
  9731  300005  01                 	db	1
  9732                           
  9733                           ;Config register CONFIG4L @ 0x300006
  9734                           ;	Stack Full/Underflow Reset Enable bit
  9735                           ;	STVREN = ON, Stack full/underflow will cause Reset
  9736                           ;	Single-Supply ICSP Enable bit
  9737                           ;	LVP = ON, Single-Supply ICSP enabled
  9738                           ;	Extended Instruction Set Enable bit
  9739                           ;	XINST = OFF, Instruction set extension and Indexed Addressing mode disabled (Legacy mo
      +                          de)
  9740                           ;	Background Debugger Enable bit
  9741                           ;	DEBUG = 0x1, unprogrammed default
  9742  300006                     	org	3145734
  9743  300006  85                 	db	133
  9744                           
  9745                           ; Padding undefined space
  9746  300007                     	org	3145735
  9747  300007  FF                 	db	255
  9748                           
  9749                           ;Config register CONFIG5L @ 0x300008
  9750                           ;	Code Protection bit
  9751                           ;	CP0 = ON, Block 0 (000800-001FFFh) code-protected
  9752                           ;	Code Protection bit
  9753                           ;	CP1 = ON, Block 1 (002000-003FFFh) code-protected
  9754                           ;	Code Protection bit
  9755                           ;	CP2 = ON, Block 2 (004000-005FFFh) code-protected
  9756                           ;	Code Protection bit
  9757                           ;	CP3 = ON, Block 3 (006000-007FFFh) code-protected
  9758  300008                     	org	3145736
  9759  300008  00                 	db	0
  9760                           
  9761                           ;Config register CONFIG5H @ 0x300009
  9762                           ;	Boot Block Code Protection bit
  9763                           ;	CPB = OFF, Boot block (000000-0007FFh) not code-protected
  9764                           ;	Data EEPROM Code Protection bit
  9765                           ;	CPD = OFF, Data EEPROM not code-protected
  9766  300009                     	org	3145737
  9767  300009  C0                 	db	192
  9768                           
  9769                           ;Config register CONFIG6L @ 0x30000A
  9770                           ;	Write Protection bit
  9771                           ;	WRT0 = OFF, Block 0 (000800-001FFFh) not write-protected
  9772                           ;	Write Protection bit
  9773                           ;	WRT1 = OFF, Block 1 (002000-003FFFh) not write-protected
  9774                           ;	Write Protection bit
  9775                           ;	WRT2 = OFF, Block 2 (004000-005FFFh) not write-protected
  9776                           ;	Write Protection bit
  9777                           ;	WRT3 = OFF, Block 3 (006000-007FFFh) not write-protected
  9778  30000A                     	org	3145738
  9779  30000A  0F                 	db	15
  9780                           
  9781                           ;Config register CONFIG6H @ 0x30000B
  9782                           ;	Configuration Register Write Protection bit
  9783                           ;	WRTC = OFF, Configuration registers (300000-3000FFh) not write-protected
  9784                           ;	Boot Block Write Protection bit
  9785                           ;	WRTB = OFF, Boot block (000000-0007FFh) not write-protected
  9786                           ;	Data EEPROM Write Protection bit
  9787                           ;	WRTD = OFF, Data EEPROM not write-protected
  9788  30000B                     	org	3145739
  9789  30000B  E0                 	db	224
  9790                           
  9791                           ;Config register CONFIG7L @ 0x30000C
  9792                           ;	Table Read Protection bit
  9793                           ;	EBTR0 = OFF, Block 0 (000800-001FFFh) not protected from table reads executed in other
      +                           blocks
  9794                           ;	Table Read Protection bit
  9795                           ;	EBTR1 = OFF, Block 1 (002000-003FFFh) not protected from table reads executed in other
      +                           blocks
  9796                           ;	Table Read Protection bit
  9797                           ;	EBTR2 = OFF, Block 2 (004000-005FFFh) not protected from table reads executed in other
      +                           blocks
  9798                           ;	Table Read Protection bit
  9799                           ;	EBTR3 = OFF, Block 3 (006000-007FFFh) not protected from table reads executed in other
      +                           blocks
  9800  30000C                     	org	3145740
  9801  30000C  0F                 	db	15
  9802                           
  9803                           ;Config register CONFIG7H @ 0x30000D
  9804                           ;	Boot Block Table Read Protection bit
  9805                           ;	EBTRB = OFF, Boot block (000000-0007FFh) not protected from table reads executed in ot
      +                          her blocks
  9806  30000D                     	org	3145741
  9807  30000D  40                 	db	64
  9808                           tosu	equ	0xFFF
  9809                           tosh	equ	0xFFE
  9810                           tosl	equ	0xFFD
  9811                           stkptr	equ	0xFFC
  9812                           pclatu	equ	0xFFB
  9813                           pclath	equ	0xFFA
  9814                           pcl	equ	0xFF9
  9815                           tblptru	equ	0xFF8
  9816                           tblptrh	equ	0xFF7
  9817                           tblptrl	equ	0xFF6
  9818                           tablat	equ	0xFF5
  9819                           prodh	equ	0xFF4
  9820                           prodl	equ	0xFF3
  9821                           indf0	equ	0xFEF
  9822                           postinc0	equ	0xFEE
  9823                           postdec0	equ	0xFED
  9824                           preinc0	equ	0xFEC
  9825                           plusw0	equ	0xFEB
  9826                           fsr0h	equ	0xFEA
  9827                           fsr0l	equ	0xFE9
  9828                           wreg	equ	0xFE8
  9829                           indf1	equ	0xFE7
  9830                           postinc1	equ	0xFE6
  9831                           postdec1	equ	0xFE5
  9832                           preinc1	equ	0xFE4
  9833                           plusw1	equ	0xFE3
  9834                           fsr1h	equ	0xFE2
  9835                           fsr1l	equ	0xFE1
  9836                           bsr	equ	0xFE0
  9837                           indf2	equ	0xFDF
  9838                           postinc2	equ	0xFDE
  9839                           postdec2	equ	0xFDD
  9840                           preinc2	equ	0xFDC
  9841                           plusw2	equ	0xFDB
  9842                           fsr2h	equ	0xFDA
  9843                           fsr2l	equ	0xFD9
  9844                           status	equ	0xFD8

Data Sizes:
    Strings     451
    Constant    0
    Data        319
    BSS         77
    Persistent  32
    Stack       0

Auto Spaces:
    Space          Size  Autos    Used
    COMRAM          126    126     126
    BANK0           128     69     127
    BANK1           256      0     255
    BANK2           256      0     115
    BANK3           256      0       0
    BANK4           256      0       0
    BANK5           256      0       0

Pointer List with Targets:

    strlen@s	PTR const unsigned char  size(2) Largest target is 32
		 -> dbuf(BANK1[32]), 

    strlen@a	PTR const unsigned char  size(2) Largest target is 32
		 -> dbuf(BANK1[32]), 

    fputs@s	PTR const unsigned char  size(2) Largest target is 32
		 -> dbuf(BANK1[32]), 

    fputs@fp	PTR struct _IO_FILE size(2) Largest target is 7
		 -> sprintf@f(COMRAM[6]), 

    fputc@fp.buffer	PTR unsigned char  size(2) Largest target is 5
		 -> txt(BANK0[5]), 

    fputc@fp	PTR struct _IO_FILE size(2) Largest target is 7
		 -> sprintf@f(COMRAM[6]), 

    atoi@s	PTR const unsigned char  size(2) Largest target is 5
		 -> STR_31(CODE[5]), STR_29(CODE[5]), STR_27(CODE[5]), STR_25(CODE[5]), 

    vfprintf@ap	PTR PTR void  size(2) Largest target is 2
		 -> sprintf@ap(COMRAM[2]), 

    vfprintf@fp	PTR struct _IO_FILE size(2) Largest target is 7
		 -> sprintf@f(COMRAM[6]), 

    vfprintf@fmt	PTR const unsigned char  size(2) Largest target is 5
		 -> STR_31(CODE[5]), STR_29(CODE[5]), STR_27(CODE[5]), STR_25(CODE[5]), 

    vfprintf@cfmt	PTR unsigned char  size(2) Largest target is 5
		 -> STR_31(CODE[5]), STR_29(CODE[5]), STR_27(CODE[5]), STR_25(CODE[5]), 

    vfpfcnvrt@fp	PTR struct _IO_FILE size(2) Largest target is 7
		 -> sprintf@f(COMRAM[6]), 

    vfpfcnvrt@ap	PTR PTR void  size(2) Largest target is 2
		 -> sprintf@ap(COMRAM[2]), 

    vfpfcnvrt@fmt	PTR PTR unsigned char  size(2) Largest target is 2
		 -> vfprintf@cfmt(COMRAM[2]), 

    xtoa@fp	PTR struct _IO_FILE size(2) Largest target is 7
		 -> sprintf@f(COMRAM[6]), 

    utoa@fp	PTR struct _IO_FILE size(2) Largest target is 7
		 -> sprintf@f(COMRAM[6]), 

    pad@fp	PTR struct _IO_FILE size(2) Largest target is 7
		 -> sprintf@f(COMRAM[6]), 

    pad@buf	PTR unsigned char  size(2) Largest target is 32
		 -> dbuf(BANK1[32]), 

    sprintf@fmt	PTR const unsigned char  size(2) Largest target is 5
		 -> STR_31(CODE[5]), STR_29(CODE[5]), STR_27(CODE[5]), STR_25(CODE[5]), 

    sprintf@s	PTR unsigned char  size(2) Largest target is 5
		 -> txt(BANK0[5]), 

    sprintf@ap	PTR void [1] size(2) Largest target is 2
		 -> ?_sprintf(COMRAM[2]), 

    S843_IO_FILE$buffer	PTR unsigned char  size(2) Largest target is 5
		 -> txt(BANK0[5]), 

    f.buffer	PTR unsigned char  size(2) Largest target is 5
		 -> txt(BANK0[5]), 

    USART_EnviaMsg@msgout	PTR unsigned char  size(2) Largest target is 107
		 -> STR_34(CODE[5]), STR_33(CODE[7]), STR_32(CODE[43]), MsgAyuda(BANK2[107]), 
		 -> STR_30(CODE[7]), STR_28(CODE[7]), STR_26(CODE[10]), txt(BANK0[5]), 
		 -> STR_24(CODE[13]), MsgPersonalidad2(BANK1[29]), MsgPersonalidad1(BANK1[26]), MsgVersion(BANK1[20]), 
		 -> STR_23(CODE[44]), STR_22(CODE[20]), STR_21(CODE[24]), STR_20(CODE[29]), 
		 -> STR_19(CODE[11]), STR_18(CODE[30]), STR_17(CODE[12]), STR_16(CODE[22]), 
		 -> STR_15(CODE[22]), STR_14(CODE[22]), STR_13(CODE[20]), STR_12(CODE[30]), 
		 -> STR_11(CODE[12]), STR_10(CODE[33]), STR_9(CODE[19]), STR_8(CODE[2]), 
		 -> STR_7(CODE[20]), STR_6(CODE[2]), STR_5(CODE[20]), STR_4(CODE[33]), 
		 -> STR_3(CODE[21]), CRLF(BANK0[3]), STR_2(CODE[2]), STR_1(CODE[2]), 


Critical Paths under _main in COMRAM

    None.

Critical Paths under _isr in COMRAM

    _isr->_sprintf
    _sprintf->_vfprintf
    _vfprintf->_vfpfcnvrt
    _vfpfcnvrt->_xtoa
    _xtoa->_pad
    _toupper->_islower
    _utoa->_pad
    _pad->_fputs
    _fputs->_fputc
    _atoi->_isspace

Critical Paths under _main in BANK0

    _main->_USART_Init
    _USART_Init->___fladd
    ___fldiv->___xxtofl
    ___fladd->___fldiv

Critical Paths under _isr in BANK0

    None.

Critical Paths under _main in BANK1

    None.

Critical Paths under _isr in BANK1

    None.

Critical Paths under _main in BANK2

    None.

Critical Paths under _isr in BANK2

    None.

Critical Paths under _main in BANK3

    None.

Critical Paths under _isr in BANK3

    None.

Critical Paths under _main in BANK4

    None.

Critical Paths under _isr in BANK4

    None.

Critical Paths under _main in BANK5

    None.

Critical Paths under _isr in BANK5

    None.

Call Graph Tables:

 ---------------------------------------------------------------------------------
 (Depth) Function   	        Calls       Base Space   Used Autos Params    Refs
 ---------------------------------------------------------------------------------
 (0) _main                                                 6     6      0    8931
                                             63 BANK0      6     6      0
                     _USART_EnviaMsg
                         _USART_Init
 ---------------------------------------------------------------------------------
 (1) _USART_Init                                           8     4      4    4611
                                             55 BANK0      8     4      4
                            ___fladd
                            ___fldiv
                            ___fltol
                           ___xxtofl
 ---------------------------------------------------------------------------------
 (2) ___xxtofl                                            14    10      4     398
                                              0 BANK0     14    10      4
 ---------------------------------------------------------------------------------
 (2) ___fltol                                             10     6      4     305
                                              0 BANK0     10     6      4
 ---------------------------------------------------------------------------------
 (2) ___fldiv                                             25    17      8    1399
                                             14 BANK0     25    17      8
                           ___xxtofl (ARG)
 ---------------------------------------------------------------------------------
 (2) ___fladd                                             16     8      8    2388
                                             39 BANK0     16     8      8
                            ___fldiv (ARG)
                           ___xxtofl (ARG)
 ---------------------------------------------------------------------------------
 (1) _USART_EnviaMsg                                       3     1      2    4274
                                              0 BANK0      3     1      2
 ---------------------------------------------------------------------------------
 Estimated maximum stack depth 2
 ---------------------------------------------------------------------------------
 (Depth) Function   	        Calls       Base Space   Used Autos Params    Refs
 ---------------------------------------------------------------------------------
 (3) _isr                                                 15    15      0   14149
                                            113 COMRAM    13    13      0
                            _sprintf
                   i2_USART_EnviaMsg
 ---------------------------------------------------------------------------------
 (4) i2_USART_EnviaMsg                                     3     1      2    1030
                                              0 COMRAM     3     1      2
 ---------------------------------------------------------------------------------
 (4) _sprintf                                             16    10      6   13092
                                             97 COMRAM    16    10      6
                           _vfprintf
 ---------------------------------------------------------------------------------
 (5) _vfprintf                                             8     2      6   12265
                                             89 COMRAM     8     2      6
                          _vfpfcnvrt
 ---------------------------------------------------------------------------------
 (6) _vfpfcnvrt                                           46    40      6   11888
                                             66 COMRAM    23    17      6
                               _atoi
                              _fputc
                            _isdigit
                               _utoa
                               _xtoa
 ---------------------------------------------------------------------------------
 (7) _xtoa                                                39    28     11    4491
                                             27 COMRAM    39    28     11
                            _isalpha
                            _isupper
                                _pad
                            _toupper
 ---------------------------------------------------------------------------------
 (8) _toupper                                              8     6      2     412
                                              6 COMRAM     8     6      2
                            _islower
 ---------------------------------------------------------------------------------
 (9) _islower                                              6     4      2     161
                                              0 COMRAM     6     4      2
 ---------------------------------------------------------------------------------
 (8) _isupper                                              6     4      2     161
                                              0 COMRAM     6     4      2
 ---------------------------------------------------------------------------------
 (8) _isalpha                                              6     4      2     161
                                              0 COMRAM     6     4      2
 ---------------------------------------------------------------------------------
 (7) _utoa                                                32    22     10    3987
                                             27 COMRAM    32    22     10
                            ___lodiv
                            ___lomod
                                _pad
 ---------------------------------------------------------------------------------
 (8) _pad                                                 11     5      6    2937
                                             16 COMRAM    11     5      6
                              _fputc
                              _fputs
                             _strlen
 ---------------------------------------------------------------------------------
 (9) _strlen                                               4     2      2     166
                                              0 COMRAM     4     2      2
 ---------------------------------------------------------------------------------
 (9) _fputs                                                7     3      4    1235
                                              9 COMRAM     7     3      4
                              _fputc
 ---------------------------------------------------------------------------------
 (10) _fputc                                               9     5      4     834
                                              0 COMRAM     9     5      4
                              _putch
 ---------------------------------------------------------------------------------
 (11) _putch                                               1     1      0       0
 ---------------------------------------------------------------------------------
 (8) ___lomod                                             17     1     16     311
                                              0 COMRAM    17     1     16
 ---------------------------------------------------------------------------------
 (8) ___lodiv                                             25     9     16     314
                                              0 COMRAM    25     9     16
 ---------------------------------------------------------------------------------
 (7) _atoi                                                15    13      2    1290
                                              7 COMRAM    15    13      2
                             ___wmul
                            _isdigit
                            _isspace
 ---------------------------------------------------------------------------------
 (8) _isspace                                              7     5      2     207
                                              0 COMRAM     7     5      2
 ---------------------------------------------------------------------------------
 (7) _isdigit                                              6     4      2     237
                                              0 COMRAM     6     4      2
 ---------------------------------------------------------------------------------
 (8) ___wmul                                               6     2      4     449
                                              0 COMRAM     6     2      4
 ---------------------------------------------------------------------------------
 Estimated maximum stack depth 11
 ---------------------------------------------------------------------------------

 Call Graph Graphs:

 _main (ROOT)
   _USART_EnviaMsg
   _USART_Init
     ___fladd
       ___fldiv (ARG)
         ___xxtofl (ARG)
       ___xxtofl (ARG)
     ___fldiv
     ___fltol
     ___xxtofl

 _isr (ROOT)
   _sprintf
     _vfprintf
       _vfpfcnvrt
         _atoi
           ___wmul
           _isdigit
           _isspace
         _fputc
           _putch
         _isdigit
         _utoa
           ___lodiv
           ___lomod
           _pad
             _fputc
             _fputs
               _fputc
             _strlen
         _xtoa
           _isalpha
           _isupper
           _pad
           _toupper
             _islower
   i2_USART_EnviaMsg

 Address spaces:
Name               Size   Autos  Total    Cost      Usage
BIGRAM             5FF      0       0      17        0.0%
EEDATA             100      0       0       0        0.0%
BITBANK5           100      0       0      16        0.0%
BANK5              100      0       0      14        0.0%
BITBANK4           100      0       0      12        0.0%
BANK4              100      0       0      13        0.0%
BITBANK3           100      0       0      10        0.0%
BANK3              100      0       0      11        0.0%
BITBANK2           100      0       0       8        0.0%
BANK2              100      0      73       9       44.9%
BITBANK1           100      0       0       6        0.0%
BANK1              100      0      FF       7       99.6%
BITBANK0            80      0       0       4        0.0%
BANK0               80     45      7F       5       99.2%
BITCOMRAM           7E      0       0       0        0.0%
COMRAM              7E     7E      7E       1      100.0%
BITSFR               0      0       0     200        0.0%
SFR                  0      0       0     200        0.0%
STACK                0      0       0       2        0.0%
NULL                 0      0       0       0        0.0%
ABS                  0      0     26F      15        0.0%
DATA                 0      0     26F       3        0.0%
CODE                 0      0       0       0        0.0%


Microchip Technology PIC18 Macro Assembler V2.32 build 20210201212658 
Symbol Table                                                                                   Thu Apr 22 16:11:31 2021

             ___fldiv@aexp 00A6               ___fldiv@bexp 00A5               ___fldiv@sign 009E  
                       _J1 01FD                         _J2 01FB                         _J3 01F9  
                       _J4 01F7                         _J5 01F5                         _J6 00F6  
                       _J7 01F3                         _J8 00F4                         _J9 01F1  
 __end_ofi2_USART_EnviaMsg 2B5E        ___wmul@multiplicand 0003                        _J10 0271  
                      _J11 026F                        _J12 026D                        _J13 00F2  
                      _J14 026B                        l300 2ABA                        l302 2AEE  
                      l243 29F8                        l236 08F0                        l602 2542  
                      l298 2AAC                        l900 1B32                        l901 1B20  
                      l833 1170                        l850 128A                        l842 1440  
                      l834 115E                        l835 1124                        l860 1348  
                      l960 214E                        l859 135A                        l963 22AA  
                      l892 1A38                        l974 2242                        l887 1C14  
                      l967 21E6                        l889 1A74                        l898 1ABA  
                      _GIE 007F97                        _PR2 000FCB                        _pad 289E  
                      _isr 0008                        _txt 00ED                        wreg 000FE8  
             ___fltol@exp1 0089                       l3010 0F80                       l3100 113E  
                     l3020 0FBE                       l3012 0F8E                       l3110 117E  
                     l3102 1142                       l3030 0FEE                       l3022 0FCE  
                     l3014 0F9C                       l3200 1418                       l3120 11C0  
                     l3112 118E                       l3104 1150                       l3040 1018  
                     l3032 1000                       l3024 0FD0                       l3016 0F9E  
                     l3202 141A                       l3130 11EE                       l3122 11CE  
                     l3106 1152                       l3042 1028                       l3050 1052  
                     l3034 1002                       l3018 0FAE                       l3026 0FD8  
                     l3204 1420                       l3140 125A                       l3132 11F8  
                     l3124 11DA                       l3116 11A2                       l3108 115C  
                     l3060 108A                       l3052 1062                       l3044 1038  
                     l3036 1008                       l3028 0FE8                       l3300 1AA0  
                     l3220 18A8                       l3212 187A                       l3206 142E  
                     l3142 126A                       l3126 11DE                       l3118 11B2  
                     l3134 11FE                       l3070 109E                       l3062 108E  
                     l3054 1074                       l3046 1048                       l3038 1016  
                     l3310 1ADC                       l3302 1AAA                       l3230 18E2  
                     l3222 18B8                       l3214 1888                       l3208 1430  
                     l3160 12EC                       l3152 12C4                       l3136 1224  
                     l3144 127A                       l3128 11EC                       l3080 10B2  
                     l3072 10A2                       l3064 1092                       l3056 1082  
                     l3048 104A                       l3320 1B4E                       l3312 1AEA  
                     l3304 1AB8                       l3240 190E                       l3232 18E8  
                     l3224 18C8                       l3216 1896                       l3400 215E  
                     l3162 12F4                       l3154 12CE                       l3146 12A0  
                     l3138 1258                       l3170 1318                       l3090 10C6  
                     l3082 10B6                       l3074 10A6                       l3066 1096  
                     l3058 1086                       l3330 1BBA                       l3322 1B5C  
                     l3314 1B18                       l3306 1ACA                       l3250 1948  
                     l3242 191E                       l3234 18EE                       l3226 18CA  
                     l3218 1898                       l3410 219C                       l3402 2174  
                     l3180 136A                       l3172 131C                       l3164 12F8  
                     l3156 12DC                       l3148 12B0                       l3092 10F0  
                     l3084 10BA                       l3076 10AA                       l3068 109A  
                     l3340 1C08                       l3332 1BD4                       l3324 1B86  
                     l3308 1AD8                       l3252 195E                       l3244 192E  
                     l3236 18FC                       l3228 18D2                       l3420 2224  
                     l3412 21CE                       l3500 017A                       l3190 13D0  
                     l3182 1376                       l3174 132A                       l3166 1308  
                     l3158 12DE                       l3094 110C                       l3086 10BE  
                     l3078 10AE                       l3342 1C0A                       l3334 1BF0  
                     l3318 1B42                       l3326 1B8A                       l3270 19B2  
                     l3254 196E                       l3262 198E                       l3246 1930  
                     l3238 18FE                       l3350 243C                       l3430 227A  
                     l3422 2232                       l3414 21D0                       l3406 2188  
                     l3510 019E                       l3502 018E                       l3192 13E0  
                     l3184 1384                       l3176 1340                       l3168 130A  
                     l3096 111C                       l3088 10C2                       l3336 1BF4  
                     l3328 1BA4                       l3280 1A04                       l3272 19CC  
                     l3264 199E                       l3256 1976                       l3248 1938  
                     l3360 2494                       l3352 2454                       l3432 228A  
                     l3424 2250                       l3416 21DC                       l3408 2190  
                     l3600 04BC                       l3504 0190                       l3194 1400  
                     l3186 13BE                       l3098 1132                       l3338 1C02  
                     l3290 1A60                       l3282 1A14                       l3274 19DC  
                     l3266 199E                       l3258 197A                       l3362 24A4  
                     l3434 2298                       l3426 2252                       l3418 2218  
                     l3450 29F0                       l3610 0506                       l3602 04D0  
                     l3530 02FA                       l3522 01E4                       l3514 01BE  
                     l3506 0192                       l3460 2ABE                       l3196 1404  
                     l3188 13C0                       l3292 1A62                       l3284 1A28  
                     l3276 19EC                       l3372 24CE                       l3364 24A8  
                     l3356 2468                       l3436 229A                       l3428 2256  
                     l3452 29F4                       l3700 0792                       l3620 0524  
                     l3612 0514                       l3604 04E4                       l3540 030E  
                     l3532 02FC                       l3524 02DE                       l3516 01CA  
                     l3508 0194                       l3454 2A80                       l3198 1412  
                     l3294 1A72                       l3286 1A36                       l3278 19FC  
                     l3390 2532                       l3382 24F6                       l3374 24D8  
                     l3366 24B6                       l3358 2492                       l3710 07DC  
                     l3702 07AC                       l3630 0566                       l3622 0526  
                     l3614 051E                       l3606 04EC                       l3550 033A  
                     l3542 0310                       l3534 02FE                       l3526 02EE  
                     l3518 01DA                       l3456 2A84                       l3296 1A84  
                     l3288 1A42                       l3384 2502                       l3376 24E2  
                     l3448 2964                       l3720 082E                       l3712 07F0  
                     l3704 07BA                       l3640 05B0                       l3632 057A  
                     l3624 0532                       l3616 0520                       l3608 04F8  
                     l3560 038E                       l3552 0348                       l3544 0312  
                     l3536 0306                       l3528 02F8                       l3458 2AA8  
                     l3298 1A9A                       l3386 2512                       l3394 20F8  
                     l3730 0874                       l3722 0836                       l3714 0802  
                     l3706 07C4                       l3650 05CE                       l3642 05BE  
                     l3634 058E                       l3618 0522                       l3626 0540  
                     l3570 03CC                       l3562 039C                       l3554 0352  
                     l3546 031E                       l3538 030A                       l3490 0036  
                     l3388 2522                       l3396 210A                       l3740 08C6  
                     l3732 0886                       l3724 0848                       l3716 080A  
                     l3708 07D2                       l3660 0668                       l3652 05D0  
                     l3644 05C8                       l3636 0596                       l3628 0554  
                     l3580 0420                       l3572 03E0                       l3556 0360  
                     l3564 03A6                       l3548 032C                       l3492 0038  
                     l3484 0012                       l3398 2118                       l3742 08D0  
                     l3734 088E                       l3726 085A                       l3718 081C  
                     l3670 06AE                       l3662 067A                       l3654 05DC  
                     l3646 05CA                       l3638 05A2                       l3590 0474  
                     l3582 042A                       l3574 03FA                       l3566 03B4  
                     l3558 0374                       l3494 004E                       l3486 001E  
                     ?_pad 0011                       l3744 08E2                       l3736 08A2  
                     l3728 0862                       l3680 06FE                       l3672 06C0  
                     l3664 0682                       l3648 05CC                       l3656 05EA  
                     l3584 0438                       l3592 047E                       l3576 0408  
                     l3568 03BE                       l3496 0050                       l3488 0024  
                     l3746 08F8                       l3738 08B4                       l3690 074E  
                     l3682 0706                       l3674 06D2                       l3666 0694  
                     l3658 05FE                       l3594 048C                       l3586 044C  
                     l3578 0412                       l3498 0052                       l3684 0714  
                     l3692 0758                       l3676 06DA                       l3668 06A6  
                     l3596 0496                       l3588 0466                       l3694 0766  
                     l3686 0726                       l3678 06EC                       l3598 04AA  
                     l3696 0770                       l3688 0740                       l3698 077E  
                     ?_isr 0001                       STR_1 7FFC                       STR_2 7FDD  
                     STR_3 7F32                       STR_4 7E92                       STR_5 7F47  
                     STR_6 7FDD                       STR_7 7F5B                       STR_8 7FDD  
                     STR_9 7F97                       _CRLF 00FC                       u3200 1082  
                     u3120 0F9C                       u4000 00E8                       u3201 107E  
                     u3121 0F98                       u4001 00DE                       u3210 10F0  
                     u3130 0FAE                       u4010 0104                       u3211 10EC  
                     u3131 0FAA                       u4011 00FC                       u3300 11CE  
                     u3220 1108                       u3140 0FBE                       u4100 0420  
                     u4020 01BA                       u3301 11CA                       u3221 1102  
                     u3141 0FBA                       u4101 041C                       u4021 01B6  
                     u3310 11EC                       u3230 110A                       u3150 1000  
                     u4110 0438                       u4030 0360                       u3311 11E8  
                     u3151 0FFC                       u4111 0434                       u4031 035C  
                     u3400 132A                       u3320 1224                       u3240 1132  
                     u3160 1016                       u4200 0554                       u4120 044C  
                     u4040 0374                       u4008 00EC                       u3401 1326  
                     u3321 1220                       u3241 112E                       u3161 1012  
                     u4201 0550                       u4121 0448                       u4041 0370  
                     u3410 1340                       u3330 126A                       u3250 1150  
                     u3170 1028                       u4210 0566                       u4130 0474  
                     u4050 039C                       u4018 0108                       u3411 133C  
                     u3331 1266                       u3251 114C                       u3171 1024  
                     u4211 0562                       u4131 0470                       u4051 0398  
                     u3500 142E                       u3420 1356                       u3340 12A0  
                     u3260 1170                       u3180 1038                       u4300 06C0  
                     u4220 057A                       u4140 048C                       u4060 03B4  
                     u3501 142A                       u3421 1352                       u3341 129C  
                     u3261 116C                       u3181 1034                       u4301 06BC  
                     u4221 0576                       u4141 0488                       u4061 03B0  
                     u3430 136A                       u3350 12B0                       u3270 117E  
                     u3190 1074                       u3510 1896                       u4310 06D2  
                     u4230 058E                       u4150 04AA                       u4070 03CC  
                     u3431 1366                       u3351 12AC                       u3271 117A  
                     u3191 1070                       u3511 1892                       u4311 06CE  
                     u4231 058A                       u4151 04A6                       u4071 03C8  
                     u3440 1384                       u3360 12DC                       u3280 118E  
                     u3600 1A36                       u3520 18A8                       u4400 07BA  
                     u4320 06EC                       u4240 05BE                       u4160 04BC  
                     u4080 03E0                       u3441 1380                       u3361 12D8  
                     u3281 118A                       u3601 1A32                       u3521 18A4  
                     u4401 07B6                       u4321 06E8                       u4241 05BA  
                     u4161 04B8                       u4081 03DC                       u3450 13BE  
                     u3370 12EC                       u3290 11C0                       u3610 1A60  
                     u3530 18B8                       u4410 07D2                       u4330 06FE  
                     u4250 05FE                       u4170 04D0                       u4090 0408  
                     u3451 13BA                       u3371 12E8                       u3291 11BC  
                     u3611 1A5C                       u3531 18B4                       u4411 07CE  
                     u4331 06FA                       u4251 05FA                       u4171 04CC  
                     u4091 0404                       u3460 13D0                       u3380 1308  
                     u3700 1B5C                       u3620 1A84                       u3540 18FC  
                     u4500 08A2                       u4420 07F0                       u4340 0714  
                     u4260 0668                       u4180 04E4                       u3461 13CC  
                     u3381 1304                       u3701 1B58                       u3621 1A80  
                     u3541 18F8                       u4501 089E                       u4421 07EC  
                     u4341 0710                       u4261 0664                       u4181 04E0  
                     u3470 13E0                       u3390 1318                       u3710 1BA4  
                     u3630 1A9A                       u3550 190E                       u4510 08B4  
                     u4430 0802                       u4350 0726                       u4270 067A  
                     u4190 0514                       u3471 13DC                       u3391 1314  
                     u3711 1BA0                       u3631 1A96                       u3551 190A  
                     u4511 08B0                       u4431 07FE                       u4351 0722  
                     u4271 0676                       u4191 0510                       u3480 1400  
                     u3720 1BD4                       u3640 1AB8                       u3560 191E  
                     u3800 2522                       u4520 08C6                       u4440 081C  
                     u4360 074E                       u4280 0694                       u3481 13FC  
                     u3721 1BD0                       u3641 1AB4                       u3561 191A  
                     u3801 251E                       u4521 08C2                       u4441 0818  
                     u4361 074A                       u4281 0690                       u3490 1412  
                     u3730 1C02                       u3650 1AD8                       u3570 195E  
                     u3810 210A                       u4530 08E2                       u4450 082E  
                     u4370 0766                       u4290 06A6                       u3491 140E  
                     u3731 1BFE                       u3651 1AD4                       u3571 195A  
                     u3811 2106                       u4531 08DE                       u4451 082A  
                     u4371 0762                       u4291 06A2                       _PEIE 007F96  
                     u3660 1AEA                       u3580 199E                       u3740 2454  
                     u3900 2298                       u3820 2118                       u4460 0848  
                     u4380 077E                       u3661 1AE6                       u3581 199A  
                     u3741 2450                       u3901 2294                       u3821 2114  
                     u4461 0844                       u4381 077A                       u3670 1B18  
                     u3590 1A14                       u3750 2488                       u3830 2174  
                     u4470 085A                       u4390 0792                       u3671 1B14  
                     u3591 1A10                       u3831 2170                       u4471 0856  
                     u4391 078E                       u3920 2AA4                       u3680 1B2E  
                     u3760 24B6                       u3840 21CA                       u4480 0874  
                     u3681 1B2A                       u3761 24B2                       u3841 21C6  
                     u4481 0870                       u3930 2ABA                       u3690 1B42  
                     u3770 24CA                       u3850 2214                       u4490 0886  
                     u3931 2AB6                       u3691 1B3E                       u3771 24C6  
                     u3755 247E                       u3851 2210                       u4491 0882  
                     _RCIE 007CED                       u3940 2ADE                       u3780 24F2  
                     u3860 2232                       _RCIF 007CF5                       u3781 24EE  
                     u3861 222E                       u3950 2AEE                       u3790 2512  
                     u3870 2242                       u3951 2AEA                       u3927 2A9A  
                     u3791 250E                       u3871 223E                       u4807 03EC  
                     u3880 2250                       u3881 224C                       u4817 0458  
                     u3890 228A                       u3947 2AD4                       u3891 2286  
                     u4827 0732                       u4837 079E                       u4777 01D2  
                     u4787 02E6                       u4797 0380                       _TXIF 007CF4  
                     _dbuf 01CF                       _atoi 22AC                       _main 0012  
                     _prec 00C9                       _nout 00C5                       pad@i 0018  
                     pad@p 0015                       fsr1h 000FE2                       fsr2h 000FDA  
                     indf1 000FE7                       indf2 000FDF                       fsr1l 000FE1  
                     pad@w 001A                       fsr2l 000FD9                       btemp 007F  
                     _utoa 1EF0                       _xtoa 1C16          _ValorStateShutter 00E9  
                     prodh 000FF4                       prodl 000FF3                       start 000E  
          ___fldiv@new_exp 009F            ?_USART_EnviaMsg 0080               ___param_bank 000000  
    _EstadoAprobacionBolsa 00DD                      ??_pad 0017                      ??_isr 0072  
            ___fltol@sign1 0088                      ?_atoi 0008            __end_of___fladd 1442  
                    ?_main 0001            __end_of___fldiv 1C16                      STR_10 7E92  
                    STR_11 7FB7                      STR_20 7ED1                      STR_12 7EB3  
                    STR_13 7F83                      STR_21 7EEE                      STR_30 7FD8  
                    STR_22 7F6F                      STR_14 7F06                      STR_31 7FF2  
                    STR_15 7F1C                      STR_23 7E3B                      STR_16 7F06  
                    STR_24 7FAA                      STR_32 7E67                      STR_17 7FB7  
                    STR_25 7FF7                      STR_33 7FE6                      STR_18 7EB3  
                    STR_34 7FC9                      STR_26 7FCE                      STR_27 7FED  
                    STR_19 7FC3                      STR_28 7FDF                      STR_29 7FF2  
          __end_of___fltol 2544                      ?_utoa 001C                      _T0CON 000FD5  
          __end_of___lodiv 2634                      ?_xtoa 001C                      _T1CON 000FCD  
                    _T2CON 000FCA                      _LATA0 007C48                      _LATA1 007C49  
                    _LATA2 007C4A                      _LATA3 007C4B                      _LATA4 007C4C  
                    _LATC1 007C59                      _LATA5 007C4D                      _LATC2 007C5A  
                    _LATE0 007C68                      _LATE1 007C69                      _LATE2 007C6A  
          __end_of___lomod 2704                      i2l300 2B28                      i2l302 2B5C  
                    i2l305 2EBC                      i2l248 0CBC                      i2l293 0F54  
                    i2l279 0D42                      i2l289 0F18                      i2l298 2B1A  
                    i2l750 2632                      i2l743 2612                      i2l760 2702  
                    i2l753 26E2                      i2l983 2C88                      _RCREG 000FAE  
                    _RCSTA 000FAB               vfpfcnvrt@fmt 0045                      _TMR0H 000FD7  
             vfpfcnvrt@llu 0052                      _TMR1H 000FCF                      _TMR0L 000FD6  
                    _TMR1L 000FCE                      _SPBRG 000FAF                      _TRISA 000F92  
                    _TRISB 000F93                      _TRISC 000F94                      _TRISD 000F95  
                    _TRISE 000F96                      _TXREG 000FAD                      _TXSTA 000FAC  
                    _flags 00CB                      _fputc 27D4            __end_of_isalpha 2DBA  
                    _fputs 2D3A            __end_of_isdigit 2E62                      atoi@n 0015  
                    pad@fp 0011                      atoi@s 0008                      _width 00C7  
                    _putch 2EC4                      main@i 00C3            __end_of_islower 2DF2  
          __end_of_isspace 2D3A                _DelaySensor 00FA            __end_of_isupper 2E2A  
                    tablat 000FF5                      ttemp5 0080                      ttemp6 0083  
                    ttemp7 0087                      utoa@d 001E                      utoa@i 003A  
                    utoa@n 0032                      utoa@p 002E                      utoa@w 0030  
                    status 000FD8                      wtemp8 0080            __end_of_sprintf 2C8A  
                    xtoa@c 0041                      xtoa@d 001E                      xtoa@i 003F  
                    xtoa@n 0037                      xtoa@p 0033                      xtoa@w 0035  
                    xtoa@x 0026            __end_of_toupper 2CE8           ___lodiv@dividend 0001  
              ?_USART_Init 00B7               _toupper$1061 000D            __initialization 29FA  
           _ValorBagSensor 00E5               __end_of_atoi 243C               __end_of_main 090A  
             __end_of_utoa 20F4             _ValorBagStatus 00E3               __end_of_xtoa 1EF0  
                   ??_atoi 000A                     ??_main 00BF                     ??_utoa 0026  
                   ??_xtoa 0027              __activetblptr 000002           ___lodiv@quotient 0011  
               _MsgVersion 01BB          _PulsoArribaBuzzer 00D7                     _ADCON1 000FC1  
                   ?_fputc 0001                     ?_fputs 000A                     ?_putch 0001  
                   i2l1021 2926                     i2l1030 1F30                     i2l1023 2962  
                   i2l1104 2C22                     i2l1201 2CE6                     i2l1105 2C2A  
                   i2l1018 28E4                     i2l1043 1C4E                     i2l1028 1F28  
                   i2l1052 1CEC                     i2l1133 2432                     i2l1045 1C56  
                   i2l1038 20F2                     i2l1207 2DF0                     i2l1136 243A  
                   i2l1145 2E60                     i2l1153 2D38                     i2l1066 1E8A  
                   i2l1082 153E                     i2l1139 2DB8                     i2l1068 1EEE  
                   i2l1174 289C                     i2l1182 2D7C                     i2l1191 2E96  
                   i2l1159 2E28                     i2l1095 1878                     i2l1185 2EC4  
                   i2l1196 2CDE                     i2l4040 0C36                     i2l4042 14FE  
                   i2l4044 2368                     i2l2620 27D4                     i2l2700 289E  
                   i2l2630 2856                     i2l2622 27E6                     i2l2710 28F0  
                   i2l2702 28AE                     i2l2624 27F8                     i2l2640 2D5C  
                   i2l2712 2904                     i2l2704 28C2                     i2l2800 1C6C  
                   i2l3440 2BCA                     i2l2626 2802                     i2l2634 2D3A  
                   i2l2642 2E62                     i2l2714 2908                     i2l2706 28D0  
                   i2l2722 2DF2                     i2l2730 2C8A                     i2l2810 1CAC  
                   i2l2802 1C74                     i2l3442 2BD2                     i2l2740 2E2A  
                   i2l2628 2820                     i2l2636 2D46                     i2l2644 2E6E  
                   i2l2716 2936                     i2l2708 28DC                     i2l2652 2DBA  
                   i2l2820 1D20                     i2l2812 1CB4                     i2l2804 1C94  
                   i2l2900 1442                     i2l3444 2BE0                     i2l2750 2D2E  
                   i2l2670 258A                     i2l2662 2544                     i2l2638 2D58  
                   i2l2646 2E72                     i2l2718 294A                     i2l2726 2D7E  
                   i2l2734 2CC0                     i2l2822 1D32                     i2l2830 1D92  
                   i2l2814 1CD0                     i2l2806 1C9C                     i2l2910 1496  
                   i2l2902 1466                     i2l3446 2C06                     i2l3470 2C70  
                   i2l3462 2C2C                     i2l2656 2E98                     i2l2752 2D32  
                   i2l2744 2CE8                     i2l2680 25FA                     i2l2672 2598  
                   i2l2664 2550                     i2l2648 2E8A                     i2l2760 1F02  
                   i2l2736 2CD2                     i2l2840 1E28                     i2l2832 1DA2  
                   i2l2816 1CE0                     i2l2808 1CA6                     i2l2912 149A  
                   i2l2904 1474                     i2l3472 2C80                     i2l3464 2C3C  
                   i2l3480 2B16                     i2l3800 0A3A                     i2l2658 2EB4  
                   i2l2746 2CEC                     i2l2682 260C                     i2l2674 25AA  
                   i2l2666 256E                     i2l2690 266E                     i2l2770 1F70  
                   i2l2762 1F1C                     i2l2850 1EA0                     i2l2842 1E46  
                   i2l2834 1DA8                     i2l2826 1D6C                     i2l2930 14CC  
                   i2l2922 14BC                     i2l2914 14AC                     i2l2906 1486  
                   i2l3466 2C44                     i2l3482 2B2C                     i2l3810 0A4A  
                   i2l3802 0A42                     i2l2748 2D00                     i2l2860 22C0  
                   i2l2676 25D8                     i2l2668 2576                     i2l2692 267C  
                   i2l2684 2634                     i2l2780 2068                     i2l2772 1FE6  
                   i2l2764 1F58                     i2l2756 1EF0                     i2l2852 1EB0  
                   i2l2844 1E60                     i2l2836 1DAE                     i2l2828 1D7E  
                   i2l2940 1550                     i2l2908 148A                     i2l3468 2C4C  
                   i2l3476 2AF0                     i2l3900 0DAC                     i2l3812 0A64  
                   i2l3804 0A44                     i2l2870 231E                     i2l2862 22C4  
                   i2l2678 25F8                     i2l2694 26AA                     i2l2686 2652  
                   i2l2782 2086                     i2l2774 1FEC                     i2l2766 1F60  
                   i2l2758 1F00                     i2l2854 1EC6                     i2l2846 1E7A  
                   i2l2838 1E0C                     i2l2950 15E6                     i2l2942 1574  
                   i2l2934 14D8                     i2l2926 14C4                     i2l2918 14B4  
                   i2l3478 2AF4                     i2l3910 0DB6                     i2l3902 0DAE  
                   i2l3814 0A66                     i2l3806 0A46                     i2l3750 0942  
                   i2l2880 234A                     i2l2864 22C8                     i2l2696 26CA  
                   i2l2688 265A                     i2l2784 20A0                     i2l2776 1FF2  
                   i2l2768 1F6A                     i2l2848 1E9A                     i2l2792 1C16  
                   i2l2960 1670                     i2l2952 15F4                     i2l2944 15AA  
                   i2l2936 152C                     i2l3920 0DEC                     i2l3912 0DC2  
                   i2l3904 0DB0                     i2l3832 0A84                     i2l3808 0A48  
                   i2l3760 097A                     i2l3752 0950                     i2l2890 23F2  
                   i2l2882 237E                     i2l2874 2324                     i2l2866 22E4  
                   i2l2858 22AC                     i2l2698 26DC                     i2l2786 20BA  
                   i2l2778 2056                     i2l2794 1C26                     i2l2970 173A  
                   i2l2962 16BA                     i2l2946 15B8                     i2l2938 154E  
                   i2l3930 0E28                     i2l3922 0DF4                     i2l3906 0DB2  
                   i2l3914 0DCE                     i2l3850 0B26                     i2l3842 0ABE  
                   i2l3834 0A9A                     i2l3818 0A76                     i2l3770 099E  
                   i2l3762 097C                     i2l3754 095A                     i2l2892 2404  
                   i2l2876 233A                     i2l2868 231A                     i2l2788 20CA  
                   i2l2796 1C28                     i2l2972 1750                     i2l2980 17D6  
                   i2l2956 163A                     i2l2948 15C6                     i2l3940 0E5A  
                   i2l3932 0E2A                     i2l3924 0E02                     i2l3916 0DDC  
                   i2l3908 0DB4                     i2l3860 0B9A                     i2l3852 0B32  
                   i2l3844 0ADA                     i2l3836 0AA6                     i2l3780 09E4  
                   i2l3772 09AA                     i2l3764 098E                     i2l3756 0970  
                   i2l3748 0934                     i2l2894 2416                     i2l2886 23B4  
                   i2l2878 2342                     i2l2798 1C42                     i2l2982 17FA  
                   i2l2990 1828                     i2l2974 175E                     i2l2966 16F2  
                   i2l2958 164C                     i2l3950 0EA8                     i2l3942 0E64  
                   i2l3934 0E2C                     i2l3926 0E1E                     i2l3918 0DEA  
                   i2l3862 0BB6                     i2l3854 0B4E                     i2l3846 0AEE  
                   i2l3838 0AAE                     i2l3790 09FE                     i2l3782 09E6  
                   i2l3774 09B6                     i2l3766 0990                     i2l3758 0978  
                   i2l2992 1836                     i2l2984 1808                     i2l2976 179A  
                   i2l2968 1716                     i2l3960 0F04                     i2l3952 0EB6  
                   i2l3944 0E78                     i2l3936 0E2E                     i2l3928 0E26  
                   i2l3880 0CE2                     i2l3864 0BC2                     i2l3856 0B5A  
                   i2l3848 0B0A                     i2l3792 0A0A                     i2l3784 09E8  
                   i2l3776 09C6                     i2l3768 0992                     i2l3872 0C22  
                   i2l2986 181C                     i2l3962 0F1C                     i2l3954 0EB8  
                   i2l3946 0E90                     i2l3938 0E42                     i2l3890 0D46  
                   i2l3882 0CF0                     i2l3874 0CCA                     i2l3866 0BCE  
                   i2l3858 0B66                     i2l3794 0A16                     i2l3786 09FA  
                   i2l3778 09DC                     i2l2996 1842                     i2l3964 0F44  
                   i2l3956 0ED8                     i2l3948 0E9A                     i2l3892 0D6E  
                   i2l3884 0D02                     i2l3876 0CD8                     i2l3868 0C06  
                   i2l3788 09FC                     i2l2998 1866                     i2l3958 0EDC  
                   i2l3894 0D7E                     i2l3886 0D06                     i2l3878 0CDA  
                   i2l3798 0A26                     i2l3896 0D9A                     i2l3888 0D2E  
                   i2l3898 0DAA                     _OSCCON 000FD3              vfpfcnvrt@done 004D  
                   _TMR0IE 007F95                     _TMR0IF 007F92                     _TMR1IE 007CE8  
                   _TMR1IF 007CF0                     _TMR2IE 007CE9                     _TMR2IF 007CF1  
         __end_of___xxtofl 22AC               vfprintf@cfmt 0060                  ??___fladd 00AF  
                   ___wmul 2E98                  ??___fldiv 0096                  ??___fltol 0084  
                ??___lodiv 0011                  ??___lomod 0011                     clear_0 2A60  
                   clear_1 2A6C                     isa$std 000001              _MsgCritical_0 0143  
            _MsgCritical_1 0122              _MsgCritical_2 0164              _MsgCritical_3 0100  
                   pad@buf 0013                     _strlen 2E62                     fputc@c 0001  
                   fputs@c 000E                     fputs@i 000F                     fputs@s 000A  
                ??_isalpha 0003                  ??_isdigit 0003                  ??_islower 0003  
             __mediumconst 7E3A                  ??_isspace 0003                     tblptrh 000FF7  
                ??_isupper 0003                     tblptrl 000FF6                     tblptru 000FF8  
      __size_of_USART_Init 0096                     putch@c 0001           __end_of_vfprintf 2C2C  
                   utoa@fp 001C                  ??_sprintf 0068                     xtoa@fp 001C  
                ??_toupper 0009               ___xxtofl@arg 008A               ___xxtofl@exp 0089  
             ___xxtofl@val 0080                 __accesstop 0080    __end_of__initialization 2A72  
           _ValorStateLock 00E7              ___rparam_used 000001                 ___fltol@f1 0080  
           __pcstackCOMRAM 0001               __pidataBANK0 2EBE               __pidataBANK1 2704  
             __pidataBANK2 2B5E              __end_of_fputc 289E              __end_of_fputs 2D7E  
            __end_of_putch 2EC6          ?i2_USART_EnviaMsg 0001         ??i2_USART_EnviaMsg 0003  
                  ??_fputc 0005                    ??_fputs 000E                    ??_putch 0001  
               __pbssBANK0 00C5                 __pbssBANK1 01CF           ??_USART_EnviaMsg 0082  
              _ModoTrabajo 00D3                    ?___wmul 0001                    ?_strlen 0001  
                ?___xxtofl 0080         __size_of_vfpfcnvrt 0438           ___lomod@dividend 0001  
         _MsgPersonalidad1 01A1           _MsgPersonalidad2 0184                    _Counter 00E1  
   USART_EnviaMsg@letraout 0082               ??_USART_Init 00BB                    __Hparam 0000  
                  __Lparam 0000                    _Tiempo0 00D1                    _Tiempo1 00CF  
                  _Tiempo2 00CD                    _StartUp 01EF                    ___fladd 0F80  
                  ___fldiv 187A                _ValorStateE 00EB                    ___fltol 243C  
          __size_of___wmul 0026                    ___lodiv 2544                    ___lomod 2634  
                ?_vfprintf 005A                _TiempoPulso 00D9                    __pcinit 29FA  
                  __ramtop 0600                    __ptext0 0012                    __ptext1 2964  
                  __ptext2 20F4                    __ptext3 243C                    __ptext4 187A  
                  __ptext5 0F80                    __ptext6 2A80                    __ptext8 2AF0  
                  __ptext9 2C2C            __size_of_strlen 0036             USART_Init@temp 00BB  
             __size_of_pad 00C6                    _isalpha 2D7E                    _isdigit 2E2A  
             __size_of_isr 0F78                 ??___xxtofl 0084                    _islower 2DBA  
                  _isspace 2CE8                    _isupper 2DF2          _TiempoPulsoBuzzer 00D5  
                  atoi@neg 000E         __end_of_USART_Init 29FA                    _sprintf 2C2C  
           __pintcode_body 090A                    _toupper 2C8A       end_of_initialization 2A72  
   i2USART_EnviaMsg@msgout 0001                    fputc@fp 0003              __Lmediumconst 7E3A  
                  int_func 090A                    fputs@fp 000C          __end_of_vfpfcnvrt 187A  
              _PulsoArriba 00DB                    postdec1 000FE5                    postdec2 000FDD  
                  postinc0 000FEE                    postinc1 000FE6                    postinc2 000FDE  
               ??_vfprintf 0060                    strlen@a 0003                    strlen@s 0001  
                _PORTBbits 000F81                  _PORTDbits 000F83                ___fladd@grs 00B6  
            ___xxtofl@sign 0088                ___fldiv@grs 00A1                ___fldiv@rem 009A  
      USART_Init@baud_rate 00B7                vfpfcnvrt@ap 0047                vfpfcnvrt@fp 0043  
           __end_of___wmul 2EBE             __end_of_strlen 2E98        start_initialization 29FA  
          ___lodiv@divisor 0009            ___lodiv@counter 0019                __end_of_pad 2964  
              __end_of_isr 0F80  __size_ofi2_USART_EnviaMsg 006E                 isr@letrain 007E  
              vfprintf@fmt 005C                   ??___wmul 0005                __pdataBANK0 00FA  
              __pdataBANK1 0100                __pdataBANK2 0200                   ??_strlen 0003  
                ___fladd@a 00AB                  ___fladd@b 00A7                  ___fldiv@a 0092  
                ___fldiv@b 008E              __pcstackBANK0 0080          __size_of___xxtofl 01B8  
                __pnvBANK0 00F2                  __pnvBANK1 01EF                  __pnvBANK2 026B  
                __pintcode 0008              __pmediumconst 7E3A                   ?___fladd 00A7  
                 ?___fldiv 008E                   ?___fltol 0080                   ?___lodiv 0001  
                 ?___lomod 0001          __size_of_vfprintf 0062            ___lomod@divisor 0009  
          ___lomod@counter 0011                   ?_isalpha 0001                   ?_isdigit 0001  
                 ?_islower 0001                   ?_isspace 0001                   ?_isupper 0001  
                 ?_sprintf 0062             __size_of_fputc 00CA             __size_of_fputs 0044  
                 ?_toupper 0007             __size_of_putch 0002             ___wmul@product 0005  
                 _PIE1bits 000F9D                   i2u300_40 1466                   i2u300_41 1462  
                 i2u301_40 153E                   i2u301_41 153A                   i2u310_40 173A  
                 i2u302_40 154E                   i2u310_41 1736                   i2u302_41 154A  
                 i2u311_40 17FA                   i2u303_40 1574                   i2u311_41 17F6  
                 i2u303_41 1570                   i2u240_40 27F8                   i2u304_40 15B8  
                 i2u240_41 27F4                   i2u304_41 15B4                   i2u241_40 2820  
                 i2u305_40 1634                   i2u241_41 281C                   i2u305_41 162E  
                 i2u250_40 25D8                   i2u242_40 2856                   i2u306_40 1636  
                 i2u250_41 25D4                   i2u242_41 2852                   i2u251_40 2652  
                 i2u243_40 2D7C                   i2u307_40 164C                   i2u251_41 264E  
                 i2u243_41 2D78                   i2u307_41 1648                   i2u252_40 267C  
                 i2u244_40 2E8A                   i2u260_40 2DB2                   i2u308_40 1670  
                 i2u252_41 2678                   i2u244_41 2E86                   i2u260_41 2DAC  
                 i2u308_41 166C                   i2u253_40 26AA                   i2u261_40 2DB4  
                 i2u245_40 2DEA                   i2u309_40 1716                   i2u253_41 26A6  
                 i2u245_41 2DE4                   i2u309_41 1712                   i2u254_40 28AE  
                 i2u270_40 1F1C                   i2u246_40 2DEC                   i2u262_40 2CBA  
                 i2u254_41 28AA                   i2u270_41 1F18                   i2u262_41 2CB4  
                 i2u239_40 27E6                   i2u255_40 28D0                   i2u271_40 2068  
                 i2u263_40 2CBC                   i2u247_41 254A                   i2u239_41 27E2  
                 i2u255_41 28CC                   i2u271_41 2064                   i2u248_40 256E  
                 i2u256_40 2926                   i2u272_40 2086                   i2u264_40 2CD2  
                 i2u280_40 1D1A                   i2u248_41 256A                   i2u256_41 2922  
                 i2u272_41 2082                   i2u264_41 2CCE                   i2u280_41 1D14  
                 i2u265_40 2E5A                   i2u249_40 2598                   i2u257_40 2936  
                 i2u273_40 20A0                   i2u281_40 1D1C                   i2u265_41 2E54  
                 i2u249_41 2594                   i2u257_41 2932                   i2u273_41 209C  
                 _PIR1bits 000F9E                   i2u266_40 2E5C                   i2u274_40 20BA  
                 i2u258_40 2E22                   i2u290_40 1E7A                   i2u282_40 1D32  
                 i2u274_41 20B6                   i2u258_41 2E1C                   i2u290_41 1E76  
                 i2u282_41 1D2E                   i2u267_40 2D00                   i2u275_40 20CA  
                 i2u259_40 2E24                   i2u291_40 1E8A                   i2u283_40 1D66  
                 i2u267_41 2CFC                   i2u275_41 20C6                   i2u291_41 1E86  
                 i2u283_41 1D60                   i2u268_40 2D2E                   i2u292_40 1E9A  
                 i2u284_40 1D68                   i2u276_40 1C26                   i2u460_40 0AEE  
                 i2u268_41 2D2A                   i2u292_41 1E96                   i2u276_41 1C22  
                 i2u460_41 0AEA                   i2u293_40 22E4                   i2u269_40 1F00  
                 i2u285_40 1D7E                   i2u277_40 1C42                   i2u461_40 0CCA  
                 i2u293_41 22E0                   i2u269_41 1EFC                   i2u285_41 1D7A  
                 i2u277_41 1C3E                   i2u461_41 0CC6                   i2u294_40 231A  
                 i2u286_40 1DE6                   i2u278_40 1C6C                   i2u470_40 0E42  
                 i2u462_40 0CD8                   i2u454_40 0942                   i2u294_41 2316  
                 i2u278_41 1C68                   i2u470_41 0E3E                   i2u462_41 0CD4  
                 i2u454_41 093E                   i2u286_45 1DD4                   i2u295_40 2336  
                 i2u287_40 1E28                   i2u279_40 1CD0                   i2u391_40 2C22  
                 i2u471_40 0E78                   i2u463_40 0D02                   i2u455_40 0950  
                 i2u295_41 2332                   i2u287_41 1E24                   i2u279_41 1CCC  
                 i2u391_41 2C1E                   i2u471_41 0E74                   i2u463_41 0CFE  
                 i2u455_41 094C                   i2u296_40 23EC                   i2u288_40 1E46  
                 i2u472_40 0EA8                   i2u464_40 0D2E                   i2u456_40 0970  
                 i2u296_41 23E6                   i2u288_41 1E42                   i2u472_41 0EA4  
                 i2u464_41 0D2A                   i2u456_41 096C                   i2u297_40 23EE  
                 i2u289_40 1E60                   i2u473_40 0EB6                   i2u465_40 0D6E  
                 i2u457_40 09DC                   i2u289_41 1E5C                   i2u473_41 0EB2  
                 i2u465_41 0D6A                   i2u457_41 09D8                   i2u298_40 2404  
                 i2u474_40 0ED8                   i2u466_40 0D9A                   i2u458_40 0A3A  
                 i2u298_41 2400                   i2u474_41 0ED4                   i2u466_41 0D96  
                 i2u458_41 0A36                   i2u299_40 2416                   i2u475_40 0F04  
                 i2u467_40 0DDC                   i2u459_40 0A9A                   i2u299_41 2412  
                 i2u475_41 0F00                   i2u467_41 0DD8                   i2u459_41 0A96  
                 i2u396_40 2B14                   i2u476_40 0F44                   i2u468_40 0DEA  
                 i2u476_41 0F40                   i2u468_41 0DE6                   i2u396_47 2B0A  
                 i2u397_40 2B28                   i2u469_40 0E1E                   i2u397_41 2B24  
                 i2u469_41 0E1A                   i2u398_40 2B4C                   i2u398_47 2B42  
                 i2u399_40 2B5C                   i2u399_41 2B58    __size_of_USART_EnviaMsg 0070  
                _vfpfcnvrt 1442          ___wmul@multiplier 0001               _isspace$1006 0007  
               vfpfcnvrt@c 0051                  copy_data0 2A0E                  copy_data1 2A2E  
                copy_data2 2A4E           i2_USART_EnviaMsg 2AF0   i2USART_EnviaMsg@letraout 0003  
                 _MsgAyuda 0200              _PuertaAbierta 00DF                   __Hrparam 0000  
                 _ValorBag 00F8                 vfprintf@ap 005E                   __Lrparam 0000  
               vfprintf@fp 005A           __size_of___fladd 04C2           __size_of___fldiv 039C  
         __size_of___fltol 0108           __size_of___lodiv 00F0           __size_of___lomod 00D0  
               ?_vfpfcnvrt 0043                 sprintf@fmt 0064                 sprintf@ret 0068  
                 ___xxtofl 20F4                   _atoi$980 0014                   _atoi$981 0012  
                 _atoi$979 0010           __size_of_isalpha 003C           __size_of_isdigit 0038  
         __size_of_islower 0038           __size_of_isspace 0052                   __ptext10 2BCA  
                 __ptext11 1442                   __ptext20 2D3A                   __ptext12 1C16  
                 __ptext21 27D4                   __ptext13 2C8A                   __ptext22 2EC4  
                 __ptext14 2DBA                   __ptext23 2634                   __ptext15 2DF2  
                 __ptext24 2544                   __ptext16 2D7E                   __ptext25 22AC  
                 __ptext17 1EF0                   __ptext26 2CE8                   __ptext18 289E  
                 __ptext27 2E2A                   __ptext19 2E62                   __ptext28 2E98  
         __size_of_isupper 0038           __size_of_sprintf 005E           __size_of_toupper 005E  
     USART_EnviaMsg@msgout 0080              __size_of_atoi 0190              __size_of_main 08F8  
            __size_of_utoa 0204              __size_of_xtoa 02DA                   isa$xinst 000000  
                 int$flags 007F                   _xtoa$945 002F                   _xtoa$946 0031  
                 _vfprintf 2BCA                   isalpha@c 0001                   isdigit@c 0001  
                 intlevel2 0000                  sprintf@ap 006A                   islower@c 0001  
                 isspace@c 0001                   isupper@c 0001             _USART_EnviaMsg 2A80  
              ??_vfpfcnvrt 0049              _vfpfcnvrt$960 004F                   sprintf@f 006C  
                 sprintf@s 0062                   toupper@c 0007              ___fladd@signs 00B3  
             ___fladd@aexp 00B4               ___fladd@bexp 00B5                 _USART_Init 2964  
   __end_of_USART_EnviaMsg 2AF0  
